 Navigation

 Timestamp is 691f1940 (Thu Nov 20 14:36:00 2025)

 Preferred load address is 10000000

 Start         Length     Name                   Class
 0001:00000000 00000060H .text$di                CODE
 0001:00000060 00059fe0H .text$mn                CODE
 0001:0005a040 00001d20H .text$x                 CODE
 0001:0005bd60 00000050H .text$yd                CODE
 0002:00000000 000002e8H .idata$5                DATA
 0002:000002e8 00000008H .00cfg                  DATA
 0002:000002f0 00000004H .CRT$XCA                DATA
 0002:000002f4 00000004H .CRT$XCL                DATA
 0002:000002f8 00000004H .CRT$XCU                DATA
 0002:000002fc 00000004H .CRT$XCZ                DATA
 0002:00000300 00000004H .CRT$XIA                DATA
 0002:00000304 00000004H .CRT$XIZ                DATA
 0002:00000308 00000004H .CRT$XLA                DATA
 0002:0000030c 00000004H .CRT$XLZ                DATA
 0002:00000310 00000004H .CRT$XPA                DATA
 0002:00000314 00000004H .CRT$XPZ                DATA
 0002:00000318 00000004H .CRT$XTA                DATA
 0002:0000031c 00000004H .CRT$XTZ                DATA
 0002:00000320 00000000H .gfids$y                DATA
 0002:00000320 00000000H .giats$y                DATA
 0002:00000320 00007720H .rdata                  DATA
 0002:00007a40 00000000H .rdata$CastGuardVftablesA DATA
 0002:00007a40 00000000H .rdata$CastGuardVftablesC DATA
 0002:00007a40 00000018H .rdata$T                DATA
 0002:00007a58 00000858H .rdata$r                DATA
 0002:000082b0 000001e4H .rdata$sxdata           DATA
 0002:00008494 00000c30H .rdata$voltmd           DATA
 0002:000090c4 000003ccH .rdata$zzzdbg           DATA
 0002:00009490 00000004H .rtc$IAA                DATA
 0002:00009494 00000000H .rtc$IMZ                DATA
 0002:00009494 00000004H .rtc$IZZ                DATA
 0002:00009498 00000004H .rtc$TAA                DATA
 0002:0000949c 00000000H .rtc$TMZ                DATA
 0002:0000949c 00000004H .rtc$TZZ                DATA
 0002:000094a0 00000004H .tls                    DATA
 0002:000094a4 00000004H .tls$                   DATA
 0002:000094a8 00000008H .tls$ZZZ                DATA
 0002:000094b0 000017a0H .xdata$x                DATA
 0002:0000ac50 0000091cH .edata                  DATA
 0002:0000b56c 00000050H .idata$2                DATA
 0002:0000b5bc 00000014H .idata$3                DATA
 0002:0000b5d0 000002e8H .idata$4                DATA
 0002:0000b8b8 0000190cH .idata$6                DATA
 0003:00000000 000000c8H .data                   DATA
 0003:000000c8 00000110H .data$r                 DATA
 0003:000001d8 000003e8H .data$rs                DATA
 0003:000005c0 00000408H .bss                    DATA
 0004:00000000 00000764H .msvcjmc                DATA
 0005:00000000 00000060H .rsrc$01                DATA
 0005:00000060 00000180H .rsrc$02                DATA

  Address         Publics by Value              Rva+Base       Lib:Object

 0000:00000000       ___AbsoluteZero            00000000     <absolute>
 0000:00000000       ___arm64x_extra_rfe_table  00000000     <absolute>
 0000:00000000       ___arm64x_extra_rfe_table_size 00000000     <absolute>
 0000:00000000       ___arm64x_native_entrypoint 00000000     <absolute>
 0000:00000000       ___arm64x_redirection_metadata 00000000     <absolute>
 0000:00000000       ___arm64x_redirection_metadata_count 00000000     <absolute>
 0000:00000000       ___dynamic_value_reloc_table 00000000     <absolute>
 0000:00000000       ___enclave_config          00000000     <absolute>
 0000:00000000       ___guard_check_icall_a64n_fptr 00000000     <absolute>
 0000:00000000       ___guard_eh_cont_count     00000000     <absolute>
 0000:00000000       ___guard_eh_cont_table     00000000     <absolute>
 0000:00000000       ___guard_fids_count        00000000     <absolute>
 0000:00000000       ___guard_fids_table        00000000     <absolute>
 0000:00000000       ___guard_iat_count         00000000     <absolute>
 0000:00000000       ___guard_iat_table         00000000     <absolute>
 0000:00000000       ___guard_longjmp_count     00000000     <absolute>
 0000:00000000       ___guard_longjmp_table     00000000     <absolute>
 0000:00000000       ___hybrid_auxiliary_delayload_iat 00000000     <absolute>
 0000:00000000       ___hybrid_auxiliary_delayload_iat_copy 00000000     <absolute>
 0000:00000000       ___hybrid_auxiliary_iat    00000000     <absolute>
 0000:00000000       ___hybrid_auxiliary_iat_copy 00000000     <absolute>
 0000:00000000       ___hybrid_code_map         00000000     <absolute>
 0000:00000000       ___hybrid_code_map_count   00000000     <absolute>
 0000:00000000       ___hybrid_image_info_bitfield 00000000     <absolute>
 0000:00000000       ___x64_code_ranges_to_entry_points 00000000     <absolute>
 0000:00000000       ___x64_code_ranges_to_entry_points_count 00000000     <absolute>
 0000:0000002c       __tls_array                0000002c     <absolute>
 0000:00000079       ___safe_se_handler_count   00000079     <absolute>
 0000:00000100       ___guard_flags             00000100     <absolute>
 0000:00000000       ___ImageBase               10000000     <linker-defined>
 0001:00000060       ?dtAllocSetCustom@@YAXP6APAXIW4dtAllocHint@@@ZP6AXPAX@Z@Z 10001060 f   DetourAlloc.obj
 0001:000000d0       ?dtAlloc@@YAPAXIW4dtAllocHint@@@Z 100010d0 f   DetourAlloc.obj
 0001:00000120       ?dtFree@@YAXPAX@Z          10001120 f   DetourAlloc.obj
 0001:000001d0       ?dtAssertFailSetCustom@@YAXP6AXPBD0H@Z@Z 100011d0 f   DetourAssert.obj
 0001:000001f0       ?dtAssertFailGetCustom@@YAP6AXPBD0H@ZXZ 100011f0 f   DetourAssert.obj
 0001:00000210       ?dtClosestPtPointTriangle@@YAXPAMPBM111@Z 10001210 f   DetourCommon.obj
 0001:00000900       ?dtClosestHeightPointTriangle@@YA_NPBM000AAM@Z 10001900 f   DetourCommon.obj
 0001:00000b80       ?dtIntersectSegmentPoly2D@@YA_NPBM00HAAM1AAH2@Z 10001b80 f   DetourCommon.obj
 0001:00000db0       ?dtIntersectSegSeg2D@@YA_NPBM000AAM1@Z 10001db0 f   DetourCommon.obj
 0001:00000f00       ?dtPointInPolygon@@YA_NPBM0H@Z 10001f00 f   DetourCommon.obj
 0001:000010b0       ?dtDistancePtPolyEdgesSqr@@YA_NPBM0HPAM1@Z 100020b0 f   DetourCommon.obj
 0001:00001280       ?dtDistancePtSegSqr2D@@YAMPBM00AAM@Z 10002280 f   DetourCommon.obj
 0001:00001460       ?dtCalcPolyCenter@@YAXPAMPBGHPBM@Z 10002460 f   DetourCommon.obj
 0001:00001620       ?dtOverlapPolyPoly2D@@YA_NPBMH0H@Z 10002620 f   DetourCommon.obj
 0001:000019c0       ?dtRandomPointInConvexPoly@@YAXPBMHPAMMM1@Z 100029c0 f   DetourCommon.obj
 0001:00001d90       ??$dtMax@M@@YAMMM@Z        10002d90 f i DetourCommon.obj
 0001:00001de0       ??$dtMin@M@@YAMMM@Z        10002de0 f i DetourCommon.obj
 0001:00001e30       ?dtMathSqrtf@@YAMM@Z       10002e30 f i DetourCommon.obj
 0001:00001e60       ?dtTriArea2D@@YAMPBM00@Z   10002e60 f i DetourCommon.obj
 0001:00001f50       ?dtVcopy@@YAXPAMPBM@Z      10002f50 f i DetourCommon.obj
 0001:00001fc0       ?dtVdot2D@@YAMPBM0@Z       10002fc0 f i DetourCommon.obj
 0001:00002030       ?dtVdot@@YAMPBM0@Z         10003030 f i DetourCommon.obj
 0001:000020d0       ?dtVperp2D@@YAMPBM0@Z      100030d0 f i DetourCommon.obj
 0001:00002140       ?dtVsub@@YAXPAMPBM1@Z      10003140 f i DetourCommon.obj
 0001:000021f0       ?overlapRange@@YA_NMMMMM@Z 100031f0 f i DetourCommon.obj
 0001:00002250       ?vperpXZ@@YAMPBM0@Z        10003250 f i DetourCommon.obj
 0001:000022c0       _fabsf                     100032c0 f i DetourCommon.obj
 0001:00002300       _sqrtf                     10003300 f i DetourCommon.obj
 0001:00002340       ??0dtNavMesh@@QAE@XZ       10003340 f   DetourNavMesh.obj
 0001:00002410       ??1dtNavMesh@@QAE@XZ       10003410 f   DetourNavMesh.obj
 0001:00002500       ?init@dtNavMesh@@QAEIPBUdtNavMeshParams@@@Z 10003500 f   DetourNavMesh.obj
 0001:000026b0       ?init@dtNavMesh@@QAEIPAEHH@Z 100036b0 f   DetourNavMesh.obj
 0001:00002810       ?getParams@dtNavMesh@@QBEPBUdtNavMeshParams@@XZ 10003810 f   DetourNavMesh.obj
 0001:00002840       ?addTile@dtNavMesh@@QAEIPAEHH_KPA_K@Z 10003840 f   DetourNavMesh.obj
 0001:00002ed0       ?removeTile@dtNavMesh@@QAEI_KPAPAEPAH@Z 10003ed0 f   DetourNavMesh.obj
 0001:00003290       ?calcTileLoc@dtNavMesh@@QBEXPBMPAH1@Z 10004290 f   DetourNavMesh.obj
 0001:00003340       ?getTileAt@dtNavMesh@@QBEPBUdtMeshTile@@HHH@Z 10004340 f   DetourNavMesh.obj
 0001:000033f0       ?getTilesAt@dtNavMesh@@QBEHHHPAPBUdtMeshTile@@H@Z 100043f0 f   DetourNavMesh.obj
 0001:000034b0       ?getTileRefAt@dtNavMesh@@QBE_KHHH@Z 100044b0 f   DetourNavMesh.obj
 0001:00003570       ?getTileRef@dtNavMesh@@QBE_KPBUdtMeshTile@@@Z 10004570 f   DetourNavMesh.obj
 0001:000035e0       ?getTileByRef@dtNavMesh@@QBEPBUdtMeshTile@@_K@Z 100045e0 f   DetourNavMesh.obj
 0001:00003680       ?getMaxTiles@dtNavMesh@@QBEHXZ 10004680 f   DetourNavMesh.obj
 0001:000036b0       ?getTile@dtNavMesh@@QBEPBUdtMeshTile@@H@Z 100046b0 f   DetourNavMesh.obj
 0001:000036f0       ?getTileAndPolyByRef@dtNavMesh@@QBEI_KPAPBUdtMeshTile@@PAPBUdtPoly@@@Z 100046f0 f   DetourNavMesh.obj
 0001:00003840       ?getTileAndPolyByRefUnsafe@dtNavMesh@@QBEX_KPAPBUdtMeshTile@@PAPBUdtPoly@@@Z 10004840 f   DetourNavMesh.obj
 0001:00003920       ?isValidPolyRef@dtNavMesh@@QBE_N_K@Z 10004920 f   DetourNavMesh.obj
 0001:00003a30       ?getPolyRefBase@dtNavMesh@@QBE_KPBUdtMeshTile@@@Z 10004a30 f   DetourNavMesh.obj
 0001:00003aa0       ?getOffMeshConnectionPolyEndPoints@dtNavMesh@@QBEI_K0PAM1@Z 10004aa0 f   DetourNavMesh.obj
 0001:00003cd0       ?getOffMeshConnectionByRef@dtNavMesh@@QBEPBUdtOffMeshConnection@@_K@Z 10004cd0 f   DetourNavMesh.obj
 0001:00003e70       ?setPolyFlags@dtNavMesh@@QAEI_KG@Z 10004e70 f   DetourNavMesh.obj
 0001:00003fb0       ?getPolyFlags@dtNavMesh@@QBEI_KPAG@Z 10004fb0 f   DetourNavMesh.obj
 0001:00004100       ?setPolyArea@dtNavMesh@@QAEI_KE@Z 10005100 f   DetourNavMesh.obj
 0001:00004250       ?getPolyArea@dtNavMesh@@QBEI_KPAE@Z 10005250 f   DetourNavMesh.obj
 0001:000043a0       ?getTileStateSize@dtNavMesh@@QBEHPBUdtMeshTile@@@Z 100053a0 f   DetourNavMesh.obj
 0001:00004410       ?storeTileState@dtNavMesh@@QBEIPBUdtMeshTile@@PAEH@Z 10005410 f   DetourNavMesh.obj
 0001:00004540       ?restoreTileState@dtNavMesh@@QAEIPAUdtMeshTile@@PBEH@Z 10005540 f   DetourNavMesh.obj
 0001:000046a0       ?getTile@dtNavMesh@@AAEPAUdtMeshTile@@H@Z 100056a0 f   DetourNavMesh.obj
 0001:000046e0       ?getTilesAt@dtNavMesh@@ABEHHHPAPAUdtMeshTile@@H@Z 100056e0 f   DetourNavMesh.obj
 0001:000047a0       ?getNeighbourTilesAt@dtNavMesh@@ABEHHHHPAPAUdtMeshTile@@H@Z 100057a0 f   DetourNavMesh.obj
 0001:000048b0       ?findConnectingPolys@dtNavMesh@@ABEHPBM0PBUdtMeshTile@@HPA_KPAMH@Z 100058b0 f   DetourNavMesh.obj
 0001:00004bc0       ?connectIntLinks@dtNavMesh@@AAEXPAUdtMeshTile@@@Z 10005bc0 f   DetourNavMesh.obj
 0001:00004d30       ?baseOffMeshLinks@dtNavMesh@@AAEXPAUdtMeshTile@@@Z 10005d30 f   DetourNavMesh.obj
 0001:00005050       ?connectExtLinks@dtNavMesh@@AAEXPAUdtMeshTile@@0H@Z 10006050 f   DetourNavMesh.obj
 0001:00005600       ?connectExtOffMeshLinks@dtNavMesh@@AAEXPAUdtMeshTile@@0H@Z 10006600 f   DetourNavMesh.obj
 0001:000059c0       ?unconnectLinks@dtNavMesh@@AAEXPAUdtMeshTile@@0@Z 100069c0 f   DetourNavMesh.obj
 0001:00005b10       ?queryPolygonsInTile@dtNavMesh@@ABEHPBUdtMeshTile@@PBM1PA_KH@Z 10006b10 f   DetourNavMesh.obj
 0001:00006220       ?findNearestPolyInTile@dtNavMesh@@ABE_KPBUdtMeshTile@@PBM1PAM@Z 10007220 f   DetourNavMesh.obj
 0001:00006510       ?getPolyHeight@dtNavMesh@@ABE_NPBUdtMeshTile@@PBUdtPoly@@PBMPAM@Z 10007510 f   DetourNavMesh.obj
 0001:000067d0       ?closestPointOnPoly@dtNavMesh@@ABEX_KPBMPAMPA_N@Z 100077d0 f   DetourNavMesh.obj
 0001:00006980       ?dtAllocNavMesh@@YAPAVdtNavMesh@@XZ 10007980 f   DetourNavMesh.obj
 0001:000069e0       ?dtFreeNavMesh@@YAXPAVdtNavMesh@@@Z 100079e0 f   DetourNavMesh.obj
 0001:000071a0       ??$dtAbs@M@@YAMM@Z         100081a0 f i DetourNavMesh.obj
 0001:000071f0       ??$dtClamp@M@@YAMMMM@Z     100081f0 f i DetourNavMesh.obj
 0001:00007270       ??$dtGetThenAdvanceBufferPointer@$$CBUdtPolyState@@@@YAPBUdtPolyState@@AAPBEI@Z 10008270 f i DetourNavMesh.obj
 0001:00007270       ??$dtGetThenAdvanceBufferPointer@$$CBUdtTileState@@@@YAPBUdtTileState@@AAPBEI@Z 10008270 f i DetourNavMesh.obj
 0001:00007270       ??$dtGetThenAdvanceBufferPointer@E@@YAPAEAAPAEI@Z 10008270 f i DetourNavMesh.obj
 0001:00007270       ??$dtGetThenAdvanceBufferPointer@M@@YAPAMAAPAEI@Z 10008270 f i DetourNavMesh.obj
 0001:00007270       ??$dtGetThenAdvanceBufferPointer@UdtBVNode@@@@YAPAUdtBVNode@@AAPAEI@Z 10008270 f i DetourNavMesh.obj
 0001:00007270       ??$dtGetThenAdvanceBufferPointer@UdtLink@@@@YAPAUdtLink@@AAPAEI@Z 10008270 f i DetourNavMesh.obj
 0001:00007270       ??$dtGetThenAdvanceBufferPointer@UdtOffMeshConnection@@@@YAPAUdtOffMeshConnection@@AAPAEI@Z 10008270 f i DetourNavMesh.obj
 0001:00007270       ??$dtGetThenAdvanceBufferPointer@UdtPoly@@@@YAPAUdtPoly@@AAPAEI@Z 10008270 f i DetourNavMesh.obj
 0001:00007270       ??$dtGetThenAdvanceBufferPointer@UdtPolyDetail@@@@YAPAUdtPolyDetail@@AAPAEI@Z 10008270 f i DetourNavMesh.obj
 0001:00007270       ??$dtGetThenAdvanceBufferPointer@UdtPolyState@@@@YAPAUdtPolyState@@AAPAEI@Z 10008270 f i DetourNavMesh.obj
 0001:00007270       ??$dtGetThenAdvanceBufferPointer@UdtTileState@@@@YAPAUdtTileState@@AAPAEI@Z 10008270 f i DetourNavMesh.obj
 0001:000072b0       ??$dtSqr@M@@YAMM@Z         100082b0 f i DetourNavMesh.obj
 0001:000072f0       ??$dtSwap@M@@YAXAAM0@Z     100082f0 f i DetourNavMesh.obj
 0001:00007340       ??2@YAPAXIPAX@Z            10008340 f i DetourNavMesh.obj
 0001:00007360       ??_GdtNavMesh@@QAEPAXI@Z   10008360 f i DetourNavMesh.obj
 0001:000073a0       ?allocLink@@YAIPAUdtMeshTile@@@Z 100083a0 f i DetourNavMesh.obj
 0001:00007400       ?computeTileHash@@YAHHHH@Z 10008400 f i DetourNavMesh.obj
 0001:00007460       ?decodePolyId@dtNavMesh@@QBEX_KAAI11@Z 10008460 f i DetourNavMesh.obj
 0001:00007500       ?decodePolyIdPoly@dtNavMesh@@QBEI_K@Z 10008500 f i DetourNavMesh.obj
 0001:00007550       ?decodePolyIdSalt@dtNavMesh@@QBEI_K@Z 10008550 f i DetourNavMesh.obj
 0001:000075b0       ?decodePolyIdTile@dtNavMesh@@QBEI_K@Z 100085b0 f i DetourNavMesh.obj
 0001:00007610       ?dtAlign4@@YAHH@Z          10008610 f i DetourNavMesh.obj
 0001:00007630       ?dtGetDetailTriEdgeFlags@@YAHEH@Z 10008630 f i DetourNavMesh.obj
 0001:00007660       ?dtNextPow2@@YAII@Z        10008660 f i DetourNavMesh.obj
 0001:000076d0       ?dtOppositeTile@@YAHH@Z    100086d0 f i DetourNavMesh.obj
 0001:000076f0       ?dtOverlapBounds@@YA_NPBM000@Z 100086f0 f i DetourNavMesh.obj
 0001:00007820       ?dtOverlapQuantBounds@@YA_NQBG000@Z 10008820 f i DetourNavMesh.obj
 0001:00007950       ?dtStatusFailed@@YA_NI@Z   10008950 f i DetourNavMesh.obj
 0001:000079a0       ?dtVadd@@YAXPAMPBM1@Z      100089a0 f i DetourNavMesh.obj
 0001:00007a50       ?dtVlenSqr@@YAMPBM@Z       10008a50 f i DetourNavMesh.obj
 0001:00007af0       ?dtVlerp@@YAXPAMPBM1M@Z    10008af0 f i DetourNavMesh.obj
 0001:00007be0       ?dtVmax@@YAXPAMPBM@Z       10008be0 f i DetourNavMesh.obj
 0001:00007cc0       ?dtVmin@@YAXPAMPBM@Z       10008cc0 f i DetourNavMesh.obj
 0001:00007da0       ?encodePolyId@dtNavMesh@@QBE_KIII@Z 10008da0 f i DetourNavMesh.obj
 0001:00007e00       ?freeLink@@YAXPAUdtMeshTile@@I@Z 10008e00 f i DetourNavMesh.obj
 0001:00007e40       ?getArea@dtPoly@@QBEEXZ    10008e40 f i DetourNavMesh.obj
 0001:00007e70       ?getType@dtPoly@@QBEEXZ    10008e70 f i DetourNavMesh.obj
 0001:00007ea0       ?overlapSlabs@@YA_NPBM000MM@Z 10008ea0 f i DetourNavMesh.obj
 0001:00008130       ?setArea@dtPoly@@QAEXE@Z   10009130 f i DetourNavMesh.obj
 0001:00008180       _floorf                    10009180 f i DetourNavMesh.obj
 0001:000081d0       ?dtCreateNavMeshData@@YA_NPAUdtNavMeshCreateParams@@PAPAEPAH@Z 100091d0 f   DetourNavMeshBuilder.obj
 0001:00009770       ?dtNavMeshHeaderSwapEndian@@YA_NPAEH@Z 1000a770 f   DetourNavMeshBuilder.obj
 0001:00009a20       ?dtNavMeshDataSwapEndian@@YA_NPAEH@Z 1000aa20 f   DetourNavMeshBuilder.obj
 0001:0000add0       ??$dtClamp@H@@YAHHHH@Z     1000bdd0 f i DetourNavMeshBuilder.obj
 0001:0000ae30       ??$dtGetThenAdvanceBufferPointer@UdtMeshHeader@@@@YAPAUdtMeshHeader@@AAPAEI@Z 1000be30 f i DetourNavMeshBuilder.obj
 0001:0000ae70       ?dtMathCeilf@@YAMM@Z       1000be70 f i DetourNavMeshBuilder.obj
 0001:0000aea0       ?dtMathFloorf@@YAMM@Z      1000bea0 f i DetourNavMeshBuilder.obj
 0001:0000aed0       ?dtSwapByte@@YAXPAE0@Z     1000bed0 f i DetourNavMeshBuilder.obj
 0001:0000af10       ?dtSwapEndian@@YAXPAG@Z    1000bf10 f i DetourNavMeshBuilder.obj
 0001:0000af50       ?dtSwapEndian@@YAXPAH@Z    1000bf50 f i DetourNavMeshBuilder.obj
 0001:0000af50       ?dtSwapEndian@@YAXPAI@Z    1000bf50 f i DetourNavMeshBuilder.obj
 0001:0000af50       ?dtSwapEndian@@YAXPAM@Z    1000bf50 f i DetourNavMeshBuilder.obj
 0001:0000afb0       ?longestAxis@@YAHGGG@Z     1000bfb0 f i DetourNavMeshBuilder.obj
 0001:0000b020       ?setType@dtPoly@@QAEXE@Z   1000c020 f i DetourNavMeshBuilder.obj
 0001:0000b070       _ceilf                     1000c070 f i DetourNavMeshBuilder.obj
 0001:0000b0c0       ??0dtQueryFilter@@QAE@XZ   1000c0c0 f   DetourNavMeshQuery.obj
 0001:0000b140       ??1dtPolyQuery@@UAE@XZ     1000c140 f   DetourNavMeshQuery.obj
 0001:0000b170       ??0dtNavMeshQuery@@QAE@XZ  1000c170 f   DetourNavMeshQuery.obj
 0001:0000b1e0       ??1dtNavMeshQuery@@QAE@XZ  1000c1e0 f   DetourNavMeshQuery.obj
 0001:0000b2d0       ?init@dtNavMeshQuery@@QAEIPBVdtNavMesh@@H@Z 1000c2d0 f   DetourNavMeshQuery.obj
 0001:0000b4e0       ?findPath@dtNavMeshQuery@@QBEI_K0PBM1PBVdtQueryFilter@@PA_KPAHH@Z 1000c4e0 f   DetourNavMeshQuery.obj
 0001:0000bf30       ?findStraightPath@dtNavMeshQuery@@QBEIPBM0PB_KHPAMPAEPA_KPAHHH@Z 1000cf30 f   DetourNavMeshQuery.obj
 0001:0000c9c0       ?initSlicedFindPath@dtNavMeshQuery@@QAEI_K0PBM1PBVdtQueryFilter@@I@Z 1000d9c0 f   DetourNavMeshQuery.obj
 0001:0000cd30       ?updateSlicedFindPath@dtNavMeshQuery@@QAEIHPAH@Z 1000dd30 f   DetourNavMeshQuery.obj
 0001:0000d880       ?finalizeSlicedFindPath@dtNavMeshQuery@@QAEIPA_KPAHH@Z 1000e880 f   DetourNavMeshQuery.obj
 0001:0000dc90       ?finalizeSlicedFindPathPartial@dtNavMeshQuery@@QAEIPB_KHPA_KPAHH@Z 1000ec90 f   DetourNavMeshQuery.obj
 0001:0000e100       ?findPolysAroundCircle@dtNavMeshQuery@@QBEI_KPBMMPBVdtQueryFilter@@PA_K3PAMPAHH@Z 1000f100 f   DetourNavMeshQuery.obj
 0001:0000e950       ?findPolysAroundShape@dtNavMeshQuery@@QBEI_KPBMHPBVdtQueryFilter@@PA_K3PAMPAHH@Z 1000f950 f   DetourNavMeshQuery.obj
 0001:0000f2d0       ?getPathFromDijkstraSearch@dtNavMeshQuery@@QBEI_KPA_KPAHH@Z 100102d0 f   DetourNavMeshQuery.obj
 0001:0000f3f0       ?findNearestPoly@dtNavMeshQuery@@QBEIPBM0PBVdtQueryFilter@@PA_KPAM@Z 100103f0 f   DetourNavMeshQuery.obj
 0001:0000f440       ?findNearestPoly@dtNavMeshQuery@@QBEIPBM0PBVdtQueryFilter@@PA_KPAMPA_N@Z 10010440 f   DetourNavMeshQuery.obj
 0001:0000f600       ?queryPolygons@dtNavMeshQuery@@QBEIPBM0PBVdtQueryFilter@@PA_KPAHH@Z 10010600 f   DetourNavMeshQuery.obj
 0001:0000f770       ?queryPolygons@dtNavMeshQuery@@QBEIPBM0PBVdtQueryFilter@@PAVdtPolyQuery@@@Z 10010770 f   DetourNavMeshQuery.obj
 0001:0000fa40       ?findLocalNeighbourhood@dtNavMeshQuery@@QBEI_KPBMMPBVdtQueryFilter@@PA_K3PAHH@Z 10010a40 f   DetourNavMeshQuery.obj
 0001:00010440       ?moveAlongSurface@dtNavMeshQuery@@QBEI_KPBM1PBVdtQueryFilter@@PAMPA_KPAHH@Z 10011440 f   DetourNavMeshQuery.obj
 0001:00010fe0       ?raycast@dtNavMeshQuery@@QBEI_KPBM1PBVdtQueryFilter@@PAM3PA_KPAHH@Z 10011fe0 f   DetourNavMeshQuery.obj
 0001:000110c0       ?raycast@dtNavMeshQuery@@QBEI_KPBM1PBVdtQueryFilter@@IPAUdtRaycastHit@@0@Z 100120c0 f   DetourNavMeshQuery.obj
 0001:00012000       ?findDistanceToWall@dtNavMeshQuery@@QBEI_KPBMMPBVdtQueryFilter@@PAM33@Z 10013000 f   DetourNavMeshQuery.obj
 0001:00012bf0       ?getPolyWallSegments@dtNavMeshQuery@@QBEI_KPBVdtQueryFilter@@PAMPA_KPAHH@Z 10013bf0 f   DetourNavMeshQuery.obj
 0001:00013430       ?findRandomPoint@dtNavMeshQuery@@QBEIPBVdtQueryFilter@@P6AMXZPA_KPAM@Z 10014430 f   DetourNavMeshQuery.obj
 0001:00013900       ?findRandomPointAroundCircle@dtNavMeshQuery@@QBEI_KPBMMPBVdtQueryFilter@@P6AMXZPA_KPAM@Z 10014900 f   DetourNavMeshQuery.obj
 0001:000144a0       ?closestPointOnPoly@dtNavMeshQuery@@QBEI_KPBMPAMPA_N@Z 100154a0 f   DetourNavMeshQuery.obj
 0001:00014590       ?closestPointOnPolyBoundary@dtNavMeshQuery@@QBEI_KPBMPAM@Z 10015590 f   DetourNavMeshQuery.obj
 0001:000148c0       ?getPolyHeight@dtNavMeshQuery@@QBEI_KPBMPAM@Z 100158c0 f   DetourNavMeshQuery.obj
 0001:00014af0       ?isValidPolyRef@dtNavMeshQuery@@QBE_N_KPBVdtQueryFilter@@@Z 10015af0 f   DetourNavMeshQuery.obj
 0001:00014bf0       ?isInClosedList@dtNavMeshQuery@@QBE_N_K@Z 10015bf0 f   DetourNavMeshQuery.obj
 0001:00014cd0       ?queryPolygonsInTile@dtNavMeshQuery@@ABEXPBUdtMeshTile@@PBM1PBVdtQueryFilter@@PAVdtPolyQuery@@@Z 10015cd0 f   DetourNavMeshQuery.obj
 0001:000156e0       ?getPortalPoints@dtNavMeshQuery@@ABEI_K0PAM1AAE2@Z 100166e0 f   DetourNavMeshQuery.obj
 0001:000158b0       ?getPortalPoints@dtNavMeshQuery@@ABEI_KPBUdtPoly@@PBUdtMeshTile@@012PAM3@Z 100168b0 f   DetourNavMeshQuery.obj
 0001:00015c60       ?getEdgeMidPoint@dtNavMeshQuery@@ABEI_K0PAM@Z 10016c60 f   DetourNavMeshQuery.obj
 0001:00015df0       ?getEdgeMidPoint@dtNavMeshQuery@@ABEI_KPBUdtPoly@@PBUdtMeshTile@@012PAM@Z 10016df0 f   DetourNavMeshQuery.obj
 0001:00015f60       ?appendVertex@dtNavMeshQuery@@ABEIPBME_KPAMPAEPA_KPAHH@Z 10016f60 f   DetourNavMeshQuery.obj
 0001:00016070       ?appendPortals@dtNavMeshQuery@@ABEIHHPBMPB_KPAMPAEPA_KPAHHH@Z 10017070 f   DetourNavMeshQuery.obj
 0001:00016390       ?getPathToNode@dtNavMeshQuery@@ABEIPAUdtNode@@PA_KPAHH@Z 10017390 f   DetourNavMeshQuery.obj
 0001:00016580       ?dtAllocNavMeshQuery@@YAPAVdtNavMeshQuery@@XZ 10017580 f   DetourNavMeshQuery.obj
 0001:000165e0       ?dtFreeNavMeshQuery@@YAXPAVdtNavMeshQuery@@@Z 100175e0 f   DetourNavMeshQuery.obj
 0001:00016620       ??1dtFindNearestPolyQuery@@UAE@XZ 10017620 f   DetourNavMeshQuery.obj
 0001:00016660       ??1dtCollectPolysQuery@@UAE@XZ 10017660 f   DetourNavMeshQuery.obj
 0001:00016790       ??$dtIgnoreUnused@PAPAUdtPoly@@@@YAXABQAPAUdtPoly@@@Z 10017790 f i DetourNavMeshQuery.obj
 0001:00016790       ??$dtIgnoreUnused@PBUdtMeshTile@@@@YAXABQBUdtMeshTile@@@Z 10017790 f i DetourNavMeshQuery.obj
 0001:000167b0       ??$dtMin@H@@YAHHH@Z        100177b0 f i DetourNavMeshQuery.obj
 0001:000167f0       ??$isfinite@M@@YA_NM@Z     100177f0 f i DetourNavMeshQuery.obj
 0001:00016840       ??0dtCollectPolysQuery@@QAE@PA_KH@Z 10017840 f i DetourNavMeshQuery.obj
 0001:000168a0       ??0dtFindNearestPolyQuery@@QAE@PBVdtNavMeshQuery@@PBM@Z 100178a0 f i DetourNavMeshQuery.obj
 0001:00016930       ??0dtPolyQuery@@QAE@XZ     10017930 f i DetourNavMeshQuery.obj
 0001:00016950       ??_EdtCollectPolysQuery@@UAEPAXI@Z 10017950 f i DetourNavMeshQuery.obj
 0001:00016950       ??_GdtCollectPolysQuery@@UAEPAXI@Z 10017950 f i DetourNavMeshQuery.obj
 0001:00016990       ??_EdtFindNearestPolyQuery@@UAEPAXI@Z 10017990 f i DetourNavMeshQuery.obj
 0001:00016990       ??_GdtFindNearestPolyQuery@@UAEPAXI@Z 10017990 f i DetourNavMeshQuery.obj
 0001:000169d0       ??_GdtNavMeshQuery@@QAEPAXI@Z 100179d0 f i DetourNavMeshQuery.obj
 0001:00016a10       ??_GdtNodePool@@QAEPAXI@Z  10017a10 f i DetourNavMeshQuery.obj
 0001:00016a50       ??_GdtNodeQueue@@QAEPAXI@Z 10017a50 f i DetourNavMeshQuery.obj
 0001:00016a90       ??_EdtPolyQuery@@UAEPAXI@Z 10017a90 f i DetourNavMeshQuery.obj
 0001:00016a90       ??_GdtPolyQuery@@UAEPAXI@Z 10017a90 f i DetourNavMeshQuery.obj
 0001:00016ad0       ?__autoclassinit2@?$_List_const_iterator@V?$_List_val@U?$_List_simple_types@U?$pair@$$CBIVOffMeshConnectionSet@MMAP@@@std@@@std@@@std@@@std@@QAEXI@Z 10017ad0 f i OffMeshManager.obj
 0001:00016ad0       ?__autoclassinit2@?$_List_iterator@V?$_List_val@U?$_List_simple_types@U?$pair@$$CBIPAUMMapData@MMAP@@@std@@@std@@@std@@@std@@QAEXI@Z 10017ad0 f i MoveMap.obj
 0001:00016ad0       ?__autoclassinit2@?$_List_iterator@V?$_List_val@U?$_List_simple_types@U?$pair@$$CBIPAVdtNavMeshQuery@@@std@@@std@@@std@@@std@@QAEXI@Z 10017ad0 f i MoveMap.obj
 0001:00016ad0       ?__autoclassinit2@?$_List_unchecked_const_iterator@V?$_List_val@U?$_List_simple_types@U?$pair@$$CBIPAUMMapData@MMAP@@@std@@@std@@@std@@U_Iterator_base0@2@@std@@QAEXI@Z 10017ad0 f i MoveMap.obj
 0001:00016ad0       ?__autoclassinit2@?$_List_unchecked_const_iterator@V?$_List_val@U?$_List_simple_types@U?$pair@$$CBIPAVdtNavMeshQuery@@@std@@@std@@@std@@U_Iterator_base0@2@@std@@QAEXI@Z 10017ad0 f i MoveMap.obj
 0001:00016ad0       ?__autoclassinit2@?$_List_unchecked_const_iterator@V?$_List_val@U?$_List_simple_types@U?$pair@$$CBIVOffMeshConnectionSet@MMAP@@@std@@@std@@@std@@U_Iterator_base0@2@@std@@QAEXI@Z 10017ad0 f i OffMeshManager.obj
 0001:00016ad0       ?__autoclassinit2@?$_List_unchecked_const_iterator@V?$_List_val@U?$_List_simple_types@U?$pair@$$CBI_K@std@@@std@@@std@@U_Iterator_base0@2@@std@@QAEXI@Z 10017ad0 f i MoveMap.obj
 0001:00016ad0       ?__autoclassinit2@?$_List_unchecked_iterator@V?$_List_val@U?$_List_simple_types@U?$pair@$$CBIPAUMMapData@MMAP@@@std@@@std@@@std@@@std@@QAEXI@Z 10017ad0 f i MoveMap.obj
 0001:00016ad0       ?__autoclassinit2@?$_List_unchecked_iterator@V?$_List_val@U?$_List_simple_types@U?$pair@$$CBIPAVdtNavMeshQuery@@@std@@@std@@@std@@@std@@QAEXI@Z 10017ad0 f i MoveMap.obj
 0001:00016ad0       ?__autoclassinit2@?$_List_unchecked_iterator@V?$_List_val@U?$_List_simple_types@U?$pair@$$CBIVOffMeshConnectionSet@MMAP@@@std@@@std@@@std@@@std@@QAEXI@Z 10017ad0 f i OffMeshManager.obj
 0001:00016ad0       ?__autoclassinit2@?$_List_unchecked_iterator@V?$_List_val@U?$_List_simple_types@U?$pair@$$CBI_K@std@@@std@@@std@@@std@@QAEXI@Z 10017ad0 f i MoveMap.obj
 0001:00016ad0       ?__autoclassinit2@?$_Tree_iterator@V?$_Tree_val@U?$_Tree_simple_types@U?$pair@$$CBHPAVdtPathCorridor@@@std@@@std@@@std@@@std@@QAEXI@Z 10017ad0 f i NavBridge.obj
 0001:00016ad0       ?__autoclassinit2@?$_Tree_iterator@V?$_Tree_val@U?$_Tree_simple_types@U?$pair@$$CBUTileKey@Navigation@@_K@std@@@std@@@std@@@std@@QAEXI@Z 10017ad0 f i Navigation.obj
 0001:00016ad0       ?__autoclassinit2@?$_Tree_unchecked_const_iterator@V?$_Tree_val@U?$_Tree_simple_types@U?$pair@$$CBHPAVdtPathCorridor@@@std@@@std@@@std@@U_Iterator_base0@2@@std@@QAEXI@Z 10017ad0 f i NavBridge.obj
 0001:00016ad0       ?__autoclassinit2@?$_Tree_unchecked_const_iterator@V?$_Tree_val@U?$_Tree_simple_types@U?$pair@$$CBUTileKey@Navigation@@_K@std@@@std@@@std@@U_Iterator_base0@2@@std@@QAEXI@Z 10017ad0 f i Navigation.obj
 0001:00016ad0       ?__autoclassinit2@?$_Uninitialized_backout_al@V?$allocator@E@std@@@std@@QAEXI@Z 10017ad0 f i PathFinder.obj
 0001:00016ad0       ?__autoclassinit2@?$_Uninitialized_backout_al@V?$allocator@M@std@@@std@@QAEXI@Z 10017ad0 f i Navigation.obj
 0001:00016ad0       ?__autoclassinit2@?$_Uninitialized_backout_al@V?$allocator@UOffMeshConnectionInfo@MMAP@@@std@@@std@@QAEXI@Z 10017ad0 f i OffMeshManager.obj
 0001:00016ad0       ?__autoclassinit2@?$_Uninitialized_backout_al@V?$allocator@UXYZ@@@std@@@std@@QAEXI@Z 10017ad0 f i DllMain.obj
 0001:00016ad0       ?__autoclassinit2@?$_Uninitialized_backout_al@V?$allocator@VVector3@G3D@@@std@@@std@@QAEXI@Z 10017ad0 f i Navigation.obj
 0001:00016ad0       ?__autoclassinit2@?$_Uninitialized_backout_al@V?$allocator@W4StraightPathFlags@@@std@@@std@@QAEXI@Z 10017ad0 f i PathFinder.obj
 0001:00016ad0       ?__autoclassinit2@?$_Uninitialized_backout_al@V?$allocator@_K@std@@@std@@QAEXI@Z 10017ad0 f i DllMain.obj
 0001:00016ad0       ?__autoclassinit2@?$_Vector_iterator@V?$_Vector_val@U?$_Simple_types@VVector3@G3D@@@std@@@std@@@std@@QAEXI@Z 10017ad0 f i PathFinder.obj
 0001:00016ad0       ?__autoclassinit2@?$_Vector_iterator@V?$_Vector_val@U?$_Simple_types@_K@std@@@std@@@std@@QAEXI@Z 10017ad0 f i PathFinder.obj
 0001:00016ad0       ?__autoclassinit2@?$basic_ifstream@DU?$char_traits@D@std@@@std@@QAEXI@Z 10017ad0 f i OffMeshManager.obj
 0001:00016ad0       ?__autoclassinit2@?$basic_ofstream@DU?$char_traits@D@std@@@std@@QAEXI@Z 10017ad0 f i PathFinder.obj
 0001:00016ad0       ?__autoclassinit2@?$basic_ostringstream@DU?$char_traits@D@std@@V?$allocator@D@2@@std@@QAEXI@Z 10017ad0 f i MoveMap.obj
 0001:00016ad0       ?__autoclassinit2@?$basic_string_view@DU?$char_traits@D@std@@@std@@QAEXI@Z 10017ad0 f i Navigation.obj
 0001:00016ad0       ?__autoclassinit2@?$basic_string_view@_WU?$char_traits@_W@std@@@std@@QAEXI@Z 10017ad0 f i Navigation.obj
 0001:00016ad0       ?__autoclassinit2@?$map@HPAVdtPathCorridor@@U?$less@H@std@@V?$allocator@U?$pair@$$CBHPAVdtPathCorridor@@@std@@@3@@std@@QAEXI@Z 10017ad0 f i NavBridge.obj
 0001:00016ad0       ?__autoclassinit2@?$shared_ptr@U_Dir_enum_impl@filesystem@std@@@std@@QAEXI@Z 10017ad0 f i Navigation.obj
 0001:00016ad0       ?__autoclassinit2@?$unique_ptr@V_Facet_base@std@@U?$default_delete@V_Facet_base@std@@@2@@std@@QAEXI@Z 10017ad0 f i OffMeshManager.obj
 0001:00016ad0       ?__autoclassinit2@?$vector@EV?$allocator@E@std@@@std@@QAEXI@Z 10017ad0 f i PathFinder.obj
 0001:00016ad0       ?__autoclassinit2@?$vector@MV?$allocator@M@std@@@std@@QAEXI@Z 10017ad0 f i Navigation.obj
 0001:00016ad0       ?__autoclassinit2@?$vector@UXYZ@@V?$allocator@UXYZ@@@std@@@std@@QAEXI@Z 10017ad0 f i DllMain.obj
 0001:00016ad0       ?__autoclassinit2@?$vector@VVector3@G3D@@V?$allocator@VVector3@G3D@@@std@@@std@@QAEXI@Z 10017ad0 f i Navigation.obj
 0001:00016ad0       ?__autoclassinit2@?$vector@_KV?$allocator@_K@std@@@std@@QAEXI@Z 10017ad0 f i DllMain.obj
 0001:00016ad0       ?__autoclassinit2@MMapManager@MMAP@@QAEXI@Z 10017ad0 f i MoveMap.obj
 0001:00016ad0       ?__autoclassinit2@Navigation@@QAEXI@Z 10017ad0 f i Navigation.obj
 0001:00016ad0       ?__autoclassinit2@OffMeshManager@MMAP@@QAEXI@Z 10017ad0 f i OffMeshManager.obj
 0001:00016ad0       ?__autoclassinit2@PathFinder@@QAEXI@Z 10017ad0 f i Navigation.obj
 0001:00016ad0       ?__autoclassinit2@directory_iterator@filesystem@std@@QAEXI@Z 10017ad0 f i Navigation.obj
 0001:00016ad0       ?__autoclassinit2@dtCollectPolysQuery@@QAEXI@Z 10017ad0 f i DetourNavMeshQuery.obj
 0001:00016ad0       ?__autoclassinit2@dtFindNearestPolyQuery@@QAEXI@Z 10017ad0 f i DetourNavMeshQuery.obj
 0001:00016ad0       ?__autoclassinit2@dtPathCorridor@@QAEXI@Z 10017ad0 f i NavBridge.obj
 0001:00016ad0       ?__autoclassinit2@error_code@std@@QAEXI@Z 10017ad0 f i Navigation.obj
 0001:00016b00       ?clear@dtNodeQueue@@QAEXXZ 10017b00 f i DetourNavMeshQuery.obj
 0001:00016b30       ?dtMathIsfinite@@YA_NM@Z   10017b30 f i DetourNavMeshQuery.obj
 0001:00016b60       ?dtStatusInProgress@@YA_NI@Z 10017b60 f i DetourNavMeshQuery.obj
 0001:00016bb0       ?dtVdist@@YAMPBM0@Z        10017bb0 f i DetourNavMeshQuery.obj
 0001:00016c90       ?dtVdistSqr@@YAMPBM0@Z     10017c90 f i DetourNavMeshQuery.obj
 0001:00016d60       ?dtVequal@@YA_NPBM0@Z      10017d60 f i DetourNavMeshQuery.obj
 0001:00016e60       ?dtVisfinite2D@@YA_NPBM@Z  10017e60 f i DetourNavMeshQuery.obj
 0001:00016ef0       ?dtVisfinite@@YA_NPBM@Z    10017ef0 f i DetourNavMeshQuery.obj
 0001:00016fb0       ?dtVmad@@YAXPAMPBM1M@Z     10017fb0 f i DetourNavMeshQuery.obj
 0001:00017070       ?dtVnormalize@@YAXPAM@Z    10018070 f i DetourNavMeshQuery.obj
 0001:000171c0       ?dtVscale@@YAXPAMPBMM@Z    100181c0 f i DetourNavMeshQuery.obj
 0001:00017250       ?dtVset@@YAXPAMMMM@Z       10018250 f i DetourNavMeshQuery.obj
 0001:000172b0       ?empty@dtNodeQueue@@QBE_NXZ 100182b0 f i DetourNavMeshQuery.obj
 0001:00017300       ?fpclassify@@YAHM@Z        10018300 f i DetourNavMeshQuery.obj
 0001:00017330       ?getCapacity@dtNodeQueue@@QBEHXZ 10018330 f i DetourNavMeshQuery.obj
 0001:00017360       ?getCost@dtQueryFilter@@QBEMPBM0_KPBUdtMeshTile@@PBUdtPoly@@123123@Z 10018360 f i DetourNavMeshQuery.obj
 0001:000174c0       ?getMaxNodes@dtNodePool@@QBEHXZ 100184c0 f i DetourNavMeshQuery.obj
 0001:000174f0       ?getNodeAtIdx@dtNodePool@@QAEPAUdtNode@@I@Z 100184f0 f i DetourNavMeshQuery.obj
 0001:00017540       ?getNodeIdx@dtNodePool@@QBEIPBUdtNode@@@Z 10018540 f i DetourNavMeshQuery.obj
 0001:00017590       ?isOverPoly@dtFindNearestPolyQuery@@QBE_NXZ 10018590 f i DetourNavMeshQuery.obj
 0001:000175c0       ?modify@dtNodeQueue@@QAEXPAUdtNode@@@Z 100185c0 f i DetourNavMeshQuery.obj
 0001:00017640       ?nearestPoint@dtFindNearestPolyQuery@@QBEPBMXZ 10018640 f i DetourNavMeshQuery.obj
 0001:00017670       ?nearestRef@dtFindNearestPolyQuery@@QBE_KXZ 10018670 f i DetourNavMeshQuery.obj
 0001:000176a0       ?numCollected@dtCollectPolysQuery@@QBEHXZ 100186a0 f i DetourNavMeshQuery.obj
 0001:000176d0       ?overflowed@dtCollectPolysQuery@@QBE_NXZ 100186d0 f i DetourNavMeshQuery.obj
 0001:00017700       ?passFilter@dtQueryFilter@@QBE_N_KPBUdtMeshTile@@PBUdtPoly@@@Z 10018700 f i DetourNavMeshQuery.obj
 0001:00017770       ?pop@dtNodeQueue@@QAEPAUdtNode@@XZ 10018770 f i DetourNavMeshQuery.obj
 0001:000177e0       ?process@dtCollectPolysQuery@@UAEXPBUdtMeshTile@@PAPAUdtPoly@@PA_KH@Z 100187e0 f i DetourNavMeshQuery.obj
 0001:00017890       ?process@dtFindNearestPolyQuery@@UAEXPBUdtMeshTile@@PAPAUdtPoly@@PA_KH@Z 10018890 f i DetourNavMeshQuery.obj
 0001:00017a80       ?push@dtNodeQueue@@QAEXPAUdtNode@@@Z 10018a80 f i DetourNavMeshQuery.obj
 0001:00017ad0       ??0dtNodePool@@QAE@HH@Z    10018ad0 f   DetourNode.obj
 0001:00017d20       ??1dtNodePool@@QAE@XZ      10018d20 f   DetourNode.obj
 0001:00017db0       ?clear@dtNodePool@@QAEXXZ  10018db0 f   DetourNode.obj
 0001:00017e00       ?getNode@dtNodePool@@QAEPAUdtNode@@_KE@Z 10018e00 f   DetourNode.obj
 0001:00017fe0       ?findNode@dtNodePool@@QAEPAUdtNode@@_KE@Z 10018fe0 f   DetourNode.obj
 0001:000180e0       ?findNodes@dtNodePool@@QAEI_KPAPAUdtNode@@H@Z 100190e0 f   DetourNode.obj
 0001:000181e0       ??0dtNodeQueue@@QAE@H@Z    100191e0 f   DetourNode.obj
 0001:000182d0       ??1dtNodeQueue@@QAE@XZ     100192d0 f   DetourNode.obj
 0001:00018340       ?bubbleUp@dtNodeQueue@@AAEXHPAUdtNode@@@Z 10019340 f   DetourNode.obj
 0001:000183e0       ?trickleDown@dtNodeQueue@@AAEXHPAUdtNode@@@Z 100193e0 f   DetourNode.obj
 0001:000184a0       ?dtHashRef@@YAI_K@Z        100194a0 f i DetourNode.obj
 0001:000185a0       _CalculatePath             100195a0 f   DllMain.obj
 0001:00018610       _FreePathArr               10019610 f   DllMain.obj
 0001:00018650       _FindNearestPoly           10019650 f   DllMain.obj
 0001:000186b0       _FindPolysAroundCircle     100196b0 f   DllMain.obj
 0001:00018710       _FindDistanceToWall        10019710 f   DllMain.obj
 0001:00018770       _IsPointOnNavMesh          10019770 f   DllMain.obj
 0001:000187d0       _FindRandomPointAroundCircle 100197d0 f   DllMain.obj
 0001:00018860       _HasLineOfSight            10019860 f   DllMain.obj
 0001:000188d0       _FindNearestPolyRef        100198d0 f   DllMain.obj
 0001:000189d0       _GetPolyHeight             100199d0 f   DllMain.obj
 0001:00018a50       _ClosestPointOnPoly        10019a50 f   DllMain.obj
 0001:00018ad0       _ClosestPointOnPolyBoundary 10019ad0 f   DllMain.obj
 0001:00018b50       _QueryPolygons             10019b50 f   DllMain.obj
 0001:00018cd0       _FindLocalNeighbourhood    10019cd0 f   DllMain.obj
 0001:00018f00       _GetPolyWallSegments       10019f00 f   DllMain.obj
 0001:000190d0       _InitSlicedFindPath        1001a0d0 f   DllMain.obj
 0001:00019140       _UpdateSlicedFindPath      1001a140 f   DllMain.obj
 0001:00019180       _UpdateSlicedFindPathMs    1001a180 f   DllMain.obj
 0001:000191c0       _FinalizeSlicedFindPath    1001a1c0 f   DllMain.obj
 0001:00019200       _SetIncludeFlags           1001a200 f   DllMain.obj
 0001:00019240       _SetExcludeFlags           1001a240 f   DllMain.obj
 0001:00019280       _SetAreaCost               1001a280 f   DllMain.obj
 0001:000192d0       _GetAreaCost               1001a2d0 f   DllMain.obj
 0001:00019310       _IsTileLoaded              1001a310 f   DllMain.obj
 0001:00019350       _GetLoadedTilesCount       1001a350 f   DllMain.obj
 0001:00019390       _UpdatePathFollowing       1001a390 f   DllMain.obj
 0001:000193f0       _GetNavStats               1001a3f0 f   DllMain.obj
 0001:00019450       _ResetNavStats             1001a450 f   DllMain.obj
 0001:00019480       _SetPathRandomization      1001a480 f   DllMain.obj
 0001:000194e0       _SetTileStreamingEnabled   1001a4e0 f   DllMain.obj
 0001:00019520       _NavStatus_FailureFlag     1001a520 f   DllMain.obj
 0001:00019540       _NavStatus_SuccessFlag     1001a540 f   DllMain.obj
 0001:00019560       _NavStatus_InProgressFlag  1001a560 f   DllMain.obj
 0001:00019580       _NavStatus_WrongMagicFlag  1001a580 f   DllMain.obj
 0001:000195a0       _NavStatus_WrongVersionFlag 1001a5a0 f   DllMain.obj
 0001:000195c0       _NavStatus_OutOfMemoryFlag 1001a5c0 f   DllMain.obj
 0001:000195e0       _NavStatus_InvalidParamFlag 1001a5e0 f   DllMain.obj
 0001:00019600       _NavStatus_BufferTooSmallFlag 1001a600 f   DllMain.obj
 0001:00019620       _NavStatus_OutOfNodesFlag  1001a620 f   DllMain.obj
 0001:00019640       _NavStatus_PartialResultFlag 1001a640 f   DllMain.obj
 0001:00019660       _NavStatus_IsFailure       1001a660 f   DllMain.obj
 0001:00019690       _NavStatus_IsSuccess       1001a690 f   DllMain.obj
 0001:000196c0       _NavStatus_IsInProgress    1001a6c0 f   DllMain.obj
 0001:000196f0       _NavStatus_HasFlag         1001a6f0 f   DllMain.obj
 0001:00019720       _NavStatus_AddFlag         1001a720 f   DllMain.obj
 0001:00019750       _DllMain@12                1001a750 f   DllMain.obj
 0001:000197c0       ??$?0ABV?$allocator@UXYZ@@@std@@$$V@?$_Compressed_pair@V?$allocator@UXYZ@@@std@@V?$_Vector_val@U?$_Simple_types@UXYZ@@@std@@@2@$00@std@@QAE@U_One_then_variadic_args_t@1@ABV?$allocator@UXYZ@@@1@@Z 1001a7c0 f i DllMain.obj
 0001:000197c0       ??$?0ABV?$allocator@_K@std@@$$V@?$_Compressed_pair@V?$allocator@_K@std@@V?$_Vector_val@U?$_Simple_types@_K@std@@@2@$00@std@@QAE@U_One_then_variadic_args_t@1@ABV?$allocator@_K@1@@Z 1001a7c0 f i DllMain.obj
 0001:00019800       ??$?0UXYZ@@@?$allocator@U_Container_proxy@std@@@std@@QAE@ABV?$allocator@UXYZ@@@1@@Z 1001a800 f i DllMain.obj
 0001:00019800       ??$?0_K@?$allocator@U_Container_proxy@std@@@std@@QAE@ABV?$allocator@_K@1@@Z 1001a800 f i DllMain.obj
 0001:00019830       ??$?0V?$allocator@_K@std@@$0A@@?$vector@_KV?$allocator@_K@std@@@std@@QAE@IAB_KABV?$allocator@_K@1@@Z 1001a830 f i DllMain.obj
 0001:000198a0       ??$_Allocate@$07U_Default_allocate_traits@std@@@std@@YAPAXI@Z 1001a8a0 f i DllMain.obj
 0001:00019900       ??$_Allocate_at_least_helper@V?$allocator@UXYZ@@@std@@@std@@YAPAUXYZ@@AAV?$allocator@UXYZ@@@0@AAI@Z 1001a900 f i DllMain.obj
 0001:00019930       ??$_Allocate_at_least_helper@V?$allocator@_K@std@@@std@@YAPA_KAAV?$allocator@_K@0@AAI@Z 1001a930 f i DllMain.obj
 0001:00019960       ??$_Allocate_manually_vector_aligned@U_Default_allocate_traits@std@@@std@@YAPAXI@Z 1001a960 f i DllMain.obj
 0001:00019a40       ??$_Construct_in_place@U_Container_proxy@std@@PAU_Container_base12@2@@std@@YAXAAU_Container_proxy@0@$$QAPAU_Container_base12@0@@Z 1001aa40 f i DllMain.obj
 0001:00019ac0       ??$_Construct_n@$$V@?$vector@UXYZ@@V?$allocator@UXYZ@@@std@@@std@@AAEXI@Z 1001aac0 f i DllMain.obj
 0001:00019bf0       ??$_Construct_n@AB_K@?$vector@_KV?$allocator@_K@std@@@std@@AAEXIAB_K@Z 1001abf0 f i DllMain.obj
 0001:00019d20       ??$_Deallocate@$07@std@@YAXPAXI@Z 1001ad20 f i DllMain.obj
 0001:00019d80       ??$_Deallocate_plain@V?$allocator@U_Container_proxy@std@@@std@@@std@@YAXAAV?$allocator@U_Container_proxy@std@@@0@QAU_Container_proxy@0@@Z 1001ad80 f i DllMain.obj
 0001:00019db0       ??$_Delete_plain_internal@V?$allocator@U_Container_proxy@std@@@std@@@std@@YAXAAV?$allocator@U_Container_proxy@std@@@0@QAU_Container_proxy@0@@Z 1001adb0 f i DllMain.obj
 0001:00019de0       ??$_Destroy_range@V?$allocator@UXYZ@@@std@@@std@@YAXPAUXYZ@@QAU1@AAV?$allocator@UXYZ@@@0@@Z 1001ade0 f i DllMain.obj
 0001:00019de0       ??$_Destroy_range@V?$allocator@_K@std@@@std@@YAXPA_KQA_KAAV?$allocator@_K@0@@Z 1001ade0 f i DllMain.obj
 0001:00019e00       ??$_Emplace_back@$$V@?$_Uninitialized_backout_al@V?$allocator@UXYZ@@@std@@@std@@QAEXXZ 1001ae00 f i DllMain.obj
 0001:00019e70       ??$_Emplace_back@AB_K@?$_Uninitialized_backout_al@V?$allocator@_K@std@@@std@@QAEXAB_K@Z 1001ae70 f i DllMain.obj
 0001:00019ef0       ??$_Fill_zero_memset@PA_K@std@@YAXPA_KI@Z 1001aef0 f i DllMain.obj
 0001:00019f30       ??$_Get_size_of_n@$07@std@@YAII@Z 1001af30 f i DllMain.obj
 0001:00019f80       ??$_Get_size_of_n@$0M@@std@@YAII@Z 1001af80 f i DllMain.obj
 0001:00019fd0       ??$_Is_all_bits_zero@_K@std@@YA_NAB_K@Z 1001afd0 f i DllMain.obj
 0001:0001a080       ??$_Max_limit@H@std@@YAHXZ 1001b080 f i DllMain.obj
 0001:0001a0b0       ??$_To_address@PA_K@std@@YA?A_PABQA_K@Z 1001b0b0 f i DllMain.obj
 0001:0001a0e0       ??$_Unfancy@UXYZ@@@std@@YAPAUXYZ@@PAU1@@Z 1001b0e0 f i DllMain.obj
 0001:0001a0e0       ??$_Unfancy@U_Container_proxy@std@@@std@@YAPAU_Container_proxy@0@PAU10@@Z 1001b0e0 f i DllMain.obj
 0001:0001a0e0       ??$_Unfancy@_K@std@@YAPA_KPA_K@Z 1001b0e0 f i DllMain.obj
 0001:0001a0e0       ??$_Unfancy_maybe_null@UXYZ@@@std@@YAPAUXYZ@@PAU1@@Z 1001b0e0 f i DllMain.obj
 0001:0001a0e0       ??$_Unfancy_maybe_null@_K@std@@YAPA_KPA_K@Z 1001b0e0 f i DllMain.obj
 0001:0001a100       ??$_Uninitialized_fill_n@V?$allocator@_K@std@@@std@@YAPA_KPA_KIAB_KAAV?$allocator@_K@0@@Z 1001b100 f i DllMain.obj
 0001:0001a220       ??$_Uninitialized_value_construct_n@V?$allocator@UXYZ@@@std@@@std@@YAPAUXYZ@@PAU1@IAAV?$allocator@UXYZ@@@0@@Z 1001b220 f i DllMain.obj
 0001:0001a2f0       ??$addressof@U_Container_base12@std@@@std@@YAPAU_Container_base12@0@AAU10@@Z 1001b2f0 f i DllMain.obj
 0001:0001a2f0       ??$addressof@U_Container_proxy@std@@@std@@YAPAU_Container_proxy@0@AAU10@@Z 1001b2f0 f i DllMain.obj
 0001:0001a310       ??$construct@UXYZ@@$$V@?$_Default_allocator_traits@V?$allocator@UXYZ@@@std@@@std@@SAXAAV?$allocator@UXYZ@@@1@QAUXYZ@@@Z 1001b310 f i DllMain.obj
 0001:0001a340       ??$construct@_KAB_K@?$_Default_allocator_traits@V?$allocator@_K@std@@@std@@SAXAAV?$allocator@_K@1@QA_KAB_K@Z 1001b340 f i DllMain.obj
 0001:0001a370       ??$construct_at@UXYZ@@$$V@std@@YAPAUXYZ@@QAU1@@Z 1001b370 f i DllMain.obj
 0001:0001a3b0       ??$construct_at@U_Container_proxy@std@@PAU_Container_base12@2@@std@@YAPAU_Container_proxy@0@QAU10@$$QAPAU_Container_base12@0@@Z 1001b3b0 f i DllMain.obj
 0001:0001a400       ??$construct_at@_KAB_K@std@@YAPA_KQA_KAB_K@Z 1001b400 f i DllMain.obj
 0001:0001a450       ??$exchange@PAU_Container_proxy@std@@$$T@std@@YAPAU_Container_proxy@0@AAPAU10@$$QA$$T@Z 1001b450 f i DllMain.obj
 0001:0001a450       ??$exchange@PAU_Iterator_base12@std@@$$T@std@@YAPAU_Iterator_base12@0@AAPAU10@$$QA$$T@Z 1001b450 f i DllMain.obj
 0001:0001a490       ??$min@I@std@@YAABIABI0@Z  1001b490 f i DllMain.obj
 0001:0001a4e0       ??$to_address@_K@std@@YAPA_KQA_K@Z 1001b4e0 f i DllMain.obj
 0001:0001a500       ??0?$_Container_proxy_ptr12@V?$allocator@U_Container_proxy@std@@@std@@@std@@QAE@AAV?$allocator@U_Container_proxy@std@@@1@AAU_Container_base12@1@@Z 1001b500 f i DllMain.obj
 0001:0001a590       ??0?$_Uninitialized_backout_al@V?$allocator@UXYZ@@@std@@@std@@QAE@PAUXYZ@@AAV?$allocator@UXYZ@@@1@@Z 1001b590 f i DllMain.obj
 0001:0001a590       ??0?$_Uninitialized_backout_al@V?$allocator@_K@std@@@std@@QAE@PA_KAAV?$allocator@_K@1@@Z 1001b590 f i DllMain.obj
 0001:0001a5e0       ??0?$_Vector_val@U?$_Simple_types@UXYZ@@@std@@@std@@QAE@XZ 1001b5e0 f i DllMain.obj
 0001:0001a5e0       ??0?$_Vector_val@U?$_Simple_types@_K@std@@@std@@QAE@XZ 1001b5e0 f i DllMain.obj
 0001:0001a630       ??0?$allocator@UXYZ@@@std@@QAE@XZ 1001b630 f i DllMain.obj
 0001:0001a630       ??0?$allocator@_K@std@@QAE@XZ 1001b630 f i DllMain.obj
 0001:0001a660       ??0?$vector@UXYZ@@V?$allocator@UXYZ@@@std@@@std@@QAE@IABV?$allocator@UXYZ@@@1@@Z 1001b660 f i DllMain.obj
 0001:0001a6d0       ??0NavStats@@QAE@XZ        1001b6d0 f i DllMain.obj
 0001:0001a770       ??0XYZ@@QAE@XZ             1001b770 f i DllMain.obj
 0001:0001a7c0       ??0_Basic_container_proxy_ptr12@std@@IAE@XZ 1001b7c0 f i DllMain.obj
 0001:0001a7c0       ??0_Container_base12@std@@QAE@XZ 1001b7c0 f i DllMain.obj
 0001:0001a800       ??0_Container_proxy@std@@QAE@PAU_Container_base12@1@@Z 1001b800 f i DllMain.obj
 0001:0001a840       ??0bad_alloc@std@@AAE@QBD@Z 1001b840 f i DllMain.obj
 0001:0001a890       ??0bad_alloc@std@@QAE@ABV01@@Z 1001b890 f i DllMain.obj
 0001:0001a8d0       ??0bad_array_new_length@std@@QAE@ABV01@@Z 1001b8d0 f i DllMain.obj
 0001:0001a910       ??0bad_array_new_length@std@@QAE@XZ 1001b910 f i DllMain.obj
 0001:0001a950       ??0exception@std@@QAE@ABV01@@Z 1001b950 f i DllMain.obj
 0001:0001a9b0       ??0exception@std@@QAE@QBDH@Z 1001b9b0 f i DllMain.obj
 0001:0001aa00       ??1?$_Container_proxy_ptr12@V?$allocator@U_Container_proxy@std@@@std@@@std@@QAE@XZ 1001ba00 f i DllMain.obj
 0001:0001aa50       ??1?$_Tidy_guard@V?$vector@UXYZ@@V?$allocator@UXYZ@@@std@@@std@@@std@@QAE@XZ 1001ba50 f i DllMain.obj
 0001:0001aa90       ??1?$_Tidy_guard@V?$vector@_KV?$allocator@_K@std@@@std@@@std@@QAE@XZ 1001ba90 f i DllMain.obj
 0001:0001aad0       ??1?$_Uninitialized_backout_al@V?$allocator@UXYZ@@@std@@@std@@QAE@XZ 1001bad0 f i DllMain.obj
 0001:0001aad0       ??1?$_Uninitialized_backout_al@V?$allocator@_K@std@@@std@@QAE@XZ 1001bad0 f i DllMain.obj
 0001:0001ab20       ??1?$vector@UXYZ@@V?$allocator@UXYZ@@@std@@@std@@QAE@XZ 1001bb20 f i DllMain.obj
 0001:0001abe0       ??1?$vector@_KV?$allocator@_K@std@@@std@@QAE@XZ 1001bbe0 f i DllMain.obj
 0001:0001aca0       ??1bad_alloc@std@@UAE@XZ   1001bca0 f i DllMain.obj
 0001:0001aca0       ??1bad_cast@std@@UAE@XZ    1001bca0 f i OffMeshManager.obj
 0001:0001aca0       ??1runtime_error@std@@UAE@XZ 1001bca0 f i Navigation.obj
 0001:0001acd0       ??1_System_error@std@@UAE@XZ 1001bcd0 f i Navigation.obj
 0001:0001acd0       ??1bad_array_new_length@std@@UAE@XZ 1001bcd0 f i DllMain.obj
 0001:0001ad00       ??1exception@std@@UAE@XZ   1001bd00 f i DllMain.obj
 0001:0001ad40       ??A?$vector@UXYZ@@V?$allocator@UXYZ@@@std@@@std@@QAEAAUXYZ@@I@Z 1001bd40 f i DllMain.obj
 0001:0001adf0       ??A?$vector@_KV?$allocator@_K@std@@@std@@QAEAA_KI@Z 1001bdf0 f i DllMain.obj
 0001:0001aea0       ??_Ebad_alloc@std@@UAEPAXI@Z 1001bea0 f i DllMain.obj
 0001:0001aea0       ??_Ebad_cast@std@@UAEPAXI@Z 1001bea0 f i OffMeshManager.obj
 0001:0001aea0       ??_Eruntime_error@std@@UAEPAXI@Z 1001bea0 f i Navigation.obj
 0001:0001aea0       ??_Gbad_alloc@std@@UAEPAXI@Z 1001bea0 f i DllMain.obj
 0001:0001aea0       ??_Gbad_cast@std@@UAEPAXI@Z 1001bea0 f i OffMeshManager.obj
 0001:0001aea0       ??_Gruntime_error@std@@UAEPAXI@Z 1001bea0 f i Navigation.obj
 0001:0001aee0       ??_Ebad_array_new_length@std@@UAEPAXI@Z 1001bee0 f i DllMain.obj
 0001:0001aee0       ??_Gbad_array_new_length@std@@UAEPAXI@Z 1001bee0 f i DllMain.obj
 0001:0001af20       ??_Eexception@std@@UAEPAXI@Z 1001bf20 f i DllMain.obj
 0001:0001af20       ??_Gexception@std@@UAEPAXI@Z 1001bf20 f i DllMain.obj
 0001:0001af60       ?EnableTileStreaming@Navigation@@QAEX_N@Z 1001bf60 f i DllMain.obj
 0001:0001afa0       ?GetNavStats@Navigation@@QBE?AUNavStats@@XZ 1001bfa0 f i DllMain.obj
 0001:0001aff0       ?NavStatusFailed@@YA_NI@Z  1001bff0 f i DllMain.obj
 0001:0001b040       ?NavStatusHasFlag@@YA_NIW4NavStatusFlag@@@Z 1001c040 f i DllMain.obj
 0001:0001b080       ?NavStatusInProgress@@YA_NI@Z 1001c080 f i DllMain.obj
 0001:0001b0d0       ?NavStatusSucceeded@@YA_NI@Z 1001c0d0 f i DllMain.obj
 0001:0001b120       ?ResetNavStats@Navigation@@QAEXXZ 1001c120 f i DllMain.obj
 0001:0001b180       ?StatusBits@@YAIW4StatusDetailFlag@@@Z 1001c180 f i DllMain.obj
 0001:0001b1a0       ?_Adjust_manually_vector_aligned@std@@YAXAAPAXAAI@Z 1001c1a0 f i DllMain.obj
 0001:0001b2d0       ?_Allocate@_Default_allocate_traits@std@@SAPAXI@Z 1001c2d0 f i DllMain.obj
 0001:0001b300       ?_Buy_nonzero@?$vector@UXYZ@@V?$allocator@UXYZ@@@std@@@std@@AAEXI@Z 1001c300 f i DllMain.obj
 0001:0001b350       ?_Buy_nonzero@?$vector@_KV?$allocator@_K@std@@@std@@AAEXI@Z 1001c350 f i DllMain.obj
 0001:0001b3a0       ?_Buy_raw@?$vector@UXYZ@@V?$allocator@UXYZ@@@std@@@std@@AAEXI@Z 1001c3a0 f i DllMain.obj
 0001:0001b430       ?_Buy_raw@?$vector@_KV?$allocator@_K@std@@@std@@AAEXI@Z 1001c430 f i DllMain.obj
 0001:0001b4d0       ?_Get_first@?$_Compressed_pair@V?$allocator@UXYZ@@@std@@V?$_Vector_val@U?$_Simple_types@UXYZ@@@std@@@2@$00@std@@QAEAAV?$allocator@UXYZ@@@2@XZ 1001c4d0 f i DllMain.obj
 0001:0001b4d0       ?_Get_first@?$_Compressed_pair@V?$allocator@UXYZ@@@std@@V?$_Vector_val@U?$_Simple_types@UXYZ@@@std@@@2@$00@std@@QBEABV?$allocator@UXYZ@@@2@XZ 1001c4d0 f i DllMain.obj
 0001:0001b4d0       ?_Get_first@?$_Compressed_pair@V?$allocator@_K@std@@V?$_Vector_val@U?$_Simple_types@_K@std@@@2@$00@std@@QAEAAV?$allocator@_K@2@XZ 1001c4d0 f i DllMain.obj
 0001:0001b4d0       ?_Get_first@?$_Compressed_pair@V?$allocator@_K@std@@V?$_Vector_val@U?$_Simple_types@_K@std@@@2@$00@std@@QBEABV?$allocator@_K@2@XZ 1001c4d0 f i DllMain.obj
 0001:0001b500       ?_Getal@?$vector@UXYZ@@V?$allocator@UXYZ@@@std@@@std@@AAEAAV?$allocator@UXYZ@@@2@XZ 1001c500 f i DllMain.obj
 0001:0001b500       ?_Getal@?$vector@UXYZ@@V?$allocator@UXYZ@@@std@@@std@@ABEABV?$allocator@UXYZ@@@2@XZ 1001c500 f i DllMain.obj
 0001:0001b500       ?_Getal@?$vector@_KV?$allocator@_K@std@@@std@@AAEAAV?$allocator@_K@2@XZ 1001c500 f i DllMain.obj
 0001:0001b500       ?_Getal@?$vector@_KV?$allocator@_K@std@@@std@@ABEABV?$allocator@_K@2@XZ 1001c500 f i DllMain.obj
 0001:0001b530       ?_Orphan_all@_Container_base12@std@@QAEXXZ 1001c530 f i DllMain.obj
 0001:0001b580       ?_Orphan_all_locked_v3@_Container_base12@std@@AAEXXZ 1001c580 f i DllMain.obj
 0001:0001b630       ?_Orphan_all_unlocked_v3@_Container_base12@std@@AAEXXZ 1001c630 f i DllMain.obj
 0001:0001b6b0       ?_Release@?$_Uninitialized_backout_al@V?$allocator@UXYZ@@@std@@@std@@QAEPAUXYZ@@XZ 1001c6b0 f i DllMain.obj
 0001:0001b6b0       ?_Release@?$_Uninitialized_backout_al@V?$allocator@_K@std@@@std@@QAEPA_KXZ 1001c6b0 f i DllMain.obj
 0001:0001b6f0       ?_Release@_Basic_container_proxy_ptr12@std@@QAEXXZ 1001c6f0 f i DllMain.obj
 0001:0001b720       ?_Throw_bad_array_new_length@std@@YAXXZ 1001c720 f i DllMain.obj
 0001:0001b770       ?_Tidy@?$vector@UXYZ@@V?$allocator@UXYZ@@@std@@@std@@AAEXXZ 1001c770 f i DllMain.obj
 0001:0001b840       ?_Tidy@?$vector@_KV?$allocator@_K@std@@@std@@AAEXXZ 1001c840 f i DllMain.obj
 0001:0001b910       ?_Xlength@?$vector@UXYZ@@V?$allocator@UXYZ@@@std@@@std@@CAXXZ 1001c910 f i DllMain.obj
 0001:0001b910       ?_Xlength@?$vector@_KV?$allocator@_K@std@@@std@@CAXXZ 1001c910 f i DllMain.obj
 0001:0001b940       ?allocate@?$allocator@UXYZ@@@std@@QAEPAUXYZ@@I@Z 1001c940 f i DllMain.obj
 0001:0001b980       ?allocate@?$allocator@U_Container_proxy@std@@@std@@QAEPAU_Container_proxy@2@I@Z 1001c980 f i DllMain.obj
 0001:0001b980       ?allocate@?$allocator@_K@std@@QAEPA_KI@Z 1001c980 f i DllMain.obj
 0001:0001b9c0       ?data@?$vector@UXYZ@@V?$allocator@UXYZ@@@std@@@std@@QAEPAUXYZ@@XZ 1001c9c0 f i DllMain.obj
 0001:0001b9c0       ?data@?$vector@_KV?$allocator@_K@std@@@std@@QAEPA_KXZ 1001c9c0 f i DllMain.obj
 0001:0001ba00       ?deallocate@?$_Default_allocator_traits@V?$allocator@U_Container_proxy@std@@@std@@@std@@SAXAAV?$allocator@U_Container_proxy@std@@@2@QAU_Container_proxy@2@I@Z 1001ca00 f i DllMain.obj
 0001:0001ba50       ?deallocate@?$allocator@UXYZ@@@std@@QAEXQAUXYZ@@I@Z 1001ca50 f i DllMain.obj
 0001:0001baf0       ?deallocate@?$allocator@U_Container_proxy@std@@@std@@QAEXQAU_Container_proxy@2@I@Z 1001caf0 f i DllMain.obj
 0001:0001baf0       ?deallocate@?$allocator@_K@std@@QAEXQA_KI@Z 1001caf0 f i DllMain.obj
 0001:0001bb90       ?is_constant_evaluated@std@@YA_NXZ 1001cb90 f i DllMain.obj
 0001:0001bbb0       ?max_size@?$_Default_allocator_traits@V?$allocator@UXYZ@@@std@@@std@@SAIABV?$allocator@UXYZ@@@2@@Z 1001cbb0 f i DllMain.obj
 0001:0001bbd0       ?max_size@?$_Default_allocator_traits@V?$allocator@_K@std@@@std@@SAIABV?$allocator@_K@2@@Z 1001cbd0 f i DllMain.obj
 0001:0001bbf0       ?max_size@?$vector@UXYZ@@V?$allocator@UXYZ@@@std@@@std@@QBEIXZ 1001cbf0 f i DllMain.obj
 0001:0001bc60       ?max_size@?$vector@_KV?$allocator@_K@std@@@std@@QBEIXZ 1001cc60 f i DllMain.obj
 0001:0001bcd0       ?what@exception@std@@UBEPBDXZ 1001ccd0 f i DllMain.obj
 0001:0001bd20       ??1MMapManager@MMAP@@QAE@XZ 1001cd20 f   MoveMap.obj
 0001:0001be50       ?loadMap@MMapManager@MMAP@@QAE_NIHH@Z 1001ce50 f   MoveMap.obj
 0001:0001c220       ?GetNavMeshQuery@MMapManager@MMAP@@QAEPBVdtNavMeshQuery@@II@Z 1001d220 f   MoveMap.obj
 0001:0001c460       ?GetNavMesh@MMapManager@MMAP@@QAEPBVdtNavMesh@@I@Z 1001d460 f   MoveMap.obj
 0001:0001c520       ?loadMapData@MMapManager@MMAP@@AAE_NI@Z 1001d520 f   MoveMap.obj
 0001:0001c850       ?packTileID@MMapManager@MMAP@@AAEIHH@Z 1001d850 f   MoveMap.obj
 0001:0001c890       ?createOrGetMMapManager@MMapFactory@MMAP@@SAPAVMMapManager@2@XZ 1001d890 f   MoveMap.obj
 0001:0001c960       ?str_replace@MMAP@@YAXAAV?$basic_string@DU?$char_traits@D@std@@V?$allocator@D@2@@std@@ABV23@1@Z 1001d960 f   MoveMap.obj
 0001:0001c9e0       ?getMapName@MMAP@@YAXIAAV?$basic_string@DU?$char_traits@D@std@@V?$allocator@D@2@@std@@@Z 1001d9e0 f   MoveMap.obj
 0001:0001ce10       ?getTileName@MMAP@@YAXIHHAAV?$basic_string@DU?$char_traits@D@std@@V?$allocator@D@2@@std@@@Z 1001de10 f   MoveMap.obj
 0001:0001d2c0       ??$?0$$V@?$_Compressed_pair@V?$allocator@D@std@@V?$_String_val@U?$_Simple_types@D@std@@@2@$00@std@@QAE@U_Zero_then_variadic_args_t@1@@Z 1001e2c0 f i MoveMap.obj
 0001:0001d2c0       ??$?0$$V@?$_Compressed_pair@V?$allocator@_W@std@@V?$_String_val@U?$_Simple_types@_W@std@@@2@$00@std@@QAE@U_Zero_then_variadic_args_t@1@@Z 1001e2c0 f i MoveMap.obj
 0001:0001d300       ??$?0AAIAAPAUMMapData@MMAP@@$0A@@?$pair@IPAUMMapData@MMAP@@@std@@QAE@AAIAAPAUMMapData@MMAP@@@Z 1001e300 f i MoveMap.obj
 0001:0001d300       ??$?0AAIAAPAVdtNavMeshQuery@@$0A@@?$pair@IPAVdtNavMeshQuery@@@std@@QAE@AAIAAPAVdtNavMeshQuery@@@Z 1001e300 f i MoveMap.obj
 0001:0001d340       ??$?0AAIAA_K$0A@@?$pair@I_K@std@@QAE@AAIAA_K@Z 1001e340 f i MoveMap.obj
 0001:0001d390       ??$?0AAPAU?$_List_node@U?$pair@$$CBIPAUMMapData@MMAP@@@std@@PAX@std@@_N$0A@@?$pair@PAU?$_List_node@U?$pair@$$CBIPAUMMapData@MMAP@@@std@@PAX@std@@_N@std@@QAE@AAPAU?$_List_node@U?$pair@$$CBIPAUMMapData@MMAP@@@std@@PAX@1@$$QA_N@Z 1001e390 f i MoveMap.obj
 0001:0001d390       ??$?0AAPAU?$_List_node@U?$pair@$$CBIPAVdtNavMeshQuery@@@std@@PAX@std@@_N$0A@@?$pair@PAU?$_List_node@U?$pair@$$CBIPAVdtNavMeshQuery@@@std@@PAX@std@@_N@std@@QAE@AAPAU?$_List_node@U?$pair@$$CBIPAVdtNavMeshQuery@@@std@@PAX@1@$$QA_N@Z 1001e390 f i MoveMap.obj
 0001:0001d390       ??$?0PAU?$_List_node@U?$pair@$$CBIPAUMMapData@MMAP@@@std@@PAX@std@@_N$0A@@?$pair@PAU?$_List_node@U?$pair@$$CBIPAUMMapData@MMAP@@@std@@PAX@std@@_N@std@@QAE@$$QAPAU?$_List_node@U?$pair@$$CBIPAUMMapData@MMAP@@@std@@PAX@1@$$QA_N@Z 1001e390 f i MoveMap.obj
 0001:0001d390       ??$?0PAU?$_List_node@U?$pair@$$CBIPAVdtNavMeshQuery@@@std@@PAX@std@@_N$0A@@?$pair@PAU?$_List_node@U?$pair@$$CBIPAVdtNavMeshQuery@@@std@@PAX@std@@_N@std@@QAE@$$QAPAU?$_List_node@U?$pair@$$CBIPAVdtNavMeshQuery@@@std@@PAX@1@$$QA_N@Z 1001e390 f i MoveMap.obj
 0001:0001d3d0       ??$?0ABI$$Z$$V@?$pair@$$CBIPAUMMapData@MMAP@@@std@@QAE@Upiecewise_construct_t@1@V?$tuple@ABI@1@V?$tuple@$$V@1@@Z 1001e3d0 f i MoveMap.obj
 0001:0001d3d0       ??$?0ABI$$Z$$V@?$pair@$$CBIPAVdtNavMeshQuery@@@std@@QAE@Upiecewise_construct_t@1@V?$tuple@ABI@1@V?$tuple@$$V@1@@Z 1001e3d0 f i MoveMap.obj
 0001:0001d430       ??$?0ABI$0A@@?$tuple@ABI@std@@QAE@ABI@Z 1001e430 f i MoveMap.obj
 0001:0001d4b0       ??$?0ABI@?$_Tuple_val@ABI@std@@QAE@ABI@Z 1001e4b0 f i MoveMap.obj
 0001:0001d4f0       ??$?0ABUpiecewise_construct_t@std@@V?$tuple@ABI@1@V?$tuple@$$V@1@@?$_List_node_emplace_op2@V?$allocator@U?$_List_node@U?$pair@$$CBIPAUMMapData@MMAP@@@std@@PAX@std@@@std@@@std@@QAE@AAV?$allocator@U?$_List_node@U?$pair@$$CBIPAUMMapData@MMAP@@@std@@PAX@std@@@1@ABUpiecewise_construct_t@1@$$QAV?$tuple@ABI@1@$$QAV?$tuple@$$V@1@@Z 1001e4f0 f i MoveMap.obj
 0001:0001d4f0       ??$?0ABUpiecewise_construct_t@std@@V?$tuple@ABI@1@V?$tuple@$$V@1@@?$_List_node_emplace_op2@V?$allocator@U?$_List_node@U?$pair@$$CBIPAVdtNavMeshQuery@@@std@@PAX@std@@@std@@@std@@QAE@AAV?$allocator@U?$_List_node@U?$pair@$$CBIPAVdtNavMeshQuery@@@std@@PAX@std@@@1@ABUpiecewise_construct_t@1@$$QAV?$tuple@ABI@1@$$QAV?$tuple@$$V@1@@Z 1001e4f0 f i MoveMap.obj
 0001:0001d5b0       ??$?0ABV?$allocator@D@std@@$$V@?$_Compressed_pair@V?$allocator@D@std@@V?$_String_val@U?$_Simple_types@D@std@@@2@$00@std@@QAE@U_One_then_variadic_args_t@1@ABV?$allocator@D@1@@Z 1001e5b0 f i MoveMap.obj
 0001:0001d5b0       ??$?0V?$allocator@D@std@@$$V@?$_Compressed_pair@V?$allocator@D@std@@V?$_String_val@U?$_Simple_types@D@std@@@2@$00@std@@QAE@U_One_then_variadic_args_t@1@$$QAV?$allocator@D@1@@Z 1001e5b0 f i MoveMap.obj
 0001:0001d5f0       ??$?0ABV?$allocator@U?$pair@$$CBIPAUMMapData@MMAP@@@std@@@std@@$$V@?$_Compressed_pair@V?$allocator@U?$_List_node@U?$pair@$$CBIPAUMMapData@MMAP@@@std@@PAX@std@@@std@@V?$_List_val@U?$_List_simple_types@U?$pair@$$CBIPAUMMapData@MMAP@@@std@@@std@@@2@$00@std@@QAE@U_One_then_variadic_args_t@1@ABV?$allocator@U?$pair@$$CBIPAUMMapData@MMAP@@@std@@@1@@Z 1001e5f0 f i MoveMap.obj
 0001:0001d5f0       ??$?0ABV?$allocator@U?$pair@$$CBIPAVdtNavMeshQuery@@@std@@@std@@$$V@?$_Compressed_pair@V?$allocator@U?$_List_node@U?$pair@$$CBIPAVdtNavMeshQuery@@@std@@PAX@std@@@std@@V?$_List_val@U?$_List_simple_types@U?$pair@$$CBIPAVdtNavMeshQuery@@@std@@@std@@@2@$00@std@@QAE@U_One_then_variadic_args_t@1@ABV?$allocator@U?$pair@$$CBIPAVdtNavMeshQuery@@@std@@@1@@Z 1001e5f0 f i MoveMap.obj
 0001:0001d5f0       ??$?0ABV?$allocator@U?$pair@$$CBI_K@std@@@std@@$$V@?$_Compressed_pair@V?$allocator@U?$_List_node@U?$pair@$$CBI_K@std@@PAX@std@@@std@@V?$_List_val@U?$_List_simple_types@U?$pair@$$CBI_K@std@@@std@@@2@$00@std@@QAE@U_One_then_variadic_args_t@1@ABV?$allocator@U?$pair@$$CBI_K@std@@@1@@Z 1001e5f0 f i MoveMap.obj
 0001:0001d630       ??$?0ABV?$allocator@U?$pair@$$CBIPAUMMapData@MMAP@@@std@@@std@@$$V@?$_Compressed_pair@V?$allocator@V?$_List_unchecked_iterator@V?$_List_val@U?$_List_simple_types@U?$pair@$$CBIPAUMMapData@MMAP@@@std@@@std@@@std@@@std@@@std@@V?$_Vector_val@U?$_Simple_types@V?$_List_unchecked_iterator@V?$_List_val@U?$_List_simple_types@U?$pair@$$CBIPAUMMapData@MMAP@@@std@@@std@@@std@@@std@@@std@@@2@$00@std@@QAE@U_One_then_variadic_args_t@1@ABV?$allocator@U?$pair@$$CBIPAUMMapData@MMAP@@@std@@@1@@Z 1001e630 f i MoveMap.obj
 0001:0001d630       ??$?0ABV?$allocator@U?$pair@$$CBIPAVdtNavMeshQuery@@@std@@@std@@$$V@?$_Compressed_pair@V?$allocator@V?$_List_unchecked_iterator@V?$_List_val@U?$_List_simple_types@U?$pair@$$CBIPAVdtNavMeshQuery@@@std@@@std@@@std@@@std@@@std@@V?$_Vector_val@U?$_Simple_types@V?$_List_unchecked_iterator@V?$_List_val@U?$_List_simple_types@U?$pair@$$CBIPAVdtNavMeshQuery@@@std@@@std@@@std@@@std@@@std@@@2@$00@std@@QAE@U_One_then_variadic_args_t@1@ABV?$allocator@U?$pair@$$CBIPAVdtNavMeshQuery@@@std@@@1@@Z 1001e630 f i MoveMap.obj
 0001:0001d630       ??$?0ABV?$allocator@U?$pair@$$CBI_K@std@@@std@@$$V@?$_Compressed_pair@V?$allocator@V?$_List_unchecked_iterator@V?$_List_val@U?$_List_simple_types@U?$pair@$$CBI_K@std@@@std@@@std@@@std@@@std@@V?$_Vector_val@U?$_Simple_types@V?$_List_unchecked_iterator@V?$_List_val@U?$_List_simple_types@U?$pair@$$CBI_K@std@@@std@@@std@@@std@@@std@@@2@$00@std@@QAE@U_One_then_variadic_args_t@1@ABV?$allocator@U?$pair@$$CBI_K@std@@@1@@Z 1001e630 f i MoveMap.obj
 0001:0001d670       ??$?0ABV?$allocator@U?$pair@$$CBIPAUMMapData@MMAP@@@std@@@std@@$0A@@?$_Hash_vec@V?$allocator@V?$_List_unchecked_iterator@V?$_List_val@U?$_List_simple_types@U?$pair@$$CBIPAUMMapData@MMAP@@@std@@@std@@@std@@@std@@@std@@@std@@QAE@ABV?$allocator@U?$pair@$$CBIPAUMMapData@MMAP@@@std@@@1@@Z 1001e670 f i MoveMap.obj
 0001:0001d670       ??$?0ABV?$allocator@U?$pair@$$CBIPAVdtNavMeshQuery@@@std@@@std@@$0A@@?$_Hash_vec@V?$allocator@V?$_List_unchecked_iterator@V?$_List_val@U?$_List_simple_types@U?$pair@$$CBIPAVdtNavMeshQuery@@@std@@@std@@@std@@@std@@@std@@@std@@QAE@ABV?$allocator@U?$pair@$$CBIPAVdtNavMeshQuery@@@std@@@1@@Z 1001e670 f i MoveMap.obj
 0001:0001d670       ??$?0ABV?$allocator@U?$pair@$$CBI_K@std@@@std@@$0A@@?$_Hash_vec@V?$allocator@V?$_List_unchecked_iterator@V?$_List_val@U?$_List_simple_types@U?$pair@$$CBI_K@std@@@std@@@std@@@std@@@std@@@std@@QAE@ABV?$allocator@U?$pair@$$CBI_K@std@@@1@@Z 1001e670 f i MoveMap.obj
 0001:0001d710       ??$?0D@?$allocator@U_Container_proxy@std@@@std@@QAE@ABV?$allocator@D@1@@Z 1001e710 f i MoveMap.obj
 0001:0001d710       ??$?0U?$_List_node@U?$pair@$$CBIPAUMMapData@MMAP@@@std@@PAX@std@@@?$allocator@U_Container_proxy@std@@@std@@QAE@ABV?$allocator@U?$_List_node@U?$pair@$$CBIPAUMMapData@MMAP@@@std@@PAX@std@@@1@@Z 1001e710 f i MoveMap.obj
 0001:0001d710       ??$?0U?$_List_node@U?$pair@$$CBIPAVdtNavMeshQuery@@@std@@PAX@std@@@?$allocator@U_Container_proxy@std@@@std@@QAE@ABV?$allocator@U?$_List_node@U?$pair@$$CBIPAVdtNavMeshQuery@@@std@@PAX@std@@@1@@Z 1001e710 f i MoveMap.obj
 0001:0001d710       ??$?0U?$_List_node@U?$pair@$$CBI_K@std@@PAX@std@@@?$allocator@U_Container_proxy@std@@@std@@QAE@ABV?$allocator@U?$_List_node@U?$pair@$$CBI_K@std@@PAX@std@@@1@@Z 1001e710 f i MoveMap.obj
 0001:0001d710       ??$?0U?$pair@$$CBIPAUMMapData@MMAP@@@std@@@?$allocator@U?$_List_node@U?$pair@$$CBIPAUMMapData@MMAP@@@std@@PAX@std@@@std@@QAE@ABV?$allocator@U?$pair@$$CBIPAUMMapData@MMAP@@@std@@@1@@Z 1001e710 f i MoveMap.obj
 0001:0001d710       ??$?0U?$pair@$$CBIPAUMMapData@MMAP@@@std@@@?$allocator@V?$_List_unchecked_iterator@V?$_List_val@U?$_List_simple_types@U?$pair@$$CBIPAUMMapData@MMAP@@@std@@@std@@@std@@@std@@@std@@QAE@ABV?$allocator@U?$pair@$$CBIPAUMMapData@MMAP@@@std@@@1@@Z 1001e710 f i MoveMap.obj
 0001:0001d710       ??$?0U?$pair@$$CBIPAVdtNavMeshQuery@@@std@@@?$allocator@U?$_List_node@U?$pair@$$CBIPAVdtNavMeshQuery@@@std@@PAX@std@@@std@@QAE@ABV?$allocator@U?$pair@$$CBIPAVdtNavMeshQuery@@@std@@@1@@Z 1001e710 f i MoveMap.obj
 0001:0001d710       ??$?0U?$pair@$$CBIPAVdtNavMeshQuery@@@std@@@?$allocator@V?$_List_unchecked_iterator@V?$_List_val@U?$_List_simple_types@U?$pair@$$CBIPAVdtNavMeshQuery@@@std@@@std@@@std@@@std@@@std@@QAE@ABV?$allocator@U?$pair@$$CBIPAVdtNavMeshQuery@@@std@@@1@@Z 1001e710 f i MoveMap.obj
 0001:0001d710       ??$?0U?$pair@$$CBI_K@std@@@?$allocator@U?$_List_node@U?$pair@$$CBI_K@std@@PAX@std@@@std@@QAE@ABV?$allocator@U?$pair@$$CBI_K@std@@@1@@Z 1001e710 f i MoveMap.obj
 0001:0001d710       ??$?0U?$pair@$$CBI_K@std@@@?$allocator@V?$_List_unchecked_iterator@V?$_List_val@U?$_List_simple_types@U?$pair@$$CBI_K@std@@@std@@@std@@@std@@@std@@QAE@ABV?$allocator@U?$pair@$$CBI_K@std@@@1@@Z 1001e710 f i MoveMap.obj
 0001:0001d710       ??$?0V?$_List_unchecked_iterator@V?$_List_val@U?$_List_simple_types@U?$pair@$$CBIPAUMMapData@MMAP@@@std@@@std@@@std@@@std@@@?$allocator@U_Container_proxy@std@@@std@@QAE@ABV?$allocator@V?$_List_unchecked_iterator@V?$_List_val@U?$_List_simple_types@U?$pair@$$CBIPAUMMapData@MMAP@@@std@@@std@@@std@@@std@@@1@@Z 1001e710 f i MoveMap.obj
 0001:0001d710       ??$?0V?$_List_unchecked_iterator@V?$_List_val@U?$_List_simple_types@U?$pair@$$CBIPAVdtNavMeshQuery@@@std@@@std@@@std@@@std@@@?$allocator@U_Container_proxy@std@@@std@@QAE@ABV?$allocator@V?$_List_unchecked_iterator@V?$_List_val@U?$_List_simple_types@U?$pair@$$CBIPAVdtNavMeshQuery@@@std@@@std@@@std@@@std@@@1@@Z 1001e710 f i MoveMap.obj
 0001:0001d710       ??$?0V?$_List_unchecked_iterator@V?$_List_val@U?$_List_simple_types@U?$pair@$$CBI_K@std@@@std@@@std@@@std@@@?$allocator@U_Container_proxy@std@@@std@@QAE@ABV?$allocator@V?$_List_unchecked_iterator@V?$_List_val@U?$_List_simple_types@U?$pair@$$CBI_K@std@@@std@@@std@@@std@@@1@@Z 1001e710 f i MoveMap.obj
 0001:0001d710       ??$?0_W@?$allocator@U_Container_proxy@std@@@std@@QAE@ABV?$allocator@_W@1@@Z 1001e710 f i MoveMap.obj
 0001:0001d740       ??$?0IPAUMMapData@MMAP@@$0A@@?$pair@$$CBIPAUMMapData@MMAP@@@std@@QAE@$$QAU?$pair@IPAUMMapData@MMAP@@@1@@Z 1001e740 f i MoveMap.obj
 0001:0001d740       ??$?0IPAVdtNavMeshQuery@@$0A@@?$pair@$$CBIPAVdtNavMeshQuery@@@std@@QAE@$$QAU?$pair@IPAVdtNavMeshQuery@@@1@@Z 1001e740 f i MoveMap.obj
 0001:0001d790       ??$?0I_K$0A@@?$pair@$$CBI_K@std@@QAE@$$QAU?$pair@I_K@1@@Z 1001e790 f i MoveMap.obj
 0001:0001d7e0       ??$?0M@?$_Compressed_pair@U?$equal_to@I@std@@M$00@std@@QAE@U_Zero_then_variadic_args_t@1@$$QAM@Z 1001e7e0 f i MoveMap.obj
 0001:0001d820       ??$?0U?$pair@IPAUMMapData@MMAP@@@std@@@?$_List_node_emplace_op2@V?$allocator@U?$_List_node@U?$pair@$$CBIPAUMMapData@MMAP@@@std@@PAX@std@@@std@@@std@@QAE@AAV?$allocator@U?$_List_node@U?$pair@$$CBIPAUMMapData@MMAP@@@std@@PAX@std@@@1@$$QAU?$pair@IPAUMMapData@MMAP@@@1@@Z 1001e820 f i MoveMap.obj
 0001:0001d820       ??$?0U?$pair@IPAVdtNavMeshQuery@@@std@@@?$_List_node_emplace_op2@V?$allocator@U?$_List_node@U?$pair@$$CBIPAVdtNavMeshQuery@@@std@@PAX@std@@@std@@@std@@QAE@AAV?$allocator@U?$_List_node@U?$pair@$$CBIPAVdtNavMeshQuery@@@std@@PAX@std@@@1@$$QAU?$pair@IPAVdtNavMeshQuery@@@1@@Z 1001e820 f i MoveMap.obj
 0001:0001d8e0       ??$?0U?$pair@I_K@std@@@?$_List_node_emplace_op2@V?$allocator@U?$_List_node@U?$pair@$$CBI_K@std@@PAX@std@@@std@@@std@@QAE@AAV?$allocator@U?$_List_node@U?$pair@$$CBI_K@std@@PAX@std@@@1@$$QAU?$pair@I_K@1@@Z 1001e8e0 f i MoveMap.obj
 0001:0001d9a0       ??$?0U_Exact_args_t@std@@$0A@@?$tuple@$$V@std@@QAE@U_Exact_args_t@1@@Z 1001e9a0 f i MoveMap.obj
 0001:0001d9a0       ??0?$tuple@$$V@std@@QAE@ABV01@@Z 1001e9a0 f i MoveMap.obj
 0001:0001d9d0       ??$?0U_Exact_args_t@std@@ABI$$V$0A@@?$tuple@ABI@std@@QAE@U_Exact_args_t@1@ABI@Z 1001e9d0 f i MoveMap.obj
 0001:0001da30       ??$?0U_Zero_then_variadic_args_t@std@@M@?$_Compressed_pair@U?$hash@I@std@@V?$_Compressed_pair@U?$equal_to@I@std@@M$00@2@$00@std@@QAE@U_Zero_then_variadic_args_t@1@$$QAU21@$$QAM@Z 1001ea30 f i MoveMap.obj
 0001:0001da80       ??$?0V?$_List_iterator@V?$_List_val@U?$_List_simple_types@U?$pair@$$CBIPAUMMapData@MMAP@@@std@@@std@@@std@@@std@@_N$0A@@?$pair@V?$_List_iterator@V?$_List_val@U?$_List_simple_types@U?$pair@$$CBIPAUMMapData@MMAP@@@std@@@std@@@std@@@std@@_N@std@@QAE@$$QAV?$_List_iterator@V?$_List_val@U?$_List_simple_types@U?$pair@$$CBIPAUMMapData@MMAP@@@std@@@std@@@std@@@1@$$QA_N@Z 1001ea80 f i MoveMap.obj
 0001:0001da80       ??$?0V?$_List_iterator@V?$_List_val@U?$_List_simple_types@U?$pair@$$CBIPAVdtNavMeshQuery@@@std@@@std@@@std@@@std@@_N$0A@@?$pair@V?$_List_iterator@V?$_List_val@U?$_List_simple_types@U?$pair@$$CBIPAVdtNavMeshQuery@@@std@@@std@@@std@@@std@@_N@std@@QAE@$$QAV?$_List_iterator@V?$_List_val@U?$_List_simple_types@U?$pair@$$CBIPAVdtNavMeshQuery@@@std@@@std@@@std@@@1@$$QA_N@Z 1001ea80 f i MoveMap.obj
 0001:0001da80       ??$?0V?$_List_iterator@V?$_List_val@U?$_List_simple_types@U?$pair@$$CBI_K@std@@@std@@@std@@@std@@_N$0A@@?$pair@V?$_List_iterator@V?$_List_val@U?$_List_simple_types@U?$pair@$$CBI_K@std@@@std@@@std@@@std@@_N@std@@QAE@$$QAV?$_List_iterator@V?$_List_val@U?$_List_simple_types@U?$pair@$$CBI_K@std@@@std@@@std@@@1@$$QA_N@Z 1001ea80 f i MoveMap.obj
 0001:0001dae0       ??$?0V?$_String_iterator@V?$_String_val@U?$_Simple_types@_W@std@@@std@@@std@@$0A@@?$basic_string@DU?$char_traits@D@std@@V?$allocator@D@2@@std@@QAE@V?$_String_iterator@V?$_String_val@U?$_Simple_types@_W@std@@@std@@@1@0ABV?$allocator@D@1@@Z 1001eae0 f i MoveMap.obj
 0001:0001dc00       ??$?0V?$tuple@ABI@std@@V?$tuple@$$V@1@$0A@$$Z$S@?$pair@$$CBIPAUMMapData@MMAP@@@std@@AAE@AAV?$tuple@ABI@1@AAV?$tuple@$$V@1@U?$integer_sequence@I$0A@@1@U?$integer_sequence@I$S@1@@Z 1001ec00 f i MoveMap.obj
 0001:0001dc00       ??$?0V?$tuple@ABI@std@@V?$tuple@$$V@1@$0A@$$Z$S@?$pair@$$CBIPAVdtNavMeshQuery@@@std@@AAE@AAV?$tuple@ABI@1@AAV?$tuple@$$V@1@U?$integer_sequence@I$0A@@1@U?$integer_sequence@I$S@1@@Z 1001ec00 f i MoveMap.obj
 0001:0001dc50       ??$?RI@?$_Uhash_compare@IU?$hash@I@std@@U?$equal_to@I@2@@std@@QBEIABI@Z 1001ec50 f i MoveMap.obj
 0001:0001dc90       ??$?RII@?$_Uhash_compare@IU?$hash@I@std@@U?$equal_to@I@2@@std@@QBE_NABI0@Z 1001ec90 f i MoveMap.obj
 0001:0001dd00       ??$NumberToString@H@MMAP@@YA?AV?$basic_string@DU?$char_traits@D@std@@V?$allocator@D@2@@std@@H@Z 1001ed00 f i MoveMap.obj
 0001:0001de20       ??$NumberToString@I@MMAP@@YA?AV?$basic_string@DU?$char_traits@D@std@@V?$allocator@D@2@@std@@I@Z 1001ee20 f i MoveMap.obj
 0001:0001df40       ??$_Adl_verify_range@PAV?$_List_unchecked_iterator@V?$_List_val@U?$_List_simple_types@U?$pair@$$CBIPAUMMapData@MMAP@@@std@@@std@@@std@@@std@@PAV12@@std@@YAXABQAV?$_List_unchecked_iterator@V?$_List_val@U?$_List_simple_types@U?$pair@$$CBIPAUMMapData@MMAP@@@std@@@std@@@std@@@0@0@Z 1001ef40 f i MoveMap.obj
 0001:0001df40       ??$_Adl_verify_range@PAV?$_List_unchecked_iterator@V?$_List_val@U?$_List_simple_types@U?$pair@$$CBIPAVdtNavMeshQuery@@@std@@@std@@@std@@@std@@PAV12@@std@@YAXABQAV?$_List_unchecked_iterator@V?$_List_val@U?$_List_simple_types@U?$pair@$$CBIPAVdtNavMeshQuery@@@std@@@std@@@std@@@0@0@Z 1001ef40 f i MoveMap.obj
 0001:0001df40       ??$_Adl_verify_range@PAV?$_List_unchecked_iterator@V?$_List_val@U?$_List_simple_types@U?$pair@$$CBI_K@std@@@std@@@std@@@std@@PAV12@@std@@YAXABQAV?$_List_unchecked_iterator@V?$_List_val@U?$_List_simple_types@U?$pair@$$CBI_K@std@@@std@@@std@@@0@0@Z 1001ef40 f i MoveMap.obj
 0001:0001dfb0       ??$_Adl_verify_range@V?$_String_iterator@V?$_String_val@U?$_Simple_types@_W@std@@@std@@@std@@V12@@std@@YAXABV?$_String_iterator@V?$_String_val@U?$_Simple_types@_W@std@@@std@@@0@0@Z 1001efb0 f i MoveMap.obj
 0001:0001dff0       ??$_Alloc_proxy@V?$allocator@U_Container_proxy@std@@@std@@@_Container_base12@std@@QAEX$$QAV?$allocator@U_Container_proxy@std@@@1@@Z 1001eff0 f i MoveMap.obj
 0001:0001e070       ??$_Allocate_at_least_helper@V?$allocator@D@std@@@std@@YAPADAAV?$allocator@D@0@AAI@Z 1001f070 f i MoveMap.obj
 0001:0001e0a0       ??$_Allocate_at_least_helper@V?$allocator@_W@std@@@std@@YAPA_WAAV?$allocator@_W@0@AAI@Z 1001f0a0 f i MoveMap.obj
 0001:0001e0d0       ??$_Allocate_for_capacity@$0A@@?$basic_string@DU?$char_traits@D@std@@V?$allocator@D@2@@std@@CAPADAAV?$allocator@D@1@AAI@Z 1001f0d0 f i MoveMap.obj
 0001:0001e190       ??$_Allocate_for_capacity@$0A@@?$basic_string@_WU?$char_traits@_W@std@@V?$allocator@_W@2@@std@@CAPA_WAAV?$allocator@_W@1@AAI@Z 1001f190 f i MoveMap.obj
 0001:0001e250       ??$_Construct@$00PBD@?$basic_string@DU?$char_traits@D@std@@V?$allocator@D@2@@std@@AAEXQBDI@Z 1001f250 f i MoveMap.obj
 0001:0001e490       ??$_Construct@$00PB_W@?$basic_string@_WU?$char_traits@_W@std@@V?$allocator@_W@2@@std@@AAEXQB_WI@Z 1001f490 f i MoveMap.obj
 0001:0001e6d0       ??$_Construct@$01PBD@?$basic_string@DU?$char_traits@D@std@@V?$allocator@D@2@@std@@AAEXQBDI@Z 1001f6d0 f i MoveMap.obj
 0001:0001e8d0       ??$_Construct_from_iter@PA_WPA_WI@?$basic_string@DU?$char_traits@D@std@@V?$allocator@D@2@@std@@AAEXPA_WQA_WI@Z 1001f8d0 f i MoveMap.obj
 0001:0001ead0       ??$_Construct_in_place@PADABQAD@std@@YAXAAPADABQAD@Z 1001fad0 f i MoveMap.obj
 0001:0001ead0       ??$_Construct_in_place@PAU?$_List_node@U?$pair@$$CBIPAUMMapData@MMAP@@@std@@PAX@std@@AAPAU12@@std@@YAXAAPAU?$_List_node@U?$pair@$$CBIPAUMMapData@MMAP@@@std@@PAX@0@0@Z 1001fad0 f i MoveMap.obj
 0001:0001ead0       ??$_Construct_in_place@PAU?$_List_node@U?$pair@$$CBIPAUMMapData@MMAP@@@std@@PAX@std@@ABQAU12@@std@@YAXAAPAU?$_List_node@U?$pair@$$CBIPAUMMapData@MMAP@@@std@@PAX@0@ABQAU10@@Z 1001fad0 f i MoveMap.obj
 0001:0001ead0       ??$_Construct_in_place@PAU?$_List_node@U?$pair@$$CBIPAVdtNavMeshQuery@@@std@@PAX@std@@AAPAU12@@std@@YAXAAPAU?$_List_node@U?$pair@$$CBIPAVdtNavMeshQuery@@@std@@PAX@0@0@Z 1001fad0 f i MoveMap.obj
 0001:0001ead0       ??$_Construct_in_place@PAU?$_List_node@U?$pair@$$CBIPAVdtNavMeshQuery@@@std@@PAX@std@@ABQAU12@@std@@YAXAAPAU?$_List_node@U?$pair@$$CBIPAVdtNavMeshQuery@@@std@@PAX@0@ABQAU10@@Z 1001fad0 f i MoveMap.obj
 0001:0001ead0       ??$_Construct_in_place@PAU?$_List_node@U?$pair@$$CBI_K@std@@PAX@std@@AAPAU12@@std@@YAXAAPAU?$_List_node@U?$pair@$$CBI_K@std@@PAX@0@0@Z 1001fad0 f i MoveMap.obj
 0001:0001ead0       ??$_Construct_in_place@PAU?$_List_node@U?$pair@$$CBI_K@std@@PAX@std@@ABQAU12@@std@@YAXAAPAU?$_List_node@U?$pair@$$CBI_K@std@@PAX@0@ABQAU10@@Z 1001fad0 f i MoveMap.obj
 0001:0001ead0       ??$_Construct_in_place@PA_WABQA_W@std@@YAXAAPA_WABQA_W@Z 1001fad0 f i MoveMap.obj
 0001:0001eb40       ??$_Construct_in_place@V?$_List_unchecked_iterator@V?$_List_val@U?$_List_simple_types@U?$pair@$$CBIPAUMMapData@MMAP@@@std@@@std@@@std@@@std@@ABV12@@std@@YAXAAV?$_List_unchecked_iterator@V?$_List_val@U?$_List_simple_types@U?$pair@$$CBIPAUMMapData@MMAP@@@std@@@std@@@std@@@0@ABV10@@Z 1001fb40 f i MoveMap.obj
 0001:0001eb40       ??$_Construct_in_place@V?$_List_unchecked_iterator@V?$_List_val@U?$_List_simple_types@U?$pair@$$CBIPAVdtNavMeshQuery@@@std@@@std@@@std@@@std@@ABV12@@std@@YAXAAV?$_List_unchecked_iterator@V?$_List_val@U?$_List_simple_types@U?$pair@$$CBIPAVdtNavMeshQuery@@@std@@@std@@@std@@@0@ABV10@@Z 1001fb40 f i MoveMap.obj
 0001:0001eb40       ??$_Construct_in_place@V?$_List_unchecked_iterator@V?$_List_val@U?$_List_simple_types@U?$pair@$$CBI_K@std@@@std@@@std@@@std@@ABV12@@std@@YAXAAV?$_List_unchecked_iterator@V?$_List_val@U?$_List_simple_types@U?$pair@$$CBI_K@std@@@std@@@std@@@0@ABV10@@Z 1001fb40 f i MoveMap.obj
 0001:0001ebb0       ??$_Convert_size@II@std@@YAII@Z 1001fbb0 f i MoveMap.obj
 0001:0001ebb0       ??$_Refancy@PA_W$0A@@std@@YAPA_WPA_W@Z 1001fbb0 f i MoveMap.obj
 0001:0001ebb0       ??$_Unfancy@D@std@@YAPADPAD@Z 1001fbb0 f i MoveMap.obj
 0001:0001ebb0       ??$_Unfancy@_W@std@@YAPA_WPA_W@Z 1001fbb0 f i MoveMap.obj
 0001:0001ebb0       ??$_Unfancy_maybe_null@$$CB_W@std@@YAPB_WPB_W@Z 1001fbb0 f i MoveMap.obj
 0001:0001ebb0       ?_Extract@?$_In_place_key_extract_map_impl@IU?$pair@IPAUMMapData@MMAP@@@std@@@std@@SAABIABU?$pair@IPAUMMapData@MMAP@@@2@@Z 1001fbb0 f i MoveMap.obj
 0001:0001ebb0       ?_Extract@?$_In_place_key_extract_map_impl@IU?$pair@IPAVdtNavMeshQuery@@@std@@@std@@SAABIABU?$pair@IPAVdtNavMeshQuery@@@2@@Z 1001fbb0 f i MoveMap.obj
 0001:0001ebb0       ?_Extract@?$_In_place_key_extract_map_impl@IU?$pair@I_K@std@@@std@@SAABIABU?$pair@I_K@2@@Z 1001fbb0 f i MoveMap.obj
 0001:0001ebb0       ?select_on_container_copy_construction@?$_Default_allocator_traits@V?$allocator@D@std@@@std@@SA?AV?$allocator@D@2@ABV32@@Z 1001fbb0 f i MoveMap.obj
 0001:0001ebd0       ??$_Copy_n_unchecked4@PA_WIPAD@std@@YAPADPA_WIPAD@Z 1001fbd0 f i MoveMap.obj
 0001:0001ec20       ??$_Destroy_in_place@PAD@std@@YAXAAPAD@Z 1001fc20 f i MoveMap.obj
 0001:0001ec20       ??$_Destroy_in_place@PAU?$_List_node@U?$pair@$$CBIPAUMMapData@MMAP@@@std@@PAX@std@@@std@@YAXAAPAU?$_List_node@U?$pair@$$CBIPAUMMapData@MMAP@@@std@@PAX@0@@Z 1001fc20 f i MoveMap.obj
 0001:0001ec20       ??$_Destroy_in_place@PAU?$_List_node@U?$pair@$$CBIPAVdtNavMeshQuery@@@std@@PAX@std@@@std@@YAXAAPAU?$_List_node@U?$pair@$$CBIPAVdtNavMeshQuery@@@std@@PAX@0@@Z 1001fc20 f i MoveMap.obj
 0001:0001ec20       ??$_Destroy_in_place@PAU?$_List_node@U?$pair@$$CBI_K@std@@PAX@std@@@std@@YAXAAPAU?$_List_node@U?$pair@$$CBI_K@std@@PAX@0@@Z 1001fc20 f i MoveMap.obj
 0001:0001ec20       ??$_Destroy_in_place@PA_W@std@@YAXAAPA_W@Z 1001fc20 f i MoveMap.obj
 0001:0001ec20       ??$_Destroy_range@PAV?$_List_unchecked_iterator@V?$_List_val@U?$_List_simple_types@U?$pair@$$CBIPAUMMapData@MMAP@@@std@@@std@@@std@@@std@@PAV12@@std@@YAXPAV?$_List_unchecked_iterator@V?$_List_val@U?$_List_simple_types@U?$pair@$$CBIPAUMMapData@MMAP@@@std@@@std@@@std@@@0@QAV10@@Z 1001fc20 f i MoveMap.obj
 0001:0001ec20       ??$_Destroy_range@PAV?$_List_unchecked_iterator@V?$_List_val@U?$_List_simple_types@U?$pair@$$CBIPAVdtNavMeshQuery@@@std@@@std@@@std@@@std@@PAV12@@std@@YAXPAV?$_List_unchecked_iterator@V?$_List_val@U?$_List_simple_types@U?$pair@$$CBIPAVdtNavMeshQuery@@@std@@@std@@@std@@@0@QAV10@@Z 1001fc20 f i MoveMap.obj
 0001:0001ec20       ??$_Destroy_range@PAV?$_List_unchecked_iterator@V?$_List_val@U?$_List_simple_types@U?$pair@$$CBI_K@std@@@std@@@std@@@std@@PAV12@@std@@YAXPAV?$_List_unchecked_iterator@V?$_List_val@U?$_List_simple_types@U?$pair@$$CBI_K@std@@@std@@@std@@@0@QAV10@@Z 1001fc20 f i MoveMap.obj
 0001:0001ec20       ??$_Pocca@V?$allocator@D@std@@@std@@YAXAAV?$allocator@D@0@ABV10@@Z 1001fc20 f i MoveMap.obj
 0001:0001ec20       ??$destroy_at@U?$pair@$$CBIPAUMMapData@MMAP@@@std@@@std@@YAXQAU?$pair@$$CBIPAUMMapData@MMAP@@@0@@Z 1001fc20 f i MoveMap.obj
 0001:0001ec20       ??$destroy_at@U?$pair@$$CBIPAVdtNavMeshQuery@@@std@@@std@@YAXQAU?$pair@$$CBIPAVdtNavMeshQuery@@@0@@Z 1001fc20 f i MoveMap.obj
 0001:0001ec20       ??$destroy_at@U?$pair@$$CBI_K@std@@@std@@YAXQAU?$pair@$$CBI_K@0@@Z 1001fc20 f i MoveMap.obj
 0001:0001ec40       ??$_Emplace_back@ABV?$_List_unchecked_iterator@V?$_List_val@U?$_List_simple_types@U?$pair@$$CBIPAUMMapData@MMAP@@@std@@@std@@@std@@@std@@@?$_Uninitialized_backout@PAV?$_List_unchecked_iterator@V?$_List_val@U?$_List_simple_types@U?$pair@$$CBIPAUMMapData@MMAP@@@std@@@std@@@std@@@std@@@std@@QAEXABV?$_List_unchecked_iterator@V?$_List_val@U?$_List_simple_types@U?$pair@$$CBIPAUMMapData@MMAP@@@std@@@std@@@std@@@1@@Z 1001fc40 f i MoveMap.obj
 0001:0001ec40       ??$_Emplace_back@ABV?$_List_unchecked_iterator@V?$_List_val@U?$_List_simple_types@U?$pair@$$CBIPAVdtNavMeshQuery@@@std@@@std@@@std@@@std@@@?$_Uninitialized_backout@PAV?$_List_unchecked_iterator@V?$_List_val@U?$_List_simple_types@U?$pair@$$CBIPAVdtNavMeshQuery@@@std@@@std@@@std@@@std@@@std@@QAEXABV?$_List_unchecked_iterator@V?$_List_val@U?$_List_simple_types@U?$pair@$$CBIPAVdtNavMeshQuery@@@std@@@std@@@std@@@1@@Z 1001fc40 f i MoveMap.obj
 0001:0001ec40       ??$_Emplace_back@ABV?$_List_unchecked_iterator@V?$_List_val@U?$_List_simple_types@U?$pair@$$CBI_K@std@@@std@@@std@@@std@@@?$_Uninitialized_backout@PAV?$_List_unchecked_iterator@V?$_List_val@U?$_List_simple_types@U?$pair@$$CBI_K@std@@@std@@@std@@@std@@@std@@QAEXABV?$_List_unchecked_iterator@V?$_List_val@U?$_List_simple_types@U?$pair@$$CBI_K@std@@@std@@@std@@@1@@Z 1001fc40 f i MoveMap.obj
 0001:0001ec90       ??$_Find@I@?$_Hash@V?$_Umap_traits@IPAUMMapData@MMAP@@V?$_Uhash_compare@IU?$hash@I@std@@U?$equal_to@I@2@@std@@V?$allocator@U?$pair@$$CBIPAUMMapData@MMAP@@@std@@@4@$0A@@std@@@std@@ABEPAU?$_List_node@U?$pair@$$CBIPAUMMapData@MMAP@@@std@@PAX@1@ABII@Z 1001fc90 f i MoveMap.obj
 0001:0001ec90       ??$_Find@I@?$_Hash@V?$_Umap_traits@IPAVdtNavMeshQuery@@V?$_Uhash_compare@IU?$hash@I@std@@U?$equal_to@I@2@@std@@V?$allocator@U?$pair@$$CBIPAVdtNavMeshQuery@@@std@@@3@$0A@@std@@@std@@ABEPAU?$_List_node@U?$pair@$$CBIPAVdtNavMeshQuery@@@std@@PAX@1@ABII@Z 1001fc90 f i MoveMap.obj
 0001:0001ec90       ??$_Find@I@?$_Hash@V?$_Umap_traits@I_KV?$_Uhash_compare@IU?$hash@I@std@@U?$equal_to@I@2@@std@@V?$allocator@U?$pair@$$CBI_K@std@@@2@$0A@@std@@@std@@ABEPAU?$_List_node@U?$pair@$$CBI_K@std@@PAX@1@ABII@Z 1001fc90 f i MoveMap.obj
 0001:0001ecf0       ??$_Find_last@I@?$_Hash@V?$_Umap_traits@IPAUMMapData@MMAP@@V?$_Uhash_compare@IU?$hash@I@std@@U?$equal_to@I@2@@std@@V?$allocator@U?$pair@$$CBIPAUMMapData@MMAP@@@std@@@4@$0A@@std@@@std@@IBE?AU?$_Hash_find_last_result@PAU?$_List_node@U?$pair@$$CBIPAUMMapData@MMAP@@@std@@PAX@std@@@1@ABII@Z 1001fcf0 f i MoveMap.obj
 0001:0001ecf0       ??$_Find_last@I@?$_Hash@V?$_Umap_traits@IPAVdtNavMeshQuery@@V?$_Uhash_compare@IU?$hash@I@std@@U?$equal_to@I@2@@std@@V?$allocator@U?$pair@$$CBIPAVdtNavMeshQuery@@@std@@@3@$0A@@std@@@std@@IBE?AU?$_Hash_find_last_result@PAU?$_List_node@U?$pair@$$CBIPAVdtNavMeshQuery@@@std@@PAX@std@@@1@ABII@Z 1001fcf0 f i MoveMap.obj
 0001:0001ecf0       ??$_Find_last@I@?$_Hash@V?$_Umap_traits@I_KV?$_Uhash_compare@IU?$hash@I@std@@U?$equal_to@I@2@@std@@V?$allocator@U?$pair@$$CBI_K@std@@@2@$0A@@std@@@std@@IBE?AU?$_Hash_find_last_result@PAU?$_List_node@U?$pair@$$CBI_K@std@@PAX@std@@@1@ABII@Z 1001fcf0 f i MoveMap.obj
 0001:0001edf0       ??$_Fnv1a_append_value@I@std@@YAIIABI@Z 1001fdf0 f i MoveMap.obj
 0001:0001ee20       ??$_Free_non_head@V?$allocator@U?$_List_node@U?$pair@$$CBIPAUMMapData@MMAP@@@std@@PAX@std@@@std@@@?$_List_node@U?$pair@$$CBIPAUMMapData@MMAP@@@std@@PAX@std@@SAXAAV?$allocator@U?$_List_node@U?$pair@$$CBIPAUMMapData@MMAP@@@std@@PAX@std@@@1@PAU01@@Z 1001fe20 f i MoveMap.obj
 0001:0001ee20       ??$_Free_non_head@V?$allocator@U?$_List_node@U?$pair@$$CBIPAVdtNavMeshQuery@@@std@@PAX@std@@@std@@@?$_List_node@U?$pair@$$CBIPAVdtNavMeshQuery@@@std@@PAX@std@@SAXAAV?$allocator@U?$_List_node@U?$pair@$$CBIPAVdtNavMeshQuery@@@std@@PAX@std@@@1@PAU01@@Z 1001fe20 f i MoveMap.obj
 0001:0001ee90       ??$_Free_non_head@V?$allocator@U?$_List_node@U?$pair@$$CBI_K@std@@PAX@std@@@std@@@?$_List_node@U?$pair@$$CBI_K@std@@PAX@std@@SAXAAV?$allocator@U?$_List_node@U?$pair@$$CBI_K@std@@PAX@std@@@1@PAU01@@Z 1001fe90 f i MoveMap.obj
 0001:0001ef00       ??$_Freenode0@V?$allocator@U?$_List_node@U?$pair@$$CBIPAUMMapData@MMAP@@@std@@PAX@std@@@std@@@?$_List_node@U?$pair@$$CBIPAUMMapData@MMAP@@@std@@PAX@std@@SAXAAV?$allocator@U?$_List_node@U?$pair@$$CBIPAUMMapData@MMAP@@@std@@PAX@std@@@1@PAU01@@Z 1001ff00 f i MoveMap.obj
 0001:0001ef00       ??$_Freenode0@V?$allocator@U?$_List_node@U?$pair@$$CBIPAVdtNavMeshQuery@@@std@@PAX@std@@@std@@@?$_List_node@U?$pair@$$CBIPAVdtNavMeshQuery@@@std@@PAX@std@@SAXAAV?$allocator@U?$_List_node@U?$pair@$$CBIPAVdtNavMeshQuery@@@std@@PAX@std@@@1@PAU01@@Z 1001ff00 f i MoveMap.obj
 0001:0001ef50       ??$_Freenode0@V?$allocator@U?$_List_node@U?$pair@$$CBI_K@std@@PAX@std@@@std@@@?$_List_node@U?$pair@$$CBI_K@std@@PAX@std@@SAXAAV?$allocator@U?$_List_node@U?$pair@$$CBI_K@std@@PAX@std@@@1@PAU01@@Z 1001ff50 f i MoveMap.obj
 0001:0001efa0       ??$_Freenode@V?$allocator@U?$_List_node@U?$pair@$$CBIPAUMMapData@MMAP@@@std@@PAX@std@@@std@@@?$_List_node@U?$pair@$$CBIPAUMMapData@MMAP@@@std@@PAX@std@@SAXAAV?$allocator@U?$_List_node@U?$pair@$$CBIPAUMMapData@MMAP@@@std@@PAX@std@@@1@PAU01@@Z 1001ffa0 f i MoveMap.obj
 0001:0001efa0       ??$_Freenode@V?$allocator@U?$_List_node@U?$pair@$$CBIPAVdtNavMeshQuery@@@std@@PAX@std@@@std@@@?$_List_node@U?$pair@$$CBIPAVdtNavMeshQuery@@@std@@PAX@std@@SAXAAV?$allocator@U?$_List_node@U?$pair@$$CBIPAVdtNavMeshQuery@@@std@@PAX@std@@@1@PAU01@@Z 1001ffa0 f i MoveMap.obj
 0001:0001f020       ??$_Freenode@V?$allocator@U?$_List_node@U?$pair@$$CBI_K@std@@PAX@std@@@std@@@?$_List_node@U?$pair@$$CBI_K@std@@PAX@std@@SAXAAV?$allocator@U?$_List_node@U?$pair@$$CBI_K@std@@PAX@std@@@1@PAU01@@Z 10020020 f i MoveMap.obj
 0001:0001f0a0       ??$_Get_size_of_n@$00@std@@YAII@Z 100200a0 f i MoveMap.obj
 0001:0001f0d0       ??$_Get_size_of_n@$01@std@@YAII@Z 100200d0 f i MoveMap.obj
 0001:0001f120       ??$_Get_size_of_n@$03@std@@YAII@Z 10020120 f i MoveMap.obj
 0001:0001f170       ??$_Get_size_of_n@$0BA@@std@@YAII@Z 10020170 f i MoveMap.obj
 0001:0001f1c0       ??$_Get_size_of_n@$0BI@@std@@YAII@Z 100201c0 f i MoveMap.obj
 0001:0001f210       ??$_Get_unwrapped@AAV?$_String_iterator@V?$_String_val@U?$_Simple_types@_W@std@@@std@@@std@@@std@@YA?A_TAAV?$_String_iterator@V?$_String_val@U?$_Simple_types@_W@std@@@std@@@0@@Z 10020210 f i MoveMap.obj
 0001:0001f230       ??$_Get_unwrapped@ABQAV?$_List_unchecked_iterator@V?$_List_val@U?$_List_simple_types@U?$pair@$$CBIPAUMMapData@MMAP@@@std@@@std@@@std@@@std@@@std@@YA?A_TABQAV?$_List_unchecked_iterator@V?$_List_val@U?$_List_simple_types@U?$pair@$$CBIPAUMMapData@MMAP@@@std@@@std@@@std@@@0@@Z 10020230 f i MoveMap.obj
 0001:0001f230       ??$_Get_unwrapped@ABQAV?$_List_unchecked_iterator@V?$_List_val@U?$_List_simple_types@U?$pair@$$CBIPAVdtNavMeshQuery@@@std@@@std@@@std@@@std@@@std@@YA?A_TABQAV?$_List_unchecked_iterator@V?$_List_val@U?$_List_simple_types@U?$pair@$$CBIPAVdtNavMeshQuery@@@std@@@std@@@std@@@0@@Z 10020230 f i MoveMap.obj
 0001:0001f230       ??$_Get_unwrapped@ABQAV?$_List_unchecked_iterator@V?$_List_val@U?$_List_simple_types@U?$pair@$$CBI_K@std@@@std@@@std@@@std@@@std@@YA?A_TABQAV?$_List_unchecked_iterator@V?$_List_val@U?$_List_simple_types@U?$pair@$$CBI_K@std@@@std@@@std@@@0@@Z 10020230 f i MoveMap.obj
 0001:0001f250       ??$_Hash_representation@I@std@@YAIABI@Z 10020250 f i MoveMap.obj
 0001:0001f280       ??$_Kfn@$$CBIPAUMMapData@MMAP@@@?$_Umap_traits@IPAUMMapData@MMAP@@V?$_Uhash_compare@IU?$hash@I@std@@U?$equal_to@I@2@@std@@V?$allocator@U?$pair@$$CBIPAUMMapData@MMAP@@@std@@@4@$0A@@std@@SAABIABU?$pair@$$CBIPAUMMapData@MMAP@@@1@@Z 10020280 f i MoveMap.obj
 0001:0001f280       ??$_Kfn@$$CBIPAVdtNavMeshQuery@@@?$_Umap_traits@IPAVdtNavMeshQuery@@V?$_Uhash_compare@IU?$hash@I@std@@U?$equal_to@I@2@@std@@V?$allocator@U?$pair@$$CBIPAVdtNavMeshQuery@@@std@@@3@$0A@@std@@SAABIABU?$pair@$$CBIPAVdtNavMeshQuery@@@1@@Z 10020280 f i MoveMap.obj
 0001:0001f280       ??$_Kfn@$$CBI_K@?$_Umap_traits@I_KV?$_Uhash_compare@IU?$hash@I@std@@U?$equal_to@I@2@@std@@V?$allocator@U?$pair@$$CBI_K@std@@@2@$0A@@std@@SAABIABU?$pair@$$CBI_K@1@@Z 10020280 f i MoveMap.obj
 0001:0001f2a0       ??$_Reallocate_for@V<lambda_1>@?1??assign@?$basic_string@DU?$char_traits@D@std@@V?$allocator@D@2@@std@@QAEAAV34@QBDI@Z@PBD@?$basic_string@DU?$char_traits@D@std@@V?$allocator@D@2@@std@@AAEAAV01@IV<lambda_1>@?1??assign@01@QAEAAV01@QBDI@Z@PBD@Z 100202a0 f i MoveMap.obj
 0001:0001f400       ??$_Reallocate_grow_by@V<lambda_1>@?1??append@?$basic_string@DU?$char_traits@D@std@@V?$allocator@D@2@@std@@QAEAAV34@QBDI@Z@PBDI@?$basic_string@DU?$char_traits@D@std@@V?$allocator@D@2@@std@@AAEAAV01@IV<lambda_1>@?1??append@01@QAEAAV01@QBDI@Z@PBDI@Z 10020400 f i MoveMap.obj
 0001:0001f5b0       ??$_Reallocate_grow_by@V<lambda_1>@?1??insert@?$basic_string@DU?$char_traits@D@std@@V?$allocator@D@2@@std@@QAEAAV34@IQBDI@Z@IPBDI@?$basic_string@DU?$char_traits@D@std@@V?$allocator@D@2@@std@@AAEAAV01@IV<lambda_1>@?1??insert@01@QAEAAV01@IQBDI@Z@IPBDI@Z 100205b0 f i MoveMap.obj
 0001:0001f760       ??$_Search_vectorized@$$CBD$$CBD@std@@YAPBDQBD00I@Z 10020760 f i MoveMap.obj
 0001:0001f790       ??$_Traits_find@U?$char_traits@D@std@@@std@@YAIQBDII0I@Z 10020790 f i MoveMap.obj
 0001:0001f8a0       ??$_Try_emplace@ABI$$V@?$_Hash@V?$_Umap_traits@IPAUMMapData@MMAP@@V?$_Uhash_compare@IU?$hash@I@std@@U?$equal_to@I@2@@std@@V?$allocator@U?$pair@$$CBIPAUMMapData@MMAP@@@std@@@4@$0A@@std@@@std@@IAE?AU?$pair@PAU?$_List_node@U?$pair@$$CBIPAUMMapData@MMAP@@@std@@PAX@std@@_N@1@ABI@Z 100208a0 f i MoveMap.obj
 0001:0001fa90       ??$_Try_emplace@ABI$$V@?$_Hash@V?$_Umap_traits@IPAVdtNavMeshQuery@@V?$_Uhash_compare@IU?$hash@I@std@@U?$equal_to@I@2@@std@@V?$allocator@U?$pair@$$CBIPAVdtNavMeshQuery@@@std@@@3@$0A@@std@@@std@@IAE?AU?$pair@PAU?$_List_node@U?$pair@$$CBIPAVdtNavMeshQuery@@@std@@PAX@std@@_N@1@ABI@Z 10020a90 f i MoveMap.obj
 0001:0001fc80       ??$_Tuple_get@$0A@ABI@std@@YA$$QA_P$$QAV?$tuple@ABI@0@@Z 10020c80 f i MoveMap.obj
 0001:0001fca0       ??$addressof@$$CBV?$_List_val@U?$_List_simple_types@U?$pair@$$CBIPAUMMapData@MMAP@@@std@@@std@@@std@@@std@@YAPBV?$_List_val@U?$_List_simple_types@U?$pair@$$CBIPAUMMapData@MMAP@@@std@@@std@@@0@ABV10@@Z 10020ca0 f i MoveMap.obj
 0001:0001fca0       ??$addressof@$$CBV?$_List_val@U?$_List_simple_types@U?$pair@$$CBIPAVdtNavMeshQuery@@@std@@@std@@@std@@@std@@YAPBV?$_List_val@U?$_List_simple_types@U?$pair@$$CBIPAVdtNavMeshQuery@@@std@@@std@@@0@ABV10@@Z 10020ca0 f i MoveMap.obj
 0001:0001fca0       ??$addressof@$$CBV?$_List_val@U?$_List_simple_types@U?$pair@$$CBI_K@std@@@std@@@std@@@std@@YAPBV?$_List_val@U?$_List_simple_types@U?$pair@$$CBI_K@std@@@std@@@0@ABV10@@Z 10020ca0 f i MoveMap.obj
 0001:0001fca0       ??$addressof@$$CBV?$basic_string@DU?$char_traits@D@std@@V?$allocator@D@2@@std@@@std@@YAPBV?$basic_string@DU?$char_traits@D@std@@V?$allocator@D@2@@0@ABV10@@Z 10020ca0 f i MoveMap.obj
 0001:0001fca0       ??$addressof@D@std@@YAPADAAD@Z 10020ca0 f i MoveMap.obj
 0001:0001fca0       ??$addressof@PAD@std@@YAPAPADAAPAD@Z 10020ca0 f i MoveMap.obj
 0001:0001fca0       ??$addressof@PAU?$_List_node@U?$pair@$$CBIPAUMMapData@MMAP@@@std@@PAX@std@@@std@@YAPAPAU?$_List_node@U?$pair@$$CBIPAUMMapData@MMAP@@@std@@PAX@0@AAPAU10@@Z 10020ca0 f i MoveMap.obj
 0001:0001fca0       ??$addressof@PAU?$_List_node@U?$pair@$$CBIPAVdtNavMeshQuery@@@std@@PAX@std@@@std@@YAPAPAU?$_List_node@U?$pair@$$CBIPAVdtNavMeshQuery@@@std@@PAX@0@AAPAU10@@Z 10020ca0 f i MoveMap.obj
 0001:0001fca0       ??$addressof@PAU?$_List_node@U?$pair@$$CBI_K@std@@PAX@std@@@std@@YAPAPAU?$_List_node@U?$pair@$$CBI_K@std@@PAX@0@AAPAU10@@Z 10020ca0 f i MoveMap.obj
 0001:0001fca0       ??$addressof@PA_W@std@@YAPAPA_WAAPA_W@Z 10020ca0 f i MoveMap.obj
 0001:0001fca0       ??$addressof@U?$pair@$$CBIPAUMMapData@MMAP@@@std@@@std@@YAPAU?$pair@$$CBIPAUMMapData@MMAP@@@0@AAU10@@Z 10020ca0 f i MoveMap.obj
 0001:0001fca0       ??$addressof@U?$pair@$$CBIPAVdtNavMeshQuery@@@std@@@std@@YAPAU?$pair@$$CBIPAVdtNavMeshQuery@@@0@AAU10@@Z 10020ca0 f i MoveMap.obj
 0001:0001fca0       ??$addressof@U?$pair@$$CBI_K@std@@@std@@YAPAU?$pair@$$CBI_K@0@AAU10@@Z 10020ca0 f i MoveMap.obj
 0001:0001fca0       ??$addressof@V?$_List_unchecked_iterator@V?$_List_val@U?$_List_simple_types@U?$pair@$$CBIPAUMMapData@MMAP@@@std@@@std@@@std@@@std@@@std@@YAPAV?$_List_unchecked_iterator@V?$_List_val@U?$_List_simple_types@U?$pair@$$CBIPAUMMapData@MMAP@@@std@@@std@@@std@@@0@AAV10@@Z 10020ca0 f i MoveMap.obj
 0001:0001fca0       ??$addressof@V?$_List_unchecked_iterator@V?$_List_val@U?$_List_simple_types@U?$pair@$$CBIPAVdtNavMeshQuery@@@std@@@std@@@std@@@std@@@std@@YAPAV?$_List_unchecked_iterator@V?$_List_val@U?$_List_simple_types@U?$pair@$$CBIPAVdtNavMeshQuery@@@std@@@std@@@std@@@0@AAV10@@Z 10020ca0 f i MoveMap.obj
 0001:0001fca0       ??$addressof@V?$_List_unchecked_iterator@V?$_List_val@U?$_List_simple_types@U?$pair@$$CBI_K@std@@@std@@@std@@@std@@@std@@YAPAV?$_List_unchecked_iterator@V?$_List_val@U?$_List_simple_types@U?$pair@$$CBI_K@std@@@std@@@std@@@0@AAV10@@Z 10020ca0 f i MoveMap.obj
 0001:0001fca0       ??$addressof@V?$_List_val@U?$_List_simple_types@U?$pair@$$CBIPAUMMapData@MMAP@@@std@@@std@@@std@@@std@@YAPAV?$_List_val@U?$_List_simple_types@U?$pair@$$CBIPAUMMapData@MMAP@@@std@@@std@@@0@AAV10@@Z 10020ca0 f i MoveMap.obj
 0001:0001fca0       ??$addressof@V?$_List_val@U?$_List_simple_types@U?$pair@$$CBIPAVdtNavMeshQuery@@@std@@@std@@@std@@@std@@YAPAV?$_List_val@U?$_List_simple_types@U?$pair@$$CBIPAVdtNavMeshQuery@@@std@@@std@@@0@AAV10@@Z 10020ca0 f i MoveMap.obj
 0001:0001fca0       ??$addressof@V?$_List_val@U?$_List_simple_types@U?$pair@$$CBI_K@std@@@std@@@std@@@std@@YAPAV?$_List_val@U?$_List_simple_types@U?$pair@$$CBI_K@std@@@std@@@0@AAV10@@Z 10020ca0 f i MoveMap.obj
 0001:0001fca0       ??$addressof@V?$_String_val@U?$_Simple_types@_W@std@@@std@@@std@@YAPAV?$_String_val@U?$_Simple_types@_W@std@@@0@AAV10@@Z 10020ca0 f i MoveMap.obj
 0001:0001fca0       ??$addressof@V?$basic_stringbuf@DU?$char_traits@D@std@@V?$allocator@D@2@@std@@@std@@YAPAV?$basic_stringbuf@DU?$char_traits@D@std@@V?$allocator@D@2@@0@AAV10@@Z 10020ca0 f i MoveMap.obj
 0001:0001fcc0       ??$construct@U?$pair@$$CBIPAUMMapData@MMAP@@@std@@ABUpiecewise_construct_t@2@V?$tuple@ABI@2@V?$tuple@$$V@2@@?$_Default_allocator_traits@V?$allocator@U?$_List_node@U?$pair@$$CBIPAUMMapData@MMAP@@@std@@PAX@std@@@std@@@std@@SAXAAV?$allocator@U?$_List_node@U?$pair@$$CBIPAUMMapData@MMAP@@@std@@PAX@std@@@1@QAU?$pair@$$CBIPAUMMapData@MMAP@@@1@ABUpiecewise_construct_t@1@$$QAV?$tuple@ABI@1@$$QAV?$tuple@$$V@1@@Z 10020cc0 f i MoveMap.obj
 0001:0001fcc0       ??$construct@U?$pair@$$CBIPAVdtNavMeshQuery@@@std@@ABUpiecewise_construct_t@2@V?$tuple@ABI@2@V?$tuple@$$V@2@@?$_Default_allocator_traits@V?$allocator@U?$_List_node@U?$pair@$$CBIPAVdtNavMeshQuery@@@std@@PAX@std@@@std@@@std@@SAXAAV?$allocator@U?$_List_node@U?$pair@$$CBIPAVdtNavMeshQuery@@@std@@PAX@std@@@1@QAU?$pair@$$CBIPAVdtNavMeshQuery@@@1@ABUpiecewise_construct_t@1@$$QAV?$tuple@ABI@1@$$QAV?$tuple@$$V@1@@Z 10020cc0 f i MoveMap.obj
 0001:0001fcf0       ??$construct@U?$pair@$$CBIPAUMMapData@MMAP@@@std@@U?$pair@IPAUMMapData@MMAP@@@2@@?$_Default_allocator_traits@V?$allocator@U?$_List_node@U?$pair@$$CBIPAUMMapData@MMAP@@@std@@PAX@std@@@std@@@std@@SAXAAV?$allocator@U?$_List_node@U?$pair@$$CBIPAUMMapData@MMAP@@@std@@PAX@std@@@1@QAU?$pair@$$CBIPAUMMapData@MMAP@@@1@$$QAU?$pair@IPAUMMapData@MMAP@@@1@@Z 10020cf0 f i MoveMap.obj
 0001:0001fcf0       ??$construct@U?$pair@$$CBIPAVdtNavMeshQuery@@@std@@U?$pair@IPAVdtNavMeshQuery@@@2@@?$_Default_allocator_traits@V?$allocator@U?$_List_node@U?$pair@$$CBIPAVdtNavMeshQuery@@@std@@PAX@std@@@std@@@std@@SAXAAV?$allocator@U?$_List_node@U?$pair@$$CBIPAVdtNavMeshQuery@@@std@@PAX@std@@@1@QAU?$pair@$$CBIPAVdtNavMeshQuery@@@1@$$QAU?$pair@IPAVdtNavMeshQuery@@@1@@Z 10020cf0 f i MoveMap.obj
 0001:0001fd20       ??$construct@U?$pair@$$CBI_K@std@@U?$pair@I_K@2@@?$_Default_allocator_traits@V?$allocator@U?$_List_node@U?$pair@$$CBI_K@std@@PAX@std@@@std@@@std@@SAXAAV?$allocator@U?$_List_node@U?$pair@$$CBI_K@std@@PAX@std@@@1@QAU?$pair@$$CBI_K@1@$$QAU?$pair@I_K@1@@Z 10020d20 f i MoveMap.obj
 0001:0001fd50       ??$construct_at@D$$V@std@@YAPADQAD@Z 10020d50 f i MoveMap.obj
 0001:0001fdb0       ??$construct_at@PADABQAD@std@@YAPAPADQAPADABQAD@Z 10020db0 f i MoveMap.obj
 0001:0001fdb0       ??$construct_at@PAU?$_List_node@U?$pair@$$CBIPAUMMapData@MMAP@@@std@@PAX@std@@AAPAU12@@std@@YAPAPAU?$_List_node@U?$pair@$$CBIPAUMMapData@MMAP@@@std@@PAX@0@QAPAU10@AAPAU10@@Z 10020db0 f i MoveMap.obj
 0001:0001fdb0       ??$construct_at@PAU?$_List_node@U?$pair@$$CBIPAUMMapData@MMAP@@@std@@PAX@std@@ABQAU12@@std@@YAPAPAU?$_List_node@U?$pair@$$CBIPAUMMapData@MMAP@@@std@@PAX@0@QAPAU10@ABQAU10@@Z 10020db0 f i MoveMap.obj
 0001:0001fdb0       ??$construct_at@PAU?$_List_node@U?$pair@$$CBIPAVdtNavMeshQuery@@@std@@PAX@std@@AAPAU12@@std@@YAPAPAU?$_List_node@U?$pair@$$CBIPAVdtNavMeshQuery@@@std@@PAX@0@QAPAU10@AAPAU10@@Z 10020db0 f i MoveMap.obj
 0001:0001fdb0       ??$construct_at@PAU?$_List_node@U?$pair@$$CBIPAVdtNavMeshQuery@@@std@@PAX@std@@ABQAU12@@std@@YAPAPAU?$_List_node@U?$pair@$$CBIPAVdtNavMeshQuery@@@std@@PAX@0@QAPAU10@ABQAU10@@Z 10020db0 f i MoveMap.obj
 0001:0001fdb0       ??$construct_at@PAU?$_List_node@U?$pair@$$CBI_K@std@@PAX@std@@AAPAU12@@std@@YAPAPAU?$_List_node@U?$pair@$$CBI_K@std@@PAX@0@QAPAU10@AAPAU10@@Z 10020db0 f i MoveMap.obj
 0001:0001fdb0       ??$construct_at@PAU?$_List_node@U?$pair@$$CBI_K@std@@PAX@std@@ABQAU12@@std@@YAPAPAU?$_List_node@U?$pair@$$CBI_K@std@@PAX@0@QAPAU10@ABQAU10@@Z 10020db0 f i MoveMap.obj
 0001:0001fdb0       ??$construct_at@PA_WABQA_W@std@@YAPAPA_WQAPA_WABQA_W@Z 10020db0 f i MoveMap.obj
 0001:0001fe00       ??$construct_at@U?$pair@$$CBIPAUMMapData@MMAP@@@std@@ABUpiecewise_construct_t@2@V?$tuple@ABI@2@V?$tuple@$$V@2@@std@@YAPAU?$pair@$$CBIPAUMMapData@MMAP@@@0@QAU10@ABUpiecewise_construct_t@0@$$QAV?$tuple@ABI@0@$$QAV?$tuple@$$V@0@@Z 10020e00 f i MoveMap.obj
 0001:0001fe00       ??$construct_at@U?$pair@$$CBIPAVdtNavMeshQuery@@@std@@ABUpiecewise_construct_t@2@V?$tuple@ABI@2@V?$tuple@$$V@2@@std@@YAPAU?$pair@$$CBIPAVdtNavMeshQuery@@@0@QAU10@ABUpiecewise_construct_t@0@$$QAV?$tuple@ABI@0@$$QAV?$tuple@$$V@0@@Z 10020e00 f i MoveMap.obj
 0001:0001fe80       ??$construct_at@U?$pair@$$CBIPAUMMapData@MMAP@@@std@@U?$pair@IPAUMMapData@MMAP@@@2@@std@@YAPAU?$pair@$$CBIPAUMMapData@MMAP@@@0@QAU10@$$QAU?$pair@IPAUMMapData@MMAP@@@0@@Z 10020e80 f i MoveMap.obj
 0001:0001fe80       ??$construct_at@U?$pair@$$CBIPAVdtNavMeshQuery@@@std@@U?$pair@IPAVdtNavMeshQuery@@@2@@std@@YAPAU?$pair@$$CBIPAVdtNavMeshQuery@@@0@QAU10@$$QAU?$pair@IPAVdtNavMeshQuery@@@0@@Z 10020e80 f i MoveMap.obj
 0001:0001fed0       ??$construct_at@U?$pair@$$CBI_K@std@@U?$pair@I_K@2@@std@@YAPAU?$pair@$$CBI_K@0@QAU10@$$QAU?$pair@I_K@0@@Z 10020ed0 f i MoveMap.obj
 0001:0001ff20       ??$construct_at@V?$_List_unchecked_iterator@V?$_List_val@U?$_List_simple_types@U?$pair@$$CBIPAUMMapData@MMAP@@@std@@@std@@@std@@@std@@ABV12@@std@@YAPAV?$_List_unchecked_iterator@V?$_List_val@U?$_List_simple_types@U?$pair@$$CBIPAUMMapData@MMAP@@@std@@@std@@@std@@@0@QAV10@ABV10@@Z 10020f20 f i MoveMap.obj
 0001:0001ff20       ??$construct_at@V?$_List_unchecked_iterator@V?$_List_val@U?$_List_simple_types@U?$pair@$$CBIPAVdtNavMeshQuery@@@std@@@std@@@std@@@std@@ABV12@@std@@YAPAV?$_List_unchecked_iterator@V?$_List_val@U?$_List_simple_types@U?$pair@$$CBIPAVdtNavMeshQuery@@@std@@@std@@@std@@@0@QAV10@ABV10@@Z 10020f20 f i MoveMap.obj
 0001:0001ff20       ??$construct_at@V?$_List_unchecked_iterator@V?$_List_val@U?$_List_simple_types@U?$pair@$$CBI_K@std@@@std@@@std@@@std@@ABV12@@std@@YAPAV?$_List_unchecked_iterator@V?$_List_val@U?$_List_simple_types@U?$pair@$$CBI_K@std@@@std@@@std@@@0@QAV10@ABV10@@Z 10020f20 f i MoveMap.obj
 0001:0001ff70       ??$construct_at@_W$$V@std@@YAPA_WQA_W@Z 10020f70 f i MoveMap.obj
 0001:0001ffd0       ??$destroy@U?$pair@$$CBIPAUMMapData@MMAP@@@std@@@?$_Default_allocator_traits@V?$allocator@U?$_List_node@U?$pair@$$CBIPAUMMapData@MMAP@@@std@@PAX@std@@@std@@@std@@SAXAAV?$allocator@U?$_List_node@U?$pair@$$CBIPAUMMapData@MMAP@@@std@@PAX@std@@@1@QAU?$pair@$$CBIPAUMMapData@MMAP@@@1@@Z 10020fd0 f i MoveMap.obj
 0001:0001ffd0       ??$destroy@U?$pair@$$CBIPAVdtNavMeshQuery@@@std@@@?$_Default_allocator_traits@V?$allocator@U?$_List_node@U?$pair@$$CBIPAVdtNavMeshQuery@@@std@@PAX@std@@@std@@@std@@SAXAAV?$allocator@U?$_List_node@U?$pair@$$CBIPAVdtNavMeshQuery@@@std@@PAX@std@@@1@QAU?$pair@$$CBIPAVdtNavMeshQuery@@@1@@Z 10020fd0 f i MoveMap.obj
 0001:0001ffd0       ??$destroy@U?$pair@$$CBI_K@std@@@?$_Default_allocator_traits@V?$allocator@U?$_List_node@U?$pair@$$CBI_K@std@@PAX@std@@@std@@@std@@SAXAAV?$allocator@U?$_List_node@U?$pair@$$CBI_K@std@@PAX@std@@@1@QAU?$pair@$$CBI_K@1@@Z 10020fd0 f i MoveMap.obj
 0001:00020000       ??$distance@PA_W@std@@YAHPA_W0@Z 10021000 f i MoveMap.obj
 0001:00020020       ??$emplace@U?$pair@IPAUMMapData@MMAP@@@std@@@?$_Hash@V?$_Umap_traits@IPAUMMapData@MMAP@@V?$_Uhash_compare@IU?$hash@I@std@@U?$equal_to@I@2@@std@@V?$allocator@U?$pair@$$CBIPAUMMapData@MMAP@@@std@@@4@$0A@@std@@@std@@QAE?AU?$pair@V?$_List_iterator@V?$_List_val@U?$_List_simple_types@U?$pair@$$CBIPAUMMapData@MMAP@@@std@@@std@@@std@@@std@@_N@1@$$QAU?$pair@IPAUMMapData@MMAP@@@1@@Z 10021020 f i MoveMap.obj
 0001:00020250       ??$emplace@U?$pair@IPAVdtNavMeshQuery@@@std@@@?$_Hash@V?$_Umap_traits@IPAVdtNavMeshQuery@@V?$_Uhash_compare@IU?$hash@I@std@@U?$equal_to@I@2@@std@@V?$allocator@U?$pair@$$CBIPAVdtNavMeshQuery@@@std@@@3@$0A@@std@@@std@@QAE?AU?$pair@V?$_List_iterator@V?$_List_val@U?$_List_simple_types@U?$pair@$$CBIPAVdtNavMeshQuery@@@std@@@std@@@std@@@std@@_N@1@$$QAU?$pair@IPAVdtNavMeshQuery@@@1@@Z 10021250 f i MoveMap.obj
 0001:00020480       ??$emplace@U?$pair@I_K@std@@@?$_Hash@V?$_Umap_traits@I_KV?$_Uhash_compare@IU?$hash@I@std@@U?$equal_to@I@2@@std@@V?$allocator@U?$pair@$$CBI_K@std@@@2@$0A@@std@@@std@@QAE?AU?$pair@V?$_List_iterator@V?$_List_val@U?$_List_simple_types@U?$pair@$$CBI_K@std@@@std@@@std@@@std@@_N@1@$$QAU?$pair@I_K@1@@Z 10021480 f i MoveMap.obj
 0001:000206b0       ??$exchange@PAU?$_List_node@U?$pair@$$CBIPAUMMapData@MMAP@@@std@@PAX@std@@$$T@std@@YAPAU?$_List_node@U?$pair@$$CBIPAUMMapData@MMAP@@@std@@PAX@0@AAPAU10@$$QA$$T@Z 100216b0 f i MoveMap.obj
 0001:000206b0       ??$exchange@PAU?$_List_node@U?$pair@$$CBIPAVdtNavMeshQuery@@@std@@PAX@std@@$$T@std@@YAPAU?$_List_node@U?$pair@$$CBIPAVdtNavMeshQuery@@@std@@PAX@0@AAPAU10@$$QA$$T@Z 100216b0 f i MoveMap.obj
 0001:000206b0       ??$exchange@PAU?$_List_node@U?$pair@$$CBI_K@std@@PAX@std@@$$T@std@@YAPAU?$_List_node@U?$pair@$$CBI_K@std@@PAX@0@AAPAU10@$$QA$$T@Z 100216b0 f i MoveMap.obj
 0001:000206f0       ??$fill@PAV?$_List_unchecked_iterator@V?$_List_val@U?$_List_simple_types@U?$pair@$$CBIPAUMMapData@MMAP@@@std@@@std@@@std@@@std@@V12@@std@@YAXQAV?$_List_unchecked_iterator@V?$_List_val@U?$_List_simple_types@U?$pair@$$CBIPAUMMapData@MMAP@@@std@@@std@@@std@@@0@0ABV10@@Z 100216f0 f i MoveMap.obj
 0001:000206f0       ??$fill@PAV?$_List_unchecked_iterator@V?$_List_val@U?$_List_simple_types@U?$pair@$$CBIPAVdtNavMeshQuery@@@std@@@std@@@std@@@std@@V12@@std@@YAXQAV?$_List_unchecked_iterator@V?$_List_val@U?$_List_simple_types@U?$pair@$$CBIPAVdtNavMeshQuery@@@std@@@std@@@std@@@0@0ABV10@@Z 100216f0 f i MoveMap.obj
 0001:000206f0       ??$fill@PAV?$_List_unchecked_iterator@V?$_List_val@U?$_List_simple_types@U?$pair@$$CBI_K@std@@@std@@@std@@@std@@V12@@std@@YAXQAV?$_List_unchecked_iterator@V?$_List_val@U?$_List_simple_types@U?$pair@$$CBI_K@std@@@std@@@std@@@0@0ABV10@@Z 100216f0 f i MoveMap.obj
 0001:00020770       ??$forward_as_tuple@$$V@std@@YA?AV?$tuple@$$V@0@XZ 10021770 f i MoveMap.obj
 0001:00020790       ??$forward_as_tuple@ABI@std@@YA?AV?$tuple@ABI@0@ABI@Z 10021790 f i MoveMap.obj
 0001:000207c0       ??$insert@U?$pair@IPAUMMapData@MMAP@@@std@@$0A@@?$unordered_map@IPAUMMapData@MMAP@@U?$hash@I@std@@U?$equal_to@I@4@V?$allocator@U?$pair@$$CBIPAUMMapData@MMAP@@@std@@@4@@std@@QAE?AU?$pair@V?$_List_iterator@V?$_List_val@U?$_List_simple_types@U?$pair@$$CBIPAUMMapData@MMAP@@@std@@@std@@@std@@@std@@_N@1@$$QAU?$pair@IPAUMMapData@MMAP@@@1@@Z 100217c0 f i MoveMap.obj
 0001:00020820       ??$insert@U?$pair@IPAVdtNavMeshQuery@@@std@@$0A@@?$unordered_map@IPAVdtNavMeshQuery@@U?$hash@I@std@@U?$equal_to@I@3@V?$allocator@U?$pair@$$CBIPAVdtNavMeshQuery@@@std@@@3@@std@@QAE?AU?$pair@V?$_List_iterator@V?$_List_val@U?$_List_simple_types@U?$pair@$$CBIPAVdtNavMeshQuery@@@std@@@std@@@std@@@std@@_N@1@$$QAU?$pair@IPAVdtNavMeshQuery@@@1@@Z 10021820 f i MoveMap.obj
 0001:00020880       ??$insert@U?$pair@I_K@std@@$0A@@?$unordered_map@I_KU?$hash@I@std@@U?$equal_to@I@2@V?$allocator@U?$pair@$$CBI_K@std@@@2@@std@@QAE?AU?$pair@V?$_List_iterator@V?$_List_val@U?$_List_simple_types@U?$pair@$$CBI_K@std@@@std@@@std@@@std@@_N@1@$$QAU?$pair@I_K@1@@Z 10021880 f i MoveMap.obj
 0001:000208e0       ??$max@I@std@@YAABIABI0@Z  100218e0 f i MoveMap.obj
 0001:000208e0       ??$max@PAD@std@@YAABQADABQAD0@Z 100218e0 f i MoveMap.obj
 0001:00020930       ??$uninitialized_fill@PAV?$_List_unchecked_iterator@V?$_List_val@U?$_List_simple_types@U?$pair@$$CBIPAUMMapData@MMAP@@@std@@@std@@@std@@@std@@V12@@std@@YAXQAV?$_List_unchecked_iterator@V?$_List_val@U?$_List_simple_types@U?$pair@$$CBIPAUMMapData@MMAP@@@std@@@std@@@std@@@0@0ABV10@@Z 10021930 f i MoveMap.obj
 0001:00020930       ??$uninitialized_fill@PAV?$_List_unchecked_iterator@V?$_List_val@U?$_List_simple_types@U?$pair@$$CBIPAVdtNavMeshQuery@@@std@@@std@@@std@@@std@@V12@@std@@YAXQAV?$_List_unchecked_iterator@V?$_List_val@U?$_List_simple_types@U?$pair@$$CBIPAVdtNavMeshQuery@@@std@@@std@@@std@@@0@0ABV10@@Z 10021930 f i MoveMap.obj
 0001:00020930       ??$uninitialized_fill@PAV?$_List_unchecked_iterator@V?$_List_val@U?$_List_simple_types@U?$pair@$$CBI_K@std@@@std@@@std@@@std@@V12@@std@@YAXQAV?$_List_unchecked_iterator@V?$_List_val@U?$_List_simple_types@U?$pair@$$CBI_K@std@@@std@@@std@@@0@0ABV10@@Z 10021930 f i MoveMap.obj
 0001:00020a40       ??0?$_Alloc_construct_ptr@V?$allocator@U?$_List_node@U?$pair@$$CBIPAUMMapData@MMAP@@@std@@PAX@std@@@std@@@std@@QAE@AAV?$allocator@U?$_List_node@U?$pair@$$CBIPAUMMapData@MMAP@@@std@@PAX@std@@@1@@Z 10021a40 f i MoveMap.obj
 0001:00020a40       ??0?$_Alloc_construct_ptr@V?$allocator@U?$_List_node@U?$pair@$$CBIPAVdtNavMeshQuery@@@std@@PAX@std@@@std@@@std@@QAE@AAV?$allocator@U?$_List_node@U?$pair@$$CBIPAVdtNavMeshQuery@@@std@@PAX@std@@@1@@Z 10021a40 f i MoveMap.obj
 0001:00020a40       ??0?$_Alloc_construct_ptr@V?$allocator@U?$_List_node@U?$pair@$$CBI_K@std@@PAX@std@@@std@@@std@@QAE@AAV?$allocator@U?$_List_node@U?$pair@$$CBI_K@std@@PAX@std@@@1@@Z 10021a40 f i MoveMap.obj
 0001:00020a80       ??0?$_Hash@V?$_Umap_traits@IPAUMMapData@MMAP@@V?$_Uhash_compare@IU?$hash@I@std@@U?$equal_to@I@2@@std@@V?$allocator@U?$pair@$$CBIPAUMMapData@MMAP@@@std@@@4@$0A@@std@@@std@@IAE@ABV?$_Uhash_compare@IU?$hash@I@std@@U?$equal_to@I@2@@1@ABV?$allocator@U?$pair@$$CBIPAUMMapData@MMAP@@@std@@@1@@Z 10021a80 f i MoveMap.obj
 0001:00020b90       ??0?$_Hash@V?$_Umap_traits@IPAVdtNavMeshQuery@@V?$_Uhash_compare@IU?$hash@I@std@@U?$equal_to@I@2@@std@@V?$allocator@U?$pair@$$CBIPAVdtNavMeshQuery@@@std@@@3@$0A@@std@@@std@@IAE@ABV?$_Uhash_compare@IU?$hash@I@std@@U?$equal_to@I@2@@1@ABV?$allocator@U?$pair@$$CBIPAVdtNavMeshQuery@@@std@@@1@@Z 10021b90 f i MoveMap.obj
 0001:00020ca0       ??0?$_Hash@V?$_Umap_traits@I_KV?$_Uhash_compare@IU?$hash@I@std@@U?$equal_to@I@2@@std@@V?$allocator@U?$pair@$$CBI_K@std@@@2@$0A@@std@@@std@@IAE@ABV?$_Uhash_compare@IU?$hash@I@std@@U?$equal_to@I@2@@1@ABV?$allocator@U?$pair@$$CBI_K@std@@@1@@Z 10021ca0 f i MoveMap.obj
 0001:00020db0       ??0?$_List_const_iterator@V?$_List_val@U?$_List_simple_types@U?$pair@$$CBIPAUMMapData@MMAP@@@std@@@std@@@std@@@std@@QAE@$$QAV01@@Z 10021db0 f i MoveMap.obj
 0001:00020db0       ??0?$_List_const_iterator@V?$_List_val@U?$_List_simple_types@U?$pair@$$CBIPAVdtNavMeshQuery@@@std@@@std@@@std@@@std@@QAE@$$QAV01@@Z 10021db0 f i MoveMap.obj
 0001:00020db0       ??0?$_List_const_iterator@V?$_List_val@U?$_List_simple_types@U?$pair@$$CBI_K@std@@@std@@@std@@@std@@QAE@$$QAV01@@Z 10021db0 f i MoveMap.obj
 0001:00020db0       ??0?$_Tree_const_iterator@V?$_Tree_val@U?$_Tree_simple_types@U?$pair@$$CBHPAVdtPathCorridor@@@std@@@std@@@std@@@std@@QAE@ABV01@@Z 10021db0 f i NavBridge.obj
 0001:00020db0       ??0?$_Tree_const_iterator@V?$_Tree_val@U?$_Tree_simple_types@U?$pair@$$CBUTileKey@Navigation@@_K@std@@@std@@@std@@@std@@QAE@ABV01@@Z 10021db0 f i Navigation.obj
 0001:00020db0       ??0?$_Vector_iterator@V?$_Vector_val@U?$_Simple_types@VVector3@G3D@@@std@@@std@@@std@@QAE@ABV01@@Z 10021db0 f i PathFinder.obj
 0001:00020db0       ??0?$_Vector_iterator@V?$_Vector_val@U?$_Simple_types@_K@std@@@std@@@std@@QAE@ABV01@@Z 10021db0 f i PathFinder.obj
 0001:00020de0       ??0?$_List_const_iterator@V?$_List_val@U?$_List_simple_types@U?$pair@$$CBIPAUMMapData@MMAP@@@std@@@std@@@std@@@std@@QAE@PAU?$_List_node@U?$pair@$$CBIPAUMMapData@MMAP@@@std@@PAX@1@PBV?$_List_val@U?$_List_simple_types@U?$pair@$$CBIPAUMMapData@MMAP@@@std@@@std@@@1@@Z 10021de0 f i MoveMap.obj
 0001:00020de0       ??0?$_List_const_iterator@V?$_List_val@U?$_List_simple_types@U?$pair@$$CBIPAVdtNavMeshQuery@@@std@@@std@@@std@@@std@@QAE@PAU?$_List_node@U?$pair@$$CBIPAVdtNavMeshQuery@@@std@@PAX@1@PBV?$_List_val@U?$_List_simple_types@U?$pair@$$CBIPAVdtNavMeshQuery@@@std@@@std@@@1@@Z 10021de0 f i MoveMap.obj
 0001:00020de0       ??0?$_List_const_iterator@V?$_List_val@U?$_List_simple_types@U?$pair@$$CBI_K@std@@@std@@@std@@@std@@QAE@PAU?$_List_node@U?$pair@$$CBI_K@std@@PAX@1@PBV?$_List_val@U?$_List_simple_types@U?$pair@$$CBI_K@std@@@std@@@1@@Z 10021de0 f i MoveMap.obj
 0001:00020e20       ??0?$_List_iterator@V?$_List_val@U?$_List_simple_types@U?$pair@$$CBIPAUMMapData@MMAP@@@std@@@std@@@std@@@std@@QAE@$$QAV01@@Z 10021e20 f i MoveMap.obj
 0001:00020e20       ??0?$_List_iterator@V?$_List_val@U?$_List_simple_types@U?$pair@$$CBIPAVdtNavMeshQuery@@@std@@@std@@@std@@@std@@QAE@$$QAV01@@Z 10021e20 f i MoveMap.obj
 0001:00020e20       ??0?$_List_iterator@V?$_List_val@U?$_List_simple_types@U?$pair@$$CBI_K@std@@@std@@@std@@@std@@QAE@$$QAV01@@Z 10021e20 f i MoveMap.obj
 0001:00020e20       ??0?$_Tree_iterator@V?$_Tree_val@U?$_Tree_simple_types@U?$pair@$$CBHPAVdtPathCorridor@@@std@@@std@@@std@@@std@@QAE@ABV01@@Z 10021e20 f i NavBridge.obj
 0001:00020e20       ??0?$_Tree_iterator@V?$_Tree_val@U?$_Tree_simple_types@U?$pair@$$CBUTileKey@Navigation@@_K@std@@@std@@@std@@@std@@QAE@ABV01@@Z 10021e20 f i Navigation.obj
 0001:00020e50       ??0?$_List_iterator@V?$_List_val@U?$_List_simple_types@U?$pair@$$CBIPAUMMapData@MMAP@@@std@@@std@@@std@@@std@@QAE@PAU?$_List_node@U?$pair@$$CBIPAUMMapData@MMAP@@@std@@PAX@1@PBV?$_List_val@U?$_List_simple_types@U?$pair@$$CBIPAUMMapData@MMAP@@@std@@@std@@@1@@Z 10021e50 f i MoveMap.obj
 0001:00020e50       ??0?$_List_iterator@V?$_List_val@U?$_List_simple_types@U?$pair@$$CBIPAVdtNavMeshQuery@@@std@@@std@@@std@@@std@@QAE@PAU?$_List_node@U?$pair@$$CBIPAVdtNavMeshQuery@@@std@@PAX@1@PBV?$_List_val@U?$_List_simple_types@U?$pair@$$CBIPAVdtNavMeshQuery@@@std@@@std@@@1@@Z 10021e50 f i MoveMap.obj
 0001:00020e50       ??0?$_List_iterator@V?$_List_val@U?$_List_simple_types@U?$pair@$$CBI_K@std@@@std@@@std@@@std@@QAE@PAU?$_List_node@U?$pair@$$CBI_K@std@@PAX@1@PBV?$_List_val@U?$_List_simple_types@U?$pair@$$CBI_K@std@@@std@@@1@@Z 10021e50 f i MoveMap.obj
 0001:00020e90       ??0?$_List_unchecked_const_iterator@V?$_List_val@U?$_List_simple_types@U?$pair@$$CBIPAUMMapData@MMAP@@@std@@@std@@@std@@U_Iterator_base0@2@@std@@QAE@PAU?$_List_node@U?$pair@$$CBIPAUMMapData@MMAP@@@std@@PAX@1@PBV?$_List_val@U?$_List_simple_types@U?$pair@$$CBIPAUMMapData@MMAP@@@std@@@std@@@1@@Z 10021e90 f i MoveMap.obj
 0001:00020e90       ??0?$_List_unchecked_const_iterator@V?$_List_val@U?$_List_simple_types@U?$pair@$$CBIPAVdtNavMeshQuery@@@std@@@std@@@std@@U_Iterator_base0@2@@std@@QAE@PAU?$_List_node@U?$pair@$$CBIPAVdtNavMeshQuery@@@std@@PAX@1@PBV?$_List_val@U?$_List_simple_types@U?$pair@$$CBIPAVdtNavMeshQuery@@@std@@@std@@@1@@Z 10021e90 f i MoveMap.obj
 0001:00020e90       ??0?$_List_unchecked_const_iterator@V?$_List_val@U?$_List_simple_types@U?$pair@$$CBI_K@std@@@std@@@std@@U_Iterator_base0@2@@std@@QAE@PAU?$_List_node@U?$pair@$$CBI_K@std@@PAX@1@PBV?$_List_val@U?$_List_simple_types@U?$pair@$$CBI_K@std@@@std@@@1@@Z 10021e90 f i MoveMap.obj
 0001:00020ed0       ??0?$_List_unchecked_const_iterator@V?$_List_val@U?$_List_simple_types@U?$pair@$$CBIPAUMMapData@MMAP@@@std@@@std@@@std@@U_Iterator_base12@2@@std@@QAE@$$QAV01@@Z 10021ed0 f i MoveMap.obj
 0001:00020ed0       ??0?$_List_unchecked_const_iterator@V?$_List_val@U?$_List_simple_types@U?$pair@$$CBIPAVdtNavMeshQuery@@@std@@@std@@@std@@U_Iterator_base12@2@@std@@QAE@$$QAV01@@Z 10021ed0 f i MoveMap.obj
 0001:00020ed0       ??0?$_List_unchecked_const_iterator@V?$_List_val@U?$_List_simple_types@U?$pair@$$CBI_K@std@@@std@@@std@@U_Iterator_base12@2@@std@@QAE@$$QAV01@@Z 10021ed0 f i MoveMap.obj
 0001:00020ed0       ??0?$_Tree_unchecked_const_iterator@V?$_Tree_val@U?$_Tree_simple_types@U?$pair@$$CBHPAVdtPathCorridor@@@std@@@std@@@std@@U_Iterator_base12@2@@std@@QAE@ABV01@@Z 10021ed0 f i NavBridge.obj
 0001:00020ed0       ??0?$_Tree_unchecked_const_iterator@V?$_Tree_val@U?$_Tree_simple_types@U?$pair@$$CBUTileKey@Navigation@@_K@std@@@std@@@std@@U_Iterator_base12@2@@std@@QAE@ABV01@@Z 10021ed0 f i Navigation.obj
 0001:00020ed0       ??0?$_Vector_const_iterator@V?$_Vector_val@U?$_Simple_types@VVector3@G3D@@@std@@@std@@@std@@QAE@$$QAV01@@Z 10021ed0 f i PathFinder.obj
 0001:00020ed0       ??0?$_Vector_const_iterator@V?$_Vector_val@U?$_Simple_types@VVector3@G3D@@@std@@@std@@@std@@QAE@ABV01@@Z 10021ed0 f i PathFinder.obj
 0001:00020ed0       ??0?$_Vector_const_iterator@V?$_Vector_val@U?$_Simple_types@_K@std@@@std@@@std@@QAE@ABV01@@Z 10021ed0 f i PathFinder.obj
 0001:00020f10       ??0?$_List_unchecked_const_iterator@V?$_List_val@U?$_List_simple_types@U?$pair@$$CBIPAUMMapData@MMAP@@@std@@@std@@@std@@U_Iterator_base12@2@@std@@QAE@PAU?$_List_node@U?$pair@$$CBIPAUMMapData@MMAP@@@std@@PAX@1@PBV?$_List_val@U?$_List_simple_types@U?$pair@$$CBIPAUMMapData@MMAP@@@std@@@std@@@1@@Z 10021f10 f i MoveMap.obj
 0001:00020f10       ??0?$_List_unchecked_const_iterator@V?$_List_val@U?$_List_simple_types@U?$pair@$$CBIPAVdtNavMeshQuery@@@std@@@std@@@std@@U_Iterator_base12@2@@std@@QAE@PAU?$_List_node@U?$pair@$$CBIPAVdtNavMeshQuery@@@std@@PAX@1@PBV?$_List_val@U?$_List_simple_types@U?$pair@$$CBIPAVdtNavMeshQuery@@@std@@@std@@@1@@Z 10021f10 f i MoveMap.obj
 0001:00020f10       ??0?$_List_unchecked_const_iterator@V?$_List_val@U?$_List_simple_types@U?$pair@$$CBI_K@std@@@std@@@std@@U_Iterator_base12@2@@std@@QAE@PAU?$_List_node@U?$pair@$$CBI_K@std@@PAX@1@PBV?$_List_val@U?$_List_simple_types@U?$pair@$$CBI_K@std@@@std@@@1@@Z 10021f10 f i MoveMap.obj
 0001:00020f60       ??0?$_List_unchecked_iterator@V?$_List_val@U?$_List_simple_types@U?$pair@$$CBIPAUMMapData@MMAP@@@std@@@std@@@std@@@std@@QAE@PAU?$_List_node@U?$pair@$$CBIPAUMMapData@MMAP@@@std@@PAX@1@PBV?$_List_val@U?$_List_simple_types@U?$pair@$$CBIPAUMMapData@MMAP@@@std@@@std@@@1@@Z 10021f60 f i MoveMap.obj
 0001:00020f60       ??0?$_List_unchecked_iterator@V?$_List_val@U?$_List_simple_types@U?$pair@$$CBIPAVdtNavMeshQuery@@@std@@@std@@@std@@@std@@QAE@PAU?$_List_node@U?$pair@$$CBIPAVdtNavMeshQuery@@@std@@PAX@1@PBV?$_List_val@U?$_List_simple_types@U?$pair@$$CBIPAVdtNavMeshQuery@@@std@@@std@@@1@@Z 10021f60 f i MoveMap.obj
 0001:00020f60       ??0?$_List_unchecked_iterator@V?$_List_val@U?$_List_simple_types@U?$pair@$$CBI_K@std@@@std@@@std@@@std@@QAE@PAU?$_List_node@U?$pair@$$CBI_K@std@@PAX@1@PBV?$_List_val@U?$_List_simple_types@U?$pair@$$CBI_K@std@@@std@@@1@@Z 10021f60 f i MoveMap.obj
 0001:00020fa0       ??0?$_List_val@U?$_List_simple_types@U?$pair@$$CBIPAUMMapData@MMAP@@@std@@@std@@@std@@QAE@XZ 10021fa0 f i MoveMap.obj
 0001:00020fa0       ??0?$_List_val@U?$_List_simple_types@U?$pair@$$CBIPAVdtNavMeshQuery@@@std@@@std@@@std@@QAE@XZ 10021fa0 f i MoveMap.obj
 0001:00020fa0       ??0?$_List_val@U?$_List_simple_types@U?$pair@$$CBI_K@std@@@std@@@std@@QAE@XZ 10021fa0 f i MoveMap.obj
 0001:00021000       ??0?$_String_const_iterator@V?$_String_val@U?$_Simple_types@_W@std@@@std@@@std@@QAE@PB_WPBU_Container_base12@1@@Z 10022000 f i MoveMap.obj
 0001:00021050       ??0?$_String_iterator@V?$_String_val@U?$_Simple_types@_W@std@@@std@@@std@@QAE@PB_WPBU_Container_base12@1@@Z 10022050 f i MoveMap.obj
 0001:00021090       ??0?$_String_val@U?$_Simple_types@D@std@@@std@@QAE@XZ 10022090 f i MoveMap.obj
 0001:00021090       ??0?$_String_val@U?$_Simple_types@_W@std@@@std@@QAE@XZ 10022090 f i MoveMap.obj
 0001:000210e0       ??0?$_Uhash_compare@IU?$hash@I@std@@U?$equal_to@I@2@@std@@QAE@XZ 100220e0 f i MoveMap.obj
 0001:00021140       ??0?$_Umap_traits@IPAUMMapData@MMAP@@V?$_Uhash_compare@IU?$hash@I@std@@U?$equal_to@I@2@@std@@V?$allocator@U?$pair@$$CBIPAUMMapData@MMAP@@@std@@@4@$0A@@std@@QAE@ABV?$_Uhash_compare@IU?$hash@I@std@@U?$equal_to@I@2@@1@@Z 10022140 f i MoveMap.obj
 0001:00021140       ??0?$_Umap_traits@IPAVdtNavMeshQuery@@V?$_Uhash_compare@IU?$hash@I@std@@U?$equal_to@I@2@@std@@V?$allocator@U?$pair@$$CBIPAVdtNavMeshQuery@@@std@@@3@$0A@@std@@QAE@ABV?$_Uhash_compare@IU?$hash@I@std@@U?$equal_to@I@2@@1@@Z 10022140 f i MoveMap.obj
 0001:00021140       ??0?$_Umap_traits@I_KV?$_Uhash_compare@IU?$hash@I@std@@U?$equal_to@I@2@@std@@V?$allocator@U?$pair@$$CBI_K@std@@@2@$0A@@std@@QAE@ABV?$_Uhash_compare@IU?$hash@I@std@@U?$equal_to@I@2@@1@@Z 10022140 f i MoveMap.obj
 0001:00021180       ??0?$_Uninitialized_backout@PAV?$_List_unchecked_iterator@V?$_List_val@U?$_List_simple_types@U?$pair@$$CBIPAUMMapData@MMAP@@@std@@@std@@@std@@@std@@@std@@QAE@PAV?$_List_unchecked_iterator@V?$_List_val@U?$_List_simple_types@U?$pair@$$CBIPAUMMapData@MMAP@@@std@@@std@@@std@@@1@@Z 10022180 f i MoveMap.obj
 0001:00021180       ??0?$_Uninitialized_backout@PAV?$_List_unchecked_iterator@V?$_List_val@U?$_List_simple_types@U?$pair@$$CBIPAVdtNavMeshQuery@@@std@@@std@@@std@@@std@@@std@@QAE@PAV?$_List_unchecked_iterator@V?$_List_val@U?$_List_simple_types@U?$pair@$$CBIPAVdtNavMeshQuery@@@std@@@std@@@std@@@1@@Z 10022180 f i MoveMap.obj
 0001:00021180       ??0?$_Uninitialized_backout@PAV?$_List_unchecked_iterator@V?$_List_val@U?$_List_simple_types@U?$pair@$$CBI_K@std@@@std@@@std@@@std@@@std@@QAE@PAV?$_List_unchecked_iterator@V?$_List_val@U?$_List_simple_types@U?$pair@$$CBI_K@std@@@std@@@std@@@1@@Z 10022180 f i MoveMap.obj
 0001:000211c0       ??0?$_Vector_val@U?$_Simple_types@V?$_List_unchecked_iterator@V?$_List_val@U?$_List_simple_types@U?$pair@$$CBIPAUMMapData@MMAP@@@std@@@std@@@std@@@std@@@std@@@std@@QAE@XZ 100221c0 f i MoveMap.obj
 0001:000211c0       ??0?$_Vector_val@U?$_Simple_types@V?$_List_unchecked_iterator@V?$_List_val@U?$_List_simple_types@U?$pair@$$CBIPAVdtNavMeshQuery@@@std@@@std@@@std@@@std@@@std@@@std@@QAE@XZ 100221c0 f i MoveMap.obj
 0001:000211c0       ??0?$_Vector_val@U?$_Simple_types@V?$_List_unchecked_iterator@V?$_List_val@U?$_List_simple_types@U?$pair@$$CBI_K@std@@@std@@@std@@@std@@@std@@@std@@QAE@XZ 100221c0 f i MoveMap.obj
 0001:00021210       ??0?$allocator@D@std@@QAE@XZ 10022210 f i MoveMap.obj
 0001:00021210       ??0?$allocator@U?$pair@$$CBIPAUMMapData@MMAP@@@std@@@std@@QAE@XZ 10022210 f i MoveMap.obj
 0001:00021210       ??0?$allocator@U?$pair@$$CBIPAVdtNavMeshQuery@@@std@@@std@@QAE@XZ 10022210 f i MoveMap.obj
 0001:00021210       ??0?$allocator@U?$pair@$$CBI_K@std@@@std@@QAE@XZ 10022210 f i MoveMap.obj
 0001:00021210       ??0?$allocator@_W@std@@QAE@XZ 10022210 f i MoveMap.obj
 0001:00021240       ??0?$basic_ostringstream@DU?$char_traits@D@std@@V?$allocator@D@2@@std@@QAE@XZ 10022240 f i MoveMap.obj
 0001:00021360       ??0?$basic_string@DU?$char_traits@D@std@@V?$allocator@D@2@@std@@QAE@ABV01@@Z 10022360 f i MoveMap.obj
 0001:00021430       ??0?$basic_string@DU?$char_traits@D@std@@V?$allocator@D@2@@std@@QAE@ABV01@IIABV?$allocator@D@1@@Z 10022430 f i MoveMap.obj
 0001:00021510       ??0?$basic_string@DU?$char_traits@D@std@@V?$allocator@D@2@@std@@QAE@ABV?$allocator@D@1@@Z 10022510 f i MoveMap.obj
 0001:000215a0       ??0?$basic_string@DU?$char_traits@D@std@@V?$allocator@D@2@@std@@QAE@QBD@Z 100225a0 f i MoveMap.obj
 0001:00021650       ??0?$basic_string@_WU?$char_traits@_W@std@@V?$allocator@_W@2@@std@@QAE@QB_W@Z 10022650 f i MoveMap.obj
 0001:00021700       ??0?$basic_stringbuf@DU?$char_traits@D@std@@V?$allocator@D@2@@std@@QAE@H@Z 10022700 f i MoveMap.obj
 0001:00021770       ??0?$fpos@U_Mbstatet@@@std@@QAE@_J@Z 10022770 f i MoveMap.obj
 0001:000217d0       ??0?$list@U?$pair@$$CBIPAUMMapData@MMAP@@@std@@V?$allocator@U?$pair@$$CBIPAUMMapData@MMAP@@@std@@@2@@std@@QAE@ABV?$allocator@U?$pair@$$CBIPAUMMapData@MMAP@@@std@@@1@@Z 100227d0 f i MoveMap.obj
 0001:00021830       ??0?$list@U?$pair@$$CBIPAVdtNavMeshQuery@@@std@@V?$allocator@U?$pair@$$CBIPAVdtNavMeshQuery@@@std@@@2@@std@@QAE@ABV?$allocator@U?$pair@$$CBIPAVdtNavMeshQuery@@@std@@@1@@Z 10022830 f i MoveMap.obj
 0001:00021890       ??0?$list@U?$pair@$$CBI_K@std@@V?$allocator@U?$pair@$$CBI_K@std@@@2@@std@@QAE@ABV?$allocator@U?$pair@$$CBI_K@std@@@1@@Z 10022890 f i MoveMap.obj
 0001:000218f0       ??0?$tuple@ABI@std@@QAE@$$QAV01@@Z 100228f0 f i MoveMap.obj
 0001:00021940       ??0?$unordered_map@IPAUMMapData@MMAP@@U?$hash@I@std@@U?$equal_to@I@4@V?$allocator@U?$pair@$$CBIPAUMMapData@MMAP@@@std@@@4@@std@@QAE@XZ 10022940 f i MoveMap.obj
 0001:000219a0       ??0?$unordered_map@IPAVdtNavMeshQuery@@U?$hash@I@std@@U?$equal_to@I@3@V?$allocator@U?$pair@$$CBIPAVdtNavMeshQuery@@@std@@@3@@std@@QAE@XZ 100229a0 f i MoveMap.obj
 0001:00021a00       ??0?$unordered_map@I_KU?$hash@I@std@@U?$equal_to@I@2@V?$allocator@U?$pair@$$CBI_K@std@@@2@@std@@QAE@XZ 10022a00 f i MoveMap.obj
 0001:00021a60       ??0MMapData@MMAP@@QAE@PAVdtNavMesh@@@Z 10022a60 f i MoveMap.obj
 0001:00021af0       ??0MMapManager@MMAP@@QAE@XZ 10022af0 f i MoveMap.obj
 0001:00021b30       ??0MmapTileHeader@@QAE@XZ  10022b30 f i MoveMap.obj
 0001:00021b90       ??0_Bxty@?$_String_val@U?$_Simple_types@D@std@@@std@@QAE@XZ 10022b90 f i MoveMap.obj
 0001:00021b90       ??0_Bxty@?$_String_val@U?$_Simple_types@_W@std@@@std@@QAE@XZ 10022b90 f i MoveMap.obj
 0001:00021bd0       ??0_Clear_guard@?$_Hash@V?$_Umap_traits@IPAUMMapData@MMAP@@V?$_Uhash_compare@IU?$hash@I@std@@U?$equal_to@I@2@@std@@V?$allocator@U?$pair@$$CBIPAUMMapData@MMAP@@@std@@@4@$0A@@std@@@std@@QAE@QAV12@@Z 10022bd0 f i MoveMap.obj
 0001:00021bd0       ??0_Clear_guard@?$_Hash@V?$_Umap_traits@IPAVdtNavMeshQuery@@V?$_Uhash_compare@IU?$hash@I@std@@U?$equal_to@I@2@@std@@V?$allocator@U?$pair@$$CBIPAVdtNavMeshQuery@@@std@@@3@$0A@@std@@@std@@QAE@QAV12@@Z 10022bd0 f i MoveMap.obj
 0001:00021bd0       ??0_Clear_guard@?$_Hash@V?$_Umap_traits@I_KV?$_Uhash_compare@IU?$hash@I@std@@U?$equal_to@I@2@@std@@V?$allocator@U?$pair@$$CBI_K@std@@@2@$0A@@std@@@std@@QAE@QAV12@@Z 10022bd0 f i MoveMap.obj
 0001:00021c10       ??0_Iterator_base12@std@@QAE@ABU01@@Z 10022c10 f i MoveMap.obj
 0001:00021c60       ??0_Iterator_base12@std@@QAE@XZ 10022c60 f i MoveMap.obj
 0001:00021ca0       ??0_Range_eraser@?$_Hash@V?$_Umap_traits@IPAUMMapData@MMAP@@V?$_Uhash_compare@IU?$hash@I@std@@U?$equal_to@I@2@@std@@V?$allocator@U?$pair@$$CBIPAUMMapData@MMAP@@@std@@@4@$0A@@std@@@std@@QAE@AAV?$list@U?$pair@$$CBIPAUMMapData@MMAP@@@std@@V?$allocator@U?$pair@$$CBIPAUMMapData@MMAP@@@std@@@2@@2@QAU?$_List_node@U?$pair@$$CBIPAUMMapData@MMAP@@@std@@PAX@2@@Z 10022ca0 f i MoveMap.obj
 0001:00021ca0       ??0_Range_eraser@?$_Hash@V?$_Umap_traits@IPAVdtNavMeshQuery@@V?$_Uhash_compare@IU?$hash@I@std@@U?$equal_to@I@2@@std@@V?$allocator@U?$pair@$$CBIPAVdtNavMeshQuery@@@std@@@3@$0A@@std@@@std@@QAE@AAV?$list@U?$pair@$$CBIPAVdtNavMeshQuery@@@std@@V?$allocator@U?$pair@$$CBIPAVdtNavMeshQuery@@@std@@@2@@2@QAU?$_List_node@U?$pair@$$CBIPAVdtNavMeshQuery@@@std@@PAX@2@@Z 10022ca0 f i MoveMap.obj
 0001:00021ca0       ??0_Range_eraser@?$_Hash@V?$_Umap_traits@I_KV?$_Uhash_compare@IU?$hash@I@std@@U?$equal_to@I@2@@std@@V?$allocator@U?$pair@$$CBI_K@std@@@2@$0A@@std@@@std@@QAE@AAV?$list@U?$pair@$$CBI_K@std@@V?$allocator@U?$pair@$$CBI_K@std@@@2@@2@QAU?$_List_node@U?$pair@$$CBI_K@std@@PAX@2@@Z 10022ca0 f i MoveMap.obj
 0001:00021cf0       ??1?$_Alloc_construct_ptr@V?$allocator@U?$_List_node@U?$pair@$$CBIPAUMMapData@MMAP@@@std@@PAX@std@@@std@@@std@@QAE@XZ 10022cf0 f i MoveMap.obj
 0001:00021cf0       ??1?$_Alloc_construct_ptr@V?$allocator@U?$_List_node@U?$pair@$$CBIPAVdtNavMeshQuery@@@std@@PAX@std@@@std@@@std@@QAE@XZ 10022cf0 f i MoveMap.obj
 0001:00021d50       ??1?$_Alloc_construct_ptr@V?$allocator@U?$_List_node@U?$pair@$$CBI_K@std@@PAX@std@@@std@@@std@@QAE@XZ 10022d50 f i MoveMap.obj
 0001:00021db0       ??1?$_Compressed_pair@V?$allocator@D@std@@V?$_String_val@U?$_Simple_types@D@std@@@2@$00@std@@QAE@XZ 10022db0 f i MoveMap.obj
 0001:00021db0       ??1?$_Compressed_pair@V?$allocator@_W@std@@V?$_String_val@U?$_Simple_types@_W@std@@@2@$00@std@@QAE@XZ 10022db0 f i MoveMap.obj
 0001:00021de0       ??1?$_Hash@V?$_Umap_traits@IPAUMMapData@MMAP@@V?$_Uhash_compare@IU?$hash@I@std@@U?$equal_to@I@2@@std@@V?$allocator@U?$pair@$$CBIPAUMMapData@MMAP@@@std@@@4@$0A@@std@@@std@@QAE@XZ 10022de0 f i MoveMap.obj
 0001:00021e20       ??1?$_Hash@V?$_Umap_traits@IPAVdtNavMeshQuery@@V?$_Uhash_compare@IU?$hash@I@std@@U?$equal_to@I@2@@std@@V?$allocator@U?$pair@$$CBIPAVdtNavMeshQuery@@@std@@@3@$0A@@std@@@std@@QAE@XZ 10022e20 f i MoveMap.obj
 0001:00021e60       ??1?$_Hash@V?$_Umap_traits@I_KV?$_Uhash_compare@IU?$hash@I@std@@U?$equal_to@I@2@@std@@V?$allocator@U?$pair@$$CBI_K@std@@@2@$0A@@std@@@std@@QAE@XZ 10022e60 f i MoveMap.obj
 0001:00021ea0       ??1?$_Hash_vec@V?$allocator@V?$_List_unchecked_iterator@V?$_List_val@U?$_List_simple_types@U?$pair@$$CBIPAUMMapData@MMAP@@@std@@@std@@@std@@@std@@@std@@@std@@QAE@XZ 10022ea0 f i MoveMap.obj
 0001:00021f60       ??1?$_Hash_vec@V?$allocator@V?$_List_unchecked_iterator@V?$_List_val@U?$_List_simple_types@U?$pair@$$CBIPAVdtNavMeshQuery@@@std@@@std@@@std@@@std@@@std@@@std@@QAE@XZ 10022f60 f i MoveMap.obj
 0001:00022020       ??1?$_Hash_vec@V?$allocator@V?$_List_unchecked_iterator@V?$_List_val@U?$_List_simple_types@U?$pair@$$CBI_K@std@@@std@@@std@@@std@@@std@@@std@@QAE@XZ 10023020 f i MoveMap.obj
 0001:000220e0       ??1?$_List_const_iterator@V?$_List_val@U?$_List_simple_types@U?$pair@$$CBIPAUMMapData@MMAP@@@std@@@std@@@std@@@std@@QAE@XZ 100230e0 f i MoveMap.obj
 0001:000220e0       ??1?$_List_const_iterator@V?$_List_val@U?$_List_simple_types@U?$pair@$$CBIPAVdtNavMeshQuery@@@std@@@std@@@std@@@std@@QAE@XZ 100230e0 f i MoveMap.obj
 0001:000220e0       ??1?$_List_const_iterator@V?$_List_val@U?$_List_simple_types@U?$pair@$$CBIVOffMeshConnectionSet@MMAP@@@std@@@std@@@std@@@std@@QAE@XZ 100230e0 f i OffMeshManager.obj
 0001:000220e0       ??1?$_List_const_iterator@V?$_List_val@U?$_List_simple_types@U?$pair@$$CBI_K@std@@@std@@@std@@@std@@QAE@XZ 100230e0 f i MoveMap.obj
 0001:000220e0       ??1?$_String_iterator@V?$_String_val@U?$_Simple_types@_W@std@@@std@@@std@@QAE@XZ 100230e0 f i MoveMap.obj
 0001:000220e0       ??1?$_Tree_const_iterator@V?$_Tree_val@U?$_Tree_simple_types@U?$pair@$$CBHPAVdtPathCorridor@@@std@@@std@@@std@@@std@@QAE@XZ 100230e0 f i NavBridge.obj
 0001:000220e0       ??1?$_Tree_const_iterator@V?$_Tree_val@U?$_Tree_simple_types@U?$pair@$$CBUTileKey@Navigation@@_K@std@@@std@@@std@@@std@@QAE@XZ 100230e0 f i Navigation.obj
 0001:000220e0       ??1?$_Vector_iterator@V?$_Vector_val@U?$_Simple_types@VVector3@G3D@@@std@@@std@@@std@@QAE@XZ 100230e0 f i PathFinder.obj
 0001:000220e0       ??1?$_Vector_iterator@V?$_Vector_val@U?$_Simple_types@_K@std@@@std@@@std@@QAE@XZ 100230e0 f i PathFinder.obj
 0001:00022110       ??1?$_List_iterator@V?$_List_val@U?$_List_simple_types@U?$pair@$$CBIPAUMMapData@MMAP@@@std@@@std@@@std@@@std@@QAE@XZ 10023110 f i MoveMap.obj
 0001:00022110       ??1?$_List_iterator@V?$_List_val@U?$_List_simple_types@U?$pair@$$CBIPAVdtNavMeshQuery@@@std@@@std@@@std@@@std@@QAE@XZ 10023110 f i MoveMap.obj
 0001:00022110       ??1?$_List_iterator@V?$_List_val@U?$_List_simple_types@U?$pair@$$CBI_K@std@@@std@@@std@@@std@@QAE@XZ 10023110 f i MoveMap.obj
 0001:00022110       ??1?$_Tree_iterator@V?$_Tree_val@U?$_Tree_simple_types@U?$pair@$$CBHPAVdtPathCorridor@@@std@@@std@@@std@@@std@@QAE@XZ 10023110 f i NavBridge.obj
 0001:00022110       ??1?$_Tree_iterator@V?$_Tree_val@U?$_Tree_simple_types@U?$pair@$$CBUTileKey@Navigation@@_K@std@@@std@@@std@@@std@@QAE@XZ 10023110 f i Navigation.obj
 0001:00022140       ??1?$_List_node_emplace_op2@V?$allocator@U?$_List_node@U?$pair@$$CBIPAUMMapData@MMAP@@@std@@PAX@std@@@std@@@std@@QAE@XZ 10023140 f i MoveMap.obj
 0001:00022140       ??1?$_List_node_emplace_op2@V?$allocator@U?$_List_node@U?$pair@$$CBIPAVdtNavMeshQuery@@@std@@PAX@std@@@std@@@std@@QAE@XZ 10023140 f i MoveMap.obj
 0001:000221f0       ??1?$_List_node_emplace_op2@V?$allocator@U?$_List_node@U?$pair@$$CBI_K@std@@PAX@std@@@std@@@std@@QAE@XZ 100231f0 f i MoveMap.obj
 0001:000222a0       ??1?$_List_unchecked_const_iterator@V?$_List_val@U?$_List_simple_types@U?$pair@$$CBIPAUMMapData@MMAP@@@std@@@std@@@std@@U_Iterator_base12@2@@std@@QAE@XZ 100232a0 f i MoveMap.obj
 0001:000222a0       ??1?$_List_unchecked_const_iterator@V?$_List_val@U?$_List_simple_types@U?$pair@$$CBIPAVdtNavMeshQuery@@@std@@@std@@@std@@U_Iterator_base12@2@@std@@QAE@XZ 100232a0 f i MoveMap.obj
 0001:000222a0       ??1?$_List_unchecked_const_iterator@V?$_List_val@U?$_List_simple_types@U?$pair@$$CBIVOffMeshConnectionSet@MMAP@@@std@@@std@@@std@@U_Iterator_base12@2@@std@@QAE@XZ 100232a0 f i OffMeshManager.obj
 0001:000222a0       ??1?$_List_unchecked_const_iterator@V?$_List_val@U?$_List_simple_types@U?$pair@$$CBI_K@std@@@std@@@std@@U_Iterator_base12@2@@std@@QAE@XZ 100232a0 f i MoveMap.obj
 0001:000222a0       ??1?$_String_const_iterator@V?$_String_val@U?$_Simple_types@_W@std@@@std@@@std@@QAE@XZ 100232a0 f i MoveMap.obj
 0001:000222a0       ??1?$_Tree_unchecked_const_iterator@V?$_Tree_val@U?$_Tree_simple_types@U?$pair@$$CBHPAVdtPathCorridor@@@std@@@std@@@std@@U_Iterator_base12@2@@std@@QAE@XZ 100232a0 f i NavBridge.obj
 0001:000222a0       ??1?$_Tree_unchecked_const_iterator@V?$_Tree_val@U?$_Tree_simple_types@U?$pair@$$CBUTileKey@Navigation@@_K@std@@@std@@@std@@U_Iterator_base12@2@@std@@QAE@XZ 100232a0 f i Navigation.obj
 0001:000222a0       ??1?$_Vector_const_iterator@V?$_Vector_val@U?$_Simple_types@VVector3@G3D@@@std@@@std@@@std@@QAE@XZ 100232a0 f i PathFinder.obj
 0001:000222a0       ??1?$_Vector_const_iterator@V?$_Vector_val@U?$_Simple_types@_K@std@@@std@@@std@@QAE@XZ 100232a0 f i PathFinder.obj
 0001:000222d0       ??1?$_String_val@U?$_Simple_types@D@std@@@std@@QAE@XZ 100232d0 f i MoveMap.obj
 0001:000222d0       ??1?$_String_val@U?$_Simple_types@_W@std@@@std@@QAE@XZ 100232d0 f i MoveMap.obj
 0001:00022300       ??1?$_Tidy_deallocate_guard@V?$basic_string@DU?$char_traits@D@std@@V?$allocator@D@2@@std@@@std@@QAE@XZ 10023300 f i MoveMap.obj
 0001:00022340       ??1?$_Uninitialized_backout@PAV?$_List_unchecked_iterator@V?$_List_val@U?$_List_simple_types@U?$pair@$$CBIPAUMMapData@MMAP@@@std@@@std@@@std@@@std@@@std@@QAE@XZ 10023340 f i MoveMap.obj
 0001:00022340       ??1?$_Uninitialized_backout@PAV?$_List_unchecked_iterator@V?$_List_val@U?$_List_simple_types@U?$pair@$$CBIPAVdtNavMeshQuery@@@std@@@std@@@std@@@std@@@std@@QAE@XZ 10023340 f i MoveMap.obj
 0001:00022340       ??1?$_Uninitialized_backout@PAV?$_List_unchecked_iterator@V?$_List_val@U?$_List_simple_types@U?$pair@$$CBI_K@std@@@std@@@std@@@std@@@std@@QAE@XZ 10023340 f i MoveMap.obj
 0001:00022380       ??1?$basic_ostringstream@DU?$char_traits@D@std@@V?$allocator@D@2@@std@@UAE@XZ 10023380 f i MoveMap.obj
 0001:00022400       ??1?$basic_string@DU?$char_traits@D@std@@V?$allocator@D@2@@std@@QAE@XZ 10023400 f i MoveMap.obj
 0001:000224d0       ??1?$basic_string@_WU?$char_traits@_W@std@@V?$allocator@_W@2@@std@@QAE@XZ 100234d0 f i MoveMap.obj
 0001:000225a0       ??1?$basic_stringbuf@DU?$char_traits@D@std@@V?$allocator@D@2@@std@@UAE@XZ 100235a0 f i MoveMap.obj
 0001:000225f0       ??1?$list@U?$pair@$$CBIPAUMMapData@MMAP@@@std@@V?$allocator@U?$pair@$$CBIPAUMMapData@MMAP@@@std@@@2@@std@@QAE@XZ 100235f0 f i MoveMap.obj
 0001:000226a0       ??1?$list@U?$pair@$$CBIPAVdtNavMeshQuery@@@std@@V?$allocator@U?$pair@$$CBIPAVdtNavMeshQuery@@@std@@@2@@std@@QAE@XZ 100236a0 f i MoveMap.obj
 0001:00022750       ??1?$list@U?$pair@$$CBI_K@std@@V?$allocator@U?$pair@$$CBI_K@std@@@2@@std@@QAE@XZ 10023750 f i MoveMap.obj
 0001:00022800       ??1?$pair@V?$_List_iterator@V?$_List_val@U?$_List_simple_types@U?$pair@$$CBIPAUMMapData@MMAP@@@std@@@std@@@std@@@std@@_N@std@@QAE@XZ 10023800 f i MoveMap.obj
 0001:00022800       ??1?$pair@V?$_List_iterator@V?$_List_val@U?$_List_simple_types@U?$pair@$$CBIPAVdtNavMeshQuery@@@std@@@std@@@std@@@std@@_N@std@@QAE@XZ 10023800 f i MoveMap.obj
 0001:00022800       ??1?$pair@V?$_List_iterator@V?$_List_val@U?$_List_simple_types@U?$pair@$$CBI_K@std@@@std@@@std@@@std@@_N@std@@QAE@XZ 10023800 f i MoveMap.obj
 0001:00022830       ??1?$unordered_map@IPAUMMapData@MMAP@@U?$hash@I@std@@U?$equal_to@I@4@V?$allocator@U?$pair@$$CBIPAUMMapData@MMAP@@@std@@@4@@std@@QAE@XZ 10023830 f i MoveMap.obj
 0001:00022860       ??1?$unordered_map@IPAVdtNavMeshQuery@@U?$hash@I@std@@U?$equal_to@I@3@V?$allocator@U?$pair@$$CBIPAVdtNavMeshQuery@@@std@@@3@@std@@QAE@XZ 10023860 f i MoveMap.obj
 0001:00022890       ??1?$unordered_map@I_KU?$hash@I@std@@U?$equal_to@I@2@V?$allocator@U?$pair@$$CBI_K@std@@@2@@std@@QAE@XZ 10023890 f i MoveMap.obj
 0001:000228c0       ??1MMapData@MMAP@@QAE@XZ   100238c0 f i MoveMap.obj
 0001:00022a20       ??1_Bxty@?$_String_val@U?$_Simple_types@D@std@@@std@@QAE@XZ 10023a20 f i MoveMap.obj
 0001:00022a20       ??1_Bxty@?$_String_val@U?$_Simple_types@_W@std@@@std@@QAE@XZ 10023a20 f i MoveMap.obj
 0001:00022a50       ??1_Clear_guard@?$_Hash@V?$_Umap_traits@IPAUMMapData@MMAP@@V?$_Uhash_compare@IU?$hash@I@std@@U?$equal_to@I@2@@std@@V?$allocator@U?$pair@$$CBIPAUMMapData@MMAP@@@std@@@4@$0A@@std@@@std@@QAE@XZ 10023a50 f i MoveMap.obj
 0001:00022a50       ??1_Clear_guard@?$_Hash@V?$_Umap_traits@IPAVdtNavMeshQuery@@V?$_Uhash_compare@IU?$hash@I@std@@U?$equal_to@I@2@@std@@V?$allocator@U?$pair@$$CBIPAVdtNavMeshQuery@@@std@@@3@$0A@@std@@@std@@QAE@XZ 10023a50 f i MoveMap.obj
 0001:00022a90       ??1_Clear_guard@?$_Hash@V?$_Umap_traits@I_KV?$_Uhash_compare@IU?$hash@I@std@@U?$equal_to@I@2@@std@@V?$allocator@U?$pair@$$CBI_K@std@@@2@$0A@@std@@@std@@QAE@XZ 10023a90 f i MoveMap.obj
 0001:00022ad0       ??1_Iterator_base12@std@@QAE@XZ 10023ad0 f i MoveMap.obj
 0001:00022b20       ??1_Range_eraser@?$_Hash@V?$_Umap_traits@IPAUMMapData@MMAP@@V?$_Uhash_compare@IU?$hash@I@std@@U?$equal_to@I@2@@std@@V?$allocator@U?$pair@$$CBIPAUMMapData@MMAP@@@std@@@4@$0A@@std@@@std@@QAE@XZ 10023b20 f i MoveMap.obj
 0001:00022b20       ??1_Range_eraser@?$_Hash@V?$_Umap_traits@IPAVdtNavMeshQuery@@V?$_Uhash_compare@IU?$hash@I@std@@U?$equal_to@I@2@@std@@V?$allocator@U?$pair@$$CBIPAVdtNavMeshQuery@@@std@@@3@$0A@@std@@@std@@QAE@XZ 10023b20 f i MoveMap.obj
 0001:00022b70       ??1_Range_eraser@?$_Hash@V?$_Umap_traits@I_KV?$_Uhash_compare@IU?$hash@I@std@@U?$equal_to@I@2@@std@@V?$allocator@U?$pair@$$CBI_K@std@@@2@$0A@@std@@@std@@QAE@XZ 10023b70 f i MoveMap.obj
 0001:00022bc0       ??4?$basic_string@DU?$char_traits@D@std@@V?$allocator@D@2@@std@@QAEAAV01@ABV01@@Z 10023bc0 f i MoveMap.obj
 0001:00022c60       ??4_Iterator_base12@std@@QAEAAU01@ABU01@@Z 10023c60 f i MoveMap.obj
 0001:00022cc0       ??8?$_List_const_iterator@V?$_List_val@U?$_List_simple_types@U?$pair@$$CBIPAUMMapData@MMAP@@@std@@@std@@@std@@@std@@QBE_NABV01@@Z 10023cc0 f i MoveMap.obj
 0001:00022cc0       ??8?$_List_const_iterator@V?$_List_val@U?$_List_simple_types@U?$pair@$$CBIPAVdtNavMeshQuery@@@std@@@std@@@std@@@std@@QBE_NABV01@@Z 10023cc0 f i MoveMap.obj
 0001:00022cc0       ??8?$_List_const_iterator@V?$_List_val@U?$_List_simple_types@U?$pair@$$CBI_K@std@@@std@@@std@@@std@@QBE_NABV01@@Z 10023cc0 f i MoveMap.obj
 0001:00022d80       ??8?$_List_unchecked_const_iterator@V?$_List_val@U?$_List_simple_types@U?$pair@$$CBIPAUMMapData@MMAP@@@std@@@std@@@std@@U_Iterator_base0@2@@std@@QBE_NABV01@@Z 10023d80 f i MoveMap.obj
 0001:00022d80       ??8?$_List_unchecked_const_iterator@V?$_List_val@U?$_List_simple_types@U?$pair@$$CBIPAVdtNavMeshQuery@@@std@@@std@@@std@@U_Iterator_base0@2@@std@@QBE_NABV01@@Z 10023d80 f i MoveMap.obj
 0001:00022d80       ??8?$_List_unchecked_const_iterator@V?$_List_val@U?$_List_simple_types@U?$pair@$$CBI_K@std@@@std@@@std@@U_Iterator_base0@2@@std@@QBE_NABV01@@Z 10023d80 f i MoveMap.obj
 0001:00022de0       ??A?$unordered_map@IPAUMMapData@MMAP@@U?$hash@I@std@@U?$equal_to@I@4@V?$allocator@U?$pair@$$CBIPAUMMapData@MMAP@@@std@@@4@@std@@QAEAAPAUMMapData@MMAP@@ABI@Z 10023de0 f i MoveMap.obj
 0001:00022e30       ??A?$unordered_map@IPAVdtNavMeshQuery@@U?$hash@I@std@@U?$equal_to@I@3@V?$allocator@U?$pair@$$CBIPAVdtNavMeshQuery@@@std@@@3@@std@@QAEAAPAVdtNavMeshQuery@@ABI@Z 10023e30 f i MoveMap.obj
 0001:00022e80       ??B?$fpos@U_Mbstatet@@@std@@QBE_JXZ 10023e80 f i MoveMap.obj
 0001:00022ec0       ??C?$_List_iterator@V?$_List_val@U?$_List_simple_types@U?$pair@$$CBIPAUMMapData@MMAP@@@std@@@std@@@std@@@std@@QBEPAU?$pair@$$CBIPAUMMapData@MMAP@@@1@XZ 10023ec0 f i MoveMap.obj
 0001:00022ec0       ??C?$_List_iterator@V?$_List_val@U?$_List_simple_types@U?$pair@$$CBIPAVdtNavMeshQuery@@@std@@@std@@@std@@@std@@QBEPAU?$pair@$$CBIPAVdtNavMeshQuery@@@1@XZ 10023ec0 f i MoveMap.obj
 0001:00022f00       ??D?$_List_const_iterator@V?$_List_val@U?$_List_simple_types@U?$pair@$$CBIPAUMMapData@MMAP@@@std@@@std@@@std@@@std@@QBEABU?$pair@$$CBIPAUMMapData@MMAP@@@1@XZ 10023f00 f i MoveMap.obj
 0001:00022f00       ??D?$_List_const_iterator@V?$_List_val@U?$_List_simple_types@U?$pair@$$CBIPAVdtNavMeshQuery@@@std@@@std@@@std@@@std@@QBEABU?$pair@$$CBIPAVdtNavMeshQuery@@@1@XZ 10023f00 f i MoveMap.obj
 0001:00023000       ??D?$_List_iterator@V?$_List_val@U?$_List_simple_types@U?$pair@$$CBIPAUMMapData@MMAP@@@std@@@std@@@std@@@std@@QBEAAU?$pair@$$CBIPAUMMapData@MMAP@@@1@XZ 10024000 f i MoveMap.obj
 0001:00023000       ??D?$_List_iterator@V?$_List_val@U?$_List_simple_types@U?$pair@$$CBIPAVdtNavMeshQuery@@@std@@@std@@@std@@@std@@QBEAAU?$pair@$$CBIPAVdtNavMeshQuery@@@1@XZ 10024000 f i MoveMap.obj
 0001:00023030       ??D?$_List_unchecked_const_iterator@V?$_List_val@U?$_List_simple_types@U?$pair@$$CBIPAUMMapData@MMAP@@@std@@@std@@@std@@U_Iterator_base0@2@@std@@QBEABU?$pair@$$CBIPAUMMapData@MMAP@@@1@XZ 10024030 f i MoveMap.obj
 0001:00023030       ??D?$_List_unchecked_const_iterator@V?$_List_val@U?$_List_simple_types@U?$pair@$$CBIPAVdtNavMeshQuery@@@std@@@std@@@std@@U_Iterator_base0@2@@std@@QBEABU?$pair@$$CBIPAVdtNavMeshQuery@@@1@XZ 10024030 f i MoveMap.obj
 0001:00023030       ??D?$_List_unchecked_const_iterator@V?$_List_val@U?$_List_simple_types@U?$pair@$$CBI_K@std@@@std@@@std@@U_Iterator_base0@2@@std@@QBEABU?$pair@$$CBI_K@1@XZ 10024030 f i MoveMap.obj
 0001:00023060       ??D?$_List_unchecked_iterator@V?$_List_val@U?$_List_simple_types@U?$pair@$$CBIPAUMMapData@MMAP@@@std@@@std@@@std@@@std@@QBEAAU?$pair@$$CBIPAUMMapData@MMAP@@@1@XZ 10024060 f i MoveMap.obj
 0001:00023060       ??D?$_List_unchecked_iterator@V?$_List_val@U?$_List_simple_types@U?$pair@$$CBIPAVdtNavMeshQuery@@@std@@@std@@@std@@@std@@QBEAAU?$pair@$$CBIPAVdtNavMeshQuery@@@1@XZ 10024060 f i MoveMap.obj
 0001:00023060       ??D?$_List_unchecked_iterator@V?$_List_val@U?$_List_simple_types@U?$pair@$$CBI_K@std@@@std@@@std@@@std@@QBEAAU?$pair@$$CBI_K@1@XZ 10024060 f i MoveMap.obj
 0001:00023090       ??E?$_List_const_iterator@V?$_List_val@U?$_List_simple_types@U?$pair@$$CBIPAUMMapData@MMAP@@@std@@@std@@@std@@@std@@QAEAAV01@XZ 10024090 f i MoveMap.obj
 0001:00023090       ??E?$_List_const_iterator@V?$_List_val@U?$_List_simple_types@U?$pair@$$CBIPAVdtNavMeshQuery@@@std@@@std@@@std@@@std@@QAEAAV01@XZ 10024090 f i MoveMap.obj
 0001:00023190       ??E?$_List_iterator@V?$_List_val@U?$_List_simple_types@U?$pair@$$CBIPAUMMapData@MMAP@@@std@@@std@@@std@@@std@@QAEAAV01@XZ 10024190 f i MoveMap.obj
 0001:00023190       ??E?$_List_iterator@V?$_List_val@U?$_List_simple_types@U?$pair@$$CBIPAVdtNavMeshQuery@@@std@@@std@@@std@@@std@@QAEAAV01@XZ 10024190 f i MoveMap.obj
 0001:000231d0       ??E?$_List_unchecked_const_iterator@V?$_List_val@U?$_List_simple_types@U?$pair@$$CBIPAUMMapData@MMAP@@@std@@@std@@@std@@U_Iterator_base0@2@@std@@QAEAAV01@XZ 100241d0 f i MoveMap.obj
 0001:000231d0       ??E?$_List_unchecked_const_iterator@V?$_List_val@U?$_List_simple_types@U?$pair@$$CBIPAVdtNavMeshQuery@@@std@@@std@@@std@@U_Iterator_base0@2@@std@@QAEAAV01@XZ 100241d0 f i MoveMap.obj
 0001:000231d0       ??E?$_List_unchecked_const_iterator@V?$_List_val@U?$_List_simple_types@U?$pair@$$CBI_K@std@@@std@@@std@@U_Iterator_base0@2@@std@@QAEAAV01@XZ 100241d0 f i MoveMap.obj
 0001:00023210       ??E?$_List_unchecked_iterator@V?$_List_val@U?$_List_simple_types@U?$pair@$$CBIPAUMMapData@MMAP@@@std@@@std@@@std@@@std@@QAEAAV01@XZ 10024210 f i MoveMap.obj
 0001:00023210       ??E?$_List_unchecked_iterator@V?$_List_val@U?$_List_simple_types@U?$pair@$$CBIPAVdtNavMeshQuery@@@std@@@std@@@std@@@std@@QAEAAV01@XZ 10024210 f i MoveMap.obj
 0001:00023210       ??E?$_List_unchecked_iterator@V?$_List_val@U?$_List_simple_types@U?$pair@$$CBI_K@std@@@std@@@std@@@std@@QAEAAV01@XZ 10024210 f i MoveMap.obj
 0001:00023250       ??F?$_List_unchecked_const_iterator@V?$_List_val@U?$_List_simple_types@U?$pair@$$CBIPAUMMapData@MMAP@@@std@@@std@@@std@@U_Iterator_base0@2@@std@@QAEAAV01@XZ 10024250 f i MoveMap.obj
 0001:00023250       ??F?$_List_unchecked_const_iterator@V?$_List_val@U?$_List_simple_types@U?$pair@$$CBIPAVdtNavMeshQuery@@@std@@@std@@@std@@U_Iterator_base0@2@@std@@QAEAAV01@XZ 10024250 f i MoveMap.obj
 0001:00023250       ??F?$_List_unchecked_const_iterator@V?$_List_val@U?$_List_simple_types@U?$pair@$$CBI_K@std@@@std@@@std@@U_Iterator_base0@2@@std@@QAEAAV01@XZ 10024250 f i MoveMap.obj
 0001:00023290       ??R<lambda_1>@?1??append@?$basic_string@DU?$char_traits@D@std@@V?$allocator@D@2@@std@@QAEAAV23@QBDI@Z@QBE@QAD0I0I@Z 10024290 f i MoveMap.obj
 0001:00023310       ??R<lambda_1>@?1??assign@?$basic_string@DU?$char_traits@D@std@@V?$allocator@D@2@@std@@QAEAAV23@QBDI@Z@QBE@QADI0@Z 10024310 f i MoveMap.obj
 0001:00023370       ??R<lambda_1>@?1??insert@?$basic_string@DU?$char_traits@D@std@@V?$allocator@D@2@@std@@QAEAAV23@IQBDI@Z@QBE@QAD0II0I@Z 10024370 f i MoveMap.obj
 0001:000233f0       ??R?$_Conditionally_enabled_hash@I$00@std@@SAIABI@Z 100243f0 f i MoveMap.obj
 0001:00023420       ??R?$equal_to@I@std@@QBE_NABI0@Z 10024420 f i MoveMap.obj
 0001:00023480       ??_D?$basic_ostringstream@DU?$char_traits@D@std@@V?$allocator@D@2@@std@@QAEXXZ 10024480 f i MoveMap.obj
 0001:000234bf       ??_E?$basic_ostringstream@DU?$char_traits@D@std@@V?$allocator@D@2@@std@@$4PPPPPPPM@A@AEPAXI@Z 100244bf f i MoveMap.obj
 0001:000234d0       ??_E?$basic_ostringstream@DU?$char_traits@D@std@@V?$allocator@D@2@@std@@UAEPAXI@Z 100244d0 f i MoveMap.obj
 0001:000234d0       ??_G?$basic_ostringstream@DU?$char_traits@D@std@@V?$allocator@D@2@@std@@UAEPAXI@Z 100244d0 f i MoveMap.obj
 0001:00023520       ??_E?$basic_stringbuf@DU?$char_traits@D@std@@V?$allocator@D@2@@std@@UAEPAXI@Z 10024520 f i MoveMap.obj
 0001:00023520       ??_G?$basic_stringbuf@DU?$char_traits@D@std@@V?$allocator@D@2@@std@@UAEPAXI@Z 10024520 f i MoveMap.obj
 0001:00023560       ??_GMMapData@MMAP@@QAEPAXI@Z 10024560 f i MoveMap.obj
 0001:000235a0       ?_Activate_SSO_buffer@?$_String_val@U?$_Simple_types@D@std@@@std@@QAEXXZ 100245a0 f i MoveMap.obj
 0001:00023600       ?_Adopt@_Iterator_base0@std@@QAEXPBX@Z 10024600 f i MoveMap.obj
 0001:00023630       ?_Adopt@_Iterator_base12@std@@QAEXPBU_Container_base12@2@@Z 10024630 f i MoveMap.obj
 0001:00023690       ?_Adopt_locked@_Iterator_base12@std@@AAEXPBU_Container_base12@2@@Z 10024690 f i MoveMap.obj
 0001:00023740       ?_Adopt_unlocked@_Iterator_base12@std@@AAEXPBU_Container_base12@2@@Z 10024740 f i MoveMap.obj
 0001:000237d0       ?_Alloc_sentinel_and_proxy@?$list@U?$pair@$$CBIPAUMMapData@MMAP@@@std@@V?$allocator@U?$pair@$$CBIPAUMMapData@MMAP@@@std@@@2@@std@@AAEXXZ 100247d0 f i MoveMap.obj
 0001:00023920       ?_Alloc_sentinel_and_proxy@?$list@U?$pair@$$CBIPAVdtNavMeshQuery@@@std@@V?$allocator@U?$pair@$$CBIPAVdtNavMeshQuery@@@std@@@2@@std@@AAEXXZ 10024920 f i MoveMap.obj
 0001:00023a70       ?_Alloc_sentinel_and_proxy@?$list@U?$pair@$$CBI_K@std@@V?$allocator@U?$pair@$$CBI_K@std@@@2@@std@@AAEXXZ 10024a70 f i MoveMap.obj
 0001:00023bc0       ?_Allocate@?$_Alloc_construct_ptr@V?$allocator@U?$_List_node@U?$pair@$$CBIPAUMMapData@MMAP@@@std@@PAX@std@@@std@@@std@@QAEXXZ 10024bc0 f i MoveMap.obj
 0001:00023bc0       ?_Allocate@?$_Alloc_construct_ptr@V?$allocator@U?$_List_node@U?$pair@$$CBIPAVdtNavMeshQuery@@@std@@PAX@std@@@std@@@std@@QAEXXZ 10024bc0 f i MoveMap.obj
 0001:00023c20       ?_Allocate@?$_Alloc_construct_ptr@V?$allocator@U?$_List_node@U?$pair@$$CBI_K@std@@PAX@std@@@std@@@std@@QAEXXZ 10024c20 f i MoveMap.obj
 0001:00023c80       ?_Assign_grow@?$_Hash_vec@V?$allocator@V?$_List_unchecked_iterator@V?$_List_val@U?$_List_simple_types@U?$pair@$$CBIPAUMMapData@MMAP@@@std@@@std@@@std@@@std@@@std@@@std@@QAEXIV?$_List_unchecked_iterator@V?$_List_val@U?$_List_simple_types@U?$pair@$$CBIPAUMMapData@MMAP@@@std@@@std@@@std@@@2@@Z 10024c80 f i MoveMap.obj
 0001:00023c80       ?_Assign_grow@?$_Hash_vec@V?$allocator@V?$_List_unchecked_iterator@V?$_List_val@U?$_List_simple_types@U?$pair@$$CBIPAVdtNavMeshQuery@@@std@@@std@@@std@@@std@@@std@@@std@@QAEXIV?$_List_unchecked_iterator@V?$_List_val@U?$_List_simple_types@U?$pair@$$CBIPAVdtNavMeshQuery@@@std@@@std@@@std@@@2@@Z 10024c80 f i MoveMap.obj
 0001:00023c80       ?_Assign_grow@?$_Hash_vec@V?$allocator@V?$_List_unchecked_iterator@V?$_List_val@U?$_List_simple_types@U?$pair@$$CBI_K@std@@@std@@@std@@@std@@@std@@@std@@QAEXIV?$_List_unchecked_iterator@V?$_List_val@U?$_List_simple_types@U?$pair@$$CBI_K@std@@@std@@@std@@@2@@Z 10024c80 f i MoveMap.obj
 0001:00023d80       ?_Assign_locked@_Iterator_base12@std@@AAEXABU12@@Z 10024d80 f i MoveMap.obj
 0001:00023e30       ?_Assign_unlocked@_Iterator_base12@std@@AAEXABU12@@Z 10024e30 f i MoveMap.obj
 0001:00023e90       ?_Bump_erased@_Range_eraser@?$_Hash@V?$_Umap_traits@IPAUMMapData@MMAP@@V?$_Uhash_compare@IU?$hash@I@std@@U?$equal_to@I@2@@std@@V?$allocator@U?$pair@$$CBIPAUMMapData@MMAP@@@std@@@4@$0A@@std@@@std@@QAEXXZ 10024e90 f i MoveMap.obj
 0001:00023e90       ?_Bump_erased@_Range_eraser@?$_Hash@V?$_Umap_traits@IPAVdtNavMeshQuery@@V?$_Uhash_compare@IU?$hash@I@std@@U?$equal_to@I@2@@std@@V?$allocator@U?$pair@$$CBIPAVdtNavMeshQuery@@@std@@@3@$0A@@std@@@std@@QAEXXZ 10024e90 f i MoveMap.obj
 0001:00023e90       ?_Bump_erased@_Range_eraser@?$_Hash@V?$_Umap_traits@I_KV?$_Uhash_compare@IU?$hash@I@std@@U?$equal_to@I@2@@std@@V?$allocator@U?$pair@$$CBI_K@std@@@2@$0A@@std@@@std@@QAEXXZ 10024e90 f i MoveMap.obj
 0001:00023ed0       ?_Calculate_growth@?$basic_string@DU?$char_traits@D@std@@V?$allocator@D@2@@std@@ABEII@Z 10024ed0 f i MoveMap.obj
 0001:00023f30       ?_Calculate_growth@?$basic_string@DU?$char_traits@D@std@@V?$allocator@D@2@@std@@CAIIII@Z 10024f30 f i MoveMap.obj
 0001:00023ff0       ?_Calculate_growth@?$basic_string@_WU?$char_traits@_W@std@@V?$allocator@_W@2@@std@@CAIIII@Z 10024ff0 f i MoveMap.obj
 0001:000240b0       ?_Ceiling_of_log_2@std@@YAKI@Z 100250b0 f i MoveMap.obj
 0001:000240e0       ?_Check_max_size@?$_Hash@V?$_Umap_traits@IPAUMMapData@MMAP@@V?$_Uhash_compare@IU?$hash@I@std@@U?$equal_to@I@2@@std@@V?$allocator@U?$pair@$$CBIPAUMMapData@MMAP@@@std@@@4@$0A@@std@@@std@@IBEXXZ 100250e0 f i MoveMap.obj
 0001:000240e0       ?_Check_max_size@?$_Hash@V?$_Umap_traits@IPAVdtNavMeshQuery@@V?$_Uhash_compare@IU?$hash@I@std@@U?$equal_to@I@2@@std@@V?$allocator@U?$pair@$$CBIPAVdtNavMeshQuery@@@std@@@3@$0A@@std@@@std@@IBEXXZ 100250e0 f i MoveMap.obj
 0001:00024140       ?_Check_max_size@?$_Hash@V?$_Umap_traits@I_KV?$_Uhash_compare@IU?$hash@I@std@@U?$equal_to@I@2@@std@@V?$allocator@U?$pair@$$CBI_K@std@@@2@$0A@@std@@@std@@IBEXXZ 10025140 f i MoveMap.obj
 0001:000241a0       ?_Check_offset@?$_String_val@U?$_Simple_types@D@std@@@std@@QBEXI@Z 100251a0 f i MoveMap.obj
 0001:000241e0       ?_Check_rehash_required_1@?$_Hash@V?$_Umap_traits@IPAUMMapData@MMAP@@V?$_Uhash_compare@IU?$hash@I@std@@U?$equal_to@I@2@@std@@V?$allocator@U?$pair@$$CBIPAUMMapData@MMAP@@@std@@@4@$0A@@std@@@std@@IBE_NXZ 100251e0 f i MoveMap.obj
 0001:000241e0       ?_Check_rehash_required_1@?$_Hash@V?$_Umap_traits@IPAVdtNavMeshQuery@@V?$_Uhash_compare@IU?$hash@I@std@@U?$equal_to@I@2@@std@@V?$allocator@U?$pair@$$CBIPAVdtNavMeshQuery@@@std@@@3@$0A@@std@@@std@@IBE_NXZ 100251e0 f i MoveMap.obj
 0001:000241e0       ?_Check_rehash_required_1@?$_Hash@V?$_Umap_traits@I_KV?$_Uhash_compare@IU?$hash@I@std@@U?$equal_to@I@2@@std@@V?$allocator@U?$pair@$$CBI_K@std@@@2@$0A@@std@@@std@@IBE_NXZ 100251e0 f i MoveMap.obj
 0001:000242c0       ?_Clamp_suffix_size@?$_String_val@U?$_Simple_types@D@std@@@std@@QBEIII@Z 100252c0 f i MoveMap.obj
 0001:00024310       ?_Construct_empty@?$basic_string@DU?$char_traits@D@std@@V?$allocator@D@2@@std@@AAEXXZ 10025310 f i MoveMap.obj
 0001:000243b0       ?_Deallocate_for_capacity@?$basic_string@DU?$char_traits@D@std@@V?$allocator@D@2@@std@@CAXAAV?$allocator@D@2@QADI@Z 100253b0 f i MoveMap.obj
 0001:000243e0       ?_Deallocate_for_capacity@?$basic_string@_WU?$char_traits@_W@std@@V?$allocator@_W@2@@std@@CAXAAV?$allocator@_W@2@QA_WI@Z 100253e0 f i MoveMap.obj
 0001:00024410       ?_Desired_grow_bucket_count@?$_Hash@V?$_Umap_traits@IPAUMMapData@MMAP@@V?$_Uhash_compare@IU?$hash@I@std@@U?$equal_to@I@2@@std@@V?$allocator@U?$pair@$$CBIPAUMMapData@MMAP@@@std@@@4@$0A@@std@@@std@@IBEII@Z 10025410 f i MoveMap.obj
 0001:000244a0       ?_Desired_grow_bucket_count@?$_Hash@V?$_Umap_traits@IPAVdtNavMeshQuery@@V?$_Uhash_compare@IU?$hash@I@std@@U?$equal_to@I@2@@std@@V?$allocator@U?$pair@$$CBIPAVdtNavMeshQuery@@@std@@@3@$0A@@std@@@std@@IBEII@Z 100254a0 f i MoveMap.obj
 0001:00024530       ?_Desired_grow_bucket_count@?$_Hash@V?$_Umap_traits@I_KV?$_Uhash_compare@IU?$hash@I@std@@U?$equal_to@I@2@@std@@V?$allocator@U?$pair@$$CBI_K@std@@@2@$0A@@std@@@std@@IBEII@Z 10025530 f i MoveMap.obj
 0001:000245c0       ?_Do_hash@?$hash@I@std@@SAIABI@Z 100255c0 f i MoveMap.obj
 0001:000245f0       ?_Erase_noexcept@?$basic_string@DU?$char_traits@D@std@@V?$allocator@D@2@@std@@AAEAAV12@II@Z 100255f0 f i MoveMap.obj
 0001:000246a0       ?_Floor_of_log_2@std@@YAKI@Z 100256a0 f i MoveMap.obj
 0001:00024730       ?_Fnv1a_append_bytes@std@@YAIIQBEI@Z 10025730 f i MoveMap.obj
 0001:00024790       ?_Forced_rehash@?$_Hash@V?$_Umap_traits@IPAUMMapData@MMAP@@V?$_Uhash_compare@IU?$hash@I@std@@U?$equal_to@I@2@@std@@V?$allocator@U?$pair@$$CBIPAUMMapData@MMAP@@@std@@@4@$0A@@std@@@std@@IAEXI@Z 10025790 f i MoveMap.obj
 0001:00024790       ?_Forced_rehash@?$_Hash@V?$_Umap_traits@IPAVdtNavMeshQuery@@V?$_Uhash_compare@IU?$hash@I@std@@U?$equal_to@I@2@@std@@V?$allocator@U?$pair@$$CBIPAVdtNavMeshQuery@@@std@@@3@$0A@@std@@@std@@IAEXI@Z 10025790 f i MoveMap.obj
 0001:00024ae0       ?_Forced_rehash@?$_Hash@V?$_Umap_traits@I_KV?$_Uhash_compare@IU?$hash@I@std@@U?$equal_to@I@2@@std@@V?$allocator@U?$pair@$$CBI_K@std@@@2@$0A@@std@@@std@@IAEXI@Z 10025ae0 f i MoveMap.obj
 0001:00024e30       ?_Get_buffer_view@?$basic_stringbuf@DU?$char_traits@D@std@@V?$allocator@D@2@@std@@QBE?AU_Buffer_view@12@XZ 10025e30 f i MoveMap.obj
 0001:00024fc0       ?_Get_first@?$_Compressed_pair@U?$equal_to@I@std@@M$00@std@@QBEABU?$equal_to@I@2@XZ 10025fc0 f i MoveMap.obj
 0001:00024fc0       ?_Get_first@?$_Compressed_pair@U?$hash@I@std@@V?$_Compressed_pair@U?$equal_to@I@std@@M$00@2@$00@std@@QBEABU?$hash@I@2@XZ 10025fc0 f i MoveMap.obj
 0001:00024fc0       ?_Get_first@?$_Compressed_pair@V?$allocator@D@std@@V?$_String_val@U?$_Simple_types@D@std@@@2@$00@std@@QAEAAV?$allocator@D@2@XZ 10025fc0 f i MoveMap.obj
 0001:00024fc0       ?_Get_first@?$_Compressed_pair@V?$allocator@D@std@@V?$_String_val@U?$_Simple_types@D@std@@@2@$00@std@@QBEABV?$allocator@D@2@XZ 10025fc0 f i MoveMap.obj
 0001:00024fc0       ?_Get_first@?$_Compressed_pair@V?$allocator@U?$_List_node@U?$pair@$$CBIPAUMMapData@MMAP@@@std@@PAX@std@@@std@@V?$_List_val@U?$_List_simple_types@U?$pair@$$CBIPAUMMapData@MMAP@@@std@@@std@@@2@$00@std@@QAEAAV?$allocator@U?$_List_node@U?$pair@$$CBIPAUMMapData@MMAP@@@std@@PAX@std@@@2@XZ 10025fc0 f i MoveMap.obj
 0001:00024fc0       ?_Get_first@?$_Compressed_pair@V?$allocator@U?$_List_node@U?$pair@$$CBIPAUMMapData@MMAP@@@std@@PAX@std@@@std@@V?$_List_val@U?$_List_simple_types@U?$pair@$$CBIPAUMMapData@MMAP@@@std@@@std@@@2@$00@std@@QBEABV?$allocator@U?$_List_node@U?$pair@$$CBIPAUMMapData@MMAP@@@std@@PAX@std@@@2@XZ 10025fc0 f i MoveMap.obj
 0001:00024fc0       ?_Get_first@?$_Compressed_pair@V?$allocator@U?$_List_node@U?$pair@$$CBIPAVdtNavMeshQuery@@@std@@PAX@std@@@std@@V?$_List_val@U?$_List_simple_types@U?$pair@$$CBIPAVdtNavMeshQuery@@@std@@@std@@@2@$00@std@@QAEAAV?$allocator@U?$_List_node@U?$pair@$$CBIPAVdtNavMeshQuery@@@std@@PAX@std@@@2@XZ 10025fc0 f i MoveMap.obj
 0001:00024fc0       ?_Get_first@?$_Compressed_pair@V?$allocator@U?$_List_node@U?$pair@$$CBIPAVdtNavMeshQuery@@@std@@PAX@std@@@std@@V?$_List_val@U?$_List_simple_types@U?$pair@$$CBIPAVdtNavMeshQuery@@@std@@@std@@@2@$00@std@@QBEABV?$allocator@U?$_List_node@U?$pair@$$CBIPAVdtNavMeshQuery@@@std@@PAX@std@@@2@XZ 10025fc0 f i MoveMap.obj
 0001:00024fc0       ?_Get_first@?$_Compressed_pair@V?$allocator@U?$_List_node@U?$pair@$$CBI_K@std@@PAX@std@@@std@@V?$_List_val@U?$_List_simple_types@U?$pair@$$CBI_K@std@@@std@@@2@$00@std@@QAEAAV?$allocator@U?$_List_node@U?$pair@$$CBI_K@std@@PAX@std@@@2@XZ 10025fc0 f i MoveMap.obj
 0001:00024fc0       ?_Get_first@?$_Compressed_pair@V?$allocator@U?$_List_node@U?$pair@$$CBI_K@std@@PAX@std@@@std@@V?$_List_val@U?$_List_simple_types@U?$pair@$$CBI_K@std@@@std@@@2@$00@std@@QBEABV?$allocator@U?$_List_node@U?$pair@$$CBI_K@std@@PAX@std@@@2@XZ 10025fc0 f i MoveMap.obj
 0001:00024fc0       ?_Get_first@?$_Compressed_pair@V?$allocator@V?$_List_unchecked_iterator@V?$_List_val@U?$_List_simple_types@U?$pair@$$CBIPAUMMapData@MMAP@@@std@@@std@@@std@@@std@@@std@@V?$_Vector_val@U?$_Simple_types@V?$_List_unchecked_iterator@V?$_List_val@U?$_List_simple_types@U?$pair@$$CBIPAUMMapData@MMAP@@@std@@@std@@@std@@@std@@@std@@@2@$00@std@@QAEAAV?$allocator@V?$_List_unchecked_iterator@V?$_List_val@U?$_List_simple_types@U?$pair@$$CBIPAUMMapData@MMAP@@@std@@@std@@@std@@@std@@@2@XZ 10025fc0 f i MoveMap.obj
 0001:00024fc0       ?_Get_first@?$_Compressed_pair@V?$allocator@V?$_List_unchecked_iterator@V?$_List_val@U?$_List_simple_types@U?$pair@$$CBIPAUMMapData@MMAP@@@std@@@std@@@std@@@std@@@std@@V?$_Vector_val@U?$_Simple_types@V?$_List_unchecked_iterator@V?$_List_val@U?$_List_simple_types@U?$pair@$$CBIPAUMMapData@MMAP@@@std@@@std@@@std@@@std@@@std@@@2@$00@std@@QBEABV?$allocator@V?$_List_unchecked_iterator@V?$_List_val@U?$_List_simple_types@U?$pair@$$CBIPAUMMapData@MMAP@@@std@@@std@@@std@@@std@@@2@XZ 10025fc0 f i MoveMap.obj
 0001:00024fc0       ?_Get_first@?$_Compressed_pair@V?$allocator@V?$_List_unchecked_iterator@V?$_List_val@U?$_List_simple_types@U?$pair@$$CBIPAVdtNavMeshQuery@@@std@@@std@@@std@@@std@@@std@@V?$_Vector_val@U?$_Simple_types@V?$_List_unchecked_iterator@V?$_List_val@U?$_List_simple_types@U?$pair@$$CBIPAVdtNavMeshQuery@@@std@@@std@@@std@@@std@@@std@@@2@$00@std@@QAEAAV?$allocator@V?$_List_unchecked_iterator@V?$_List_val@U?$_List_simple_types@U?$pair@$$CBIPAVdtNavMeshQuery@@@std@@@std@@@std@@@std@@@2@XZ 10025fc0 f i MoveMap.obj
 0001:00024fc0       ?_Get_first@?$_Compressed_pair@V?$allocator@V?$_List_unchecked_iterator@V?$_List_val@U?$_List_simple_types@U?$pair@$$CBIPAVdtNavMeshQuery@@@std@@@std@@@std@@@std@@@std@@V?$_Vector_val@U?$_Simple_types@V?$_List_unchecked_iterator@V?$_List_val@U?$_List_simple_types@U?$pair@$$CBIPAVdtNavMeshQuery@@@std@@@std@@@std@@@std@@@std@@@2@$00@std@@QBEABV?$allocator@V?$_List_unchecked_iterator@V?$_List_val@U?$_List_simple_types@U?$pair@$$CBIPAVdtNavMeshQuery@@@std@@@std@@@std@@@std@@@2@XZ 10025fc0 f i MoveMap.obj
 0001:00024fc0       ?_Get_first@?$_Compressed_pair@V?$allocator@V?$_List_unchecked_iterator@V?$_List_val@U?$_List_simple_types@U?$pair@$$CBI_K@std@@@std@@@std@@@std@@@std@@V?$_Vector_val@U?$_Simple_types@V?$_List_unchecked_iterator@V?$_List_val@U?$_List_simple_types@U?$pair@$$CBI_K@std@@@std@@@std@@@std@@@std@@@2@$00@std@@QAEAAV?$allocator@V?$_List_unchecked_iterator@V?$_List_val@U?$_List_simple_types@U?$pair@$$CBI_K@std@@@std@@@std@@@std@@@2@XZ 10025fc0 f i MoveMap.obj
 0001:00024fc0       ?_Get_first@?$_Compressed_pair@V?$allocator@V?$_List_unchecked_iterator@V?$_List_val@U?$_List_simple_types@U?$pair@$$CBI_K@std@@@std@@@std@@@std@@@std@@V?$_Vector_val@U?$_Simple_types@V?$_List_unchecked_iterator@V?$_List_val@U?$_List_simple_types@U?$pair@$$CBI_K@std@@@std@@@std@@@std@@@std@@@2@$00@std@@QBEABV?$allocator@V?$_List_unchecked_iterator@V?$_List_val@U?$_List_simple_types@U?$pair@$$CBI_K@std@@@std@@@std@@@std@@@2@XZ 10025fc0 f i MoveMap.obj
 0001:00024fc0       ?_Get_first@?$_Compressed_pair@V?$allocator@_W@std@@V?$_String_val@U?$_Simple_types@_W@std@@@2@$00@std@@QAEAAV?$allocator@_W@2@XZ 10025fc0 f i MoveMap.obj
 0001:00024fc0       ?_Get_first@?$_Compressed_pair@V?$allocator@_W@std@@V?$_String_val@U?$_Simple_types@_W@std@@@2@$00@std@@QBEABV?$allocator@_W@2@XZ 10025fc0 f i MoveMap.obj
 0001:00025000       ?_Get_max_bucket_size@?$_Uhash_compare@IU?$hash@I@std@@U?$equal_to@I@2@@std@@QAEAAMXZ 10026000 f i MoveMap.obj
 0001:00025000       ?_Get_max_bucket_size@?$_Uhash_compare@IU?$hash@I@std@@U?$equal_to@I@2@@std@@QBEABMXZ 10026000 f i MoveMap.obj
 0001:00025030       ?_Getal@?$basic_string@DU?$char_traits@D@std@@V?$allocator@D@2@@std@@AAEAAV?$allocator@D@2@XZ 10026030 f i MoveMap.obj
 0001:00025030       ?_Getal@?$basic_string@DU?$char_traits@D@std@@V?$allocator@D@2@@std@@ABEABV?$allocator@D@2@XZ 10026030 f i MoveMap.obj
 0001:00025030       ?_Getal@?$basic_string@_WU?$char_traits@_W@std@@V?$allocator@_W@2@@std@@AAEAAV?$allocator@_W@2@XZ 10026030 f i MoveMap.obj
 0001:00025030       ?_Getal@?$basic_string@_WU?$char_traits@_W@std@@V?$allocator@_W@2@@std@@ABEABV?$allocator@_W@2@XZ 10026030 f i MoveMap.obj
 0001:00025060       ?_Getal@?$list@U?$pair@$$CBIPAUMMapData@MMAP@@@std@@V?$allocator@U?$pair@$$CBIPAUMMapData@MMAP@@@std@@@2@@std@@AAEAAV?$allocator@U?$_List_node@U?$pair@$$CBIPAUMMapData@MMAP@@@std@@PAX@std@@@2@XZ 10026060 f i MoveMap.obj
 0001:00025060       ?_Getal@?$list@U?$pair@$$CBIPAUMMapData@MMAP@@@std@@V?$allocator@U?$pair@$$CBIPAUMMapData@MMAP@@@std@@@2@@std@@ABEABV?$allocator@U?$_List_node@U?$pair@$$CBIPAUMMapData@MMAP@@@std@@PAX@std@@@2@XZ 10026060 f i MoveMap.obj
 0001:00025060       ?_Getal@?$list@U?$pair@$$CBIPAVdtNavMeshQuery@@@std@@V?$allocator@U?$pair@$$CBIPAVdtNavMeshQuery@@@std@@@2@@std@@AAEAAV?$allocator@U?$_List_node@U?$pair@$$CBIPAVdtNavMeshQuery@@@std@@PAX@std@@@2@XZ 10026060 f i MoveMap.obj
 0001:00025060       ?_Getal@?$list@U?$pair@$$CBIPAVdtNavMeshQuery@@@std@@V?$allocator@U?$pair@$$CBIPAVdtNavMeshQuery@@@std@@@2@@std@@ABEABV?$allocator@U?$_List_node@U?$pair@$$CBIPAVdtNavMeshQuery@@@std@@PAX@std@@@2@XZ 10026060 f i MoveMap.obj
 0001:00025060       ?_Getal@?$list@U?$pair@$$CBI_K@std@@V?$allocator@U?$pair@$$CBI_K@std@@@2@@std@@AAEAAV?$allocator@U?$_List_node@U?$pair@$$CBI_K@std@@PAX@std@@@2@XZ 10026060 f i MoveMap.obj
 0001:00025060       ?_Getal@?$list@U?$pair@$$CBI_K@std@@V?$allocator@U?$pair@$$CBI_K@std@@@2@@std@@ABEABV?$allocator@U?$_List_node@U?$pair@$$CBI_K@std@@PAX@std@@@2@XZ 10026060 f i MoveMap.obj
 0001:00025090       ?_Getcont@_Iterator_base12@std@@QBEPBU_Container_base12@2@XZ 10026090 f i MoveMap.obj
 0001:000250e0       ?_Getstate@?$basic_stringbuf@DU?$char_traits@D@std@@V?$allocator@D@2@@std@@CAHH@Z 100260e0 f i MoveMap.obj
 0001:00025160       ?_Insert_new_node_before@?$_Hash@V?$_Umap_traits@IPAUMMapData@MMAP@@V?$_Uhash_compare@IU?$hash@I@std@@U?$equal_to@I@2@@std@@V?$allocator@U?$pair@$$CBIPAUMMapData@MMAP@@@std@@@4@$0A@@std@@@std@@IAEPAU?$_List_node@U?$pair@$$CBIPAUMMapData@MMAP@@@std@@PAX@2@IQAU32@0@Z 10026160 f i MoveMap.obj
 0001:00025160       ?_Insert_new_node_before@?$_Hash@V?$_Umap_traits@IPAVdtNavMeshQuery@@V?$_Uhash_compare@IU?$hash@I@std@@U?$equal_to@I@2@@std@@V?$allocator@U?$pair@$$CBIPAVdtNavMeshQuery@@@std@@@3@$0A@@std@@@std@@IAEPAU?$_List_node@U?$pair@$$CBIPAVdtNavMeshQuery@@@std@@PAX@2@IQAU32@0@Z 10026160 f i MoveMap.obj
 0001:00025160       ?_Insert_new_node_before@?$_Hash@V?$_Umap_traits@I_KV?$_Uhash_compare@IU?$hash@I@std@@U?$equal_to@I@2@@std@@V?$allocator@U?$pair@$$CBI_K@std@@@2@$0A@@std@@@std@@IAEPAU?$_List_node@U?$pair@$$CBI_K@std@@PAX@2@IQAU32@0@Z 10026160 f i MoveMap.obj
 0001:000252b0       ?_Is_constant_evaluated@std@@YA_NXZ 100262b0 f i MoveMap.obj
 0001:000252d0       ?_Large_mode_engaged@?$_String_val@U?$_Simple_types@D@std@@@std@@QBE_NXZ 100262d0 f i MoveMap.obj
 0001:00025320       ?_Large_mode_engaged@?$_String_val@U?$_Simple_types@_W@std@@@std@@QBE_NXZ 10026320 f i MoveMap.obj
 0001:00025370       ?_Make_iter@?$list@U?$pair@$$CBIPAUMMapData@MMAP@@@std@@V?$allocator@U?$pair@$$CBIPAUMMapData@MMAP@@@std@@@2@@std@@QBE?AV?$_List_iterator@V?$_List_val@U?$_List_simple_types@U?$pair@$$CBIPAUMMapData@MMAP@@@std@@@std@@@std@@@2@PAU?$_List_node@U?$pair@$$CBIPAUMMapData@MMAP@@@std@@PAX@2@@Z 10026370 f i MoveMap.obj
 0001:00025370       ?_Make_iter@?$list@U?$pair@$$CBIPAVdtNavMeshQuery@@@std@@V?$allocator@U?$pair@$$CBIPAVdtNavMeshQuery@@@std@@@2@@std@@QBE?AV?$_List_iterator@V?$_List_val@U?$_List_simple_types@U?$pair@$$CBIPAVdtNavMeshQuery@@@std@@@std@@@std@@@2@PAU?$_List_node@U?$pair@$$CBIPAVdtNavMeshQuery@@@std@@PAX@2@@Z 10026370 f i MoveMap.obj
 0001:00025370       ?_Make_iter@?$list@U?$pair@$$CBI_K@std@@V?$allocator@U?$pair@$$CBI_K@std@@@2@@std@@QBE?AV?$_List_iterator@V?$_List_val@U?$_List_simple_types@U?$pair@$$CBI_K@std@@@std@@@std@@@2@PAU?$_List_node@U?$pair@$$CBI_K@std@@PAX@2@@Z 10026370 f i MoveMap.obj
 0001:000253c0       ?_Max_bucket_size@?$_Hash@V?$_Umap_traits@IPAUMMapData@MMAP@@V?$_Uhash_compare@IU?$hash@I@std@@U?$equal_to@I@2@@std@@V?$allocator@U?$pair@$$CBIPAUMMapData@MMAP@@@std@@@4@$0A@@std@@@std@@IAEAAMXZ 100263c0 f i MoveMap.obj
 0001:000253c0       ?_Max_bucket_size@?$_Hash@V?$_Umap_traits@IPAUMMapData@MMAP@@V?$_Uhash_compare@IU?$hash@I@std@@U?$equal_to@I@2@@std@@V?$allocator@U?$pair@$$CBIPAUMMapData@MMAP@@@std@@@4@$0A@@std@@@std@@IBEABMXZ 100263c0 f i MoveMap.obj
 0001:000253c0       ?_Max_bucket_size@?$_Hash@V?$_Umap_traits@IPAVdtNavMeshQuery@@V?$_Uhash_compare@IU?$hash@I@std@@U?$equal_to@I@2@@std@@V?$allocator@U?$pair@$$CBIPAVdtNavMeshQuery@@@std@@@3@$0A@@std@@@std@@IAEAAMXZ 100263c0 f i MoveMap.obj
 0001:000253c0       ?_Max_bucket_size@?$_Hash@V?$_Umap_traits@IPAVdtNavMeshQuery@@V?$_Uhash_compare@IU?$hash@I@std@@U?$equal_to@I@2@@std@@V?$allocator@U?$pair@$$CBIPAVdtNavMeshQuery@@@std@@@3@$0A@@std@@@std@@IBEABMXZ 100263c0 f i MoveMap.obj
 0001:000253c0       ?_Max_bucket_size@?$_Hash@V?$_Umap_traits@I_KV?$_Uhash_compare@IU?$hash@I@std@@U?$equal_to@I@2@@std@@V?$allocator@U?$pair@$$CBI_K@std@@@2@$0A@@std@@@std@@IAEAAMXZ 100263c0 f i MoveMap.obj
 0001:000253c0       ?_Max_bucket_size@?$_Hash@V?$_Umap_traits@I_KV?$_Uhash_compare@IU?$hash@I@std@@U?$equal_to@I@2@@std@@V?$allocator@U?$pair@$$CBI_K@std@@@2@$0A@@std@@@std@@IBEABMXZ 100263c0 f i MoveMap.obj
 0001:000253f0       ?_Min_load_factor_buckets@?$_Hash@V?$_Umap_traits@IPAUMMapData@MMAP@@V?$_Uhash_compare@IU?$hash@I@std@@U?$equal_to@I@2@@std@@V?$allocator@U?$pair@$$CBIPAUMMapData@MMAP@@@std@@@4@$0A@@std@@@std@@IBEII@Z 100263f0 f i MoveMap.obj
 0001:000253f0       ?_Min_load_factor_buckets@?$_Hash@V?$_Umap_traits@IPAVdtNavMeshQuery@@V?$_Uhash_compare@IU?$hash@I@std@@U?$equal_to@I@2@@std@@V?$allocator@U?$pair@$$CBIPAVdtNavMeshQuery@@@std@@@3@$0A@@std@@@std@@IBEII@Z 100263f0 f i MoveMap.obj
 0001:000253f0       ?_Min_load_factor_buckets@?$_Hash@V?$_Umap_traits@I_KV?$_Uhash_compare@IU?$hash@I@std@@U?$equal_to@I@2@@std@@V?$allocator@U?$pair@$$CBI_K@std@@@2@$0A@@std@@@std@@IBEII@Z 100263f0 f i MoveMap.obj
 0001:00025490       ?_Myptr@?$_String_val@U?$_Simple_types@D@std@@@std@@QAEPADXZ 10026490 f i MoveMap.obj
 0001:00025490       ?_Myptr@?$_String_val@U?$_Simple_types@D@std@@@std@@QBEPBDXZ 10026490 f i MoveMap.obj
 0001:000254f0       ?_Myptr@?$_String_val@U?$_Simple_types@_W@std@@@std@@QAEPA_WXZ 100264f0 f i MoveMap.obj
 0001:00025550       ?_Orphan_me_locked_v3@_Iterator_base12@std@@AAEXXZ 10026550 f i MoveMap.obj
 0001:00025600       ?_Orphan_me_unlocked_v3@_Iterator_base12@std@@AAEXXZ 10026600 f i MoveMap.obj
 0001:000256d0       ?_Orphan_non_end@?$_List_val@U?$_List_simple_types@U?$pair@$$CBIPAUMMapData@MMAP@@@std@@@std@@@std@@QAEXXZ 100266d0 f i MoveMap.obj
 0001:000256d0       ?_Orphan_non_end@?$_List_val@U?$_List_simple_types@U?$pair@$$CBIPAVdtNavMeshQuery@@@std@@@std@@@std@@QAEXXZ 100266d0 f i MoveMap.obj
 0001:000256d0       ?_Orphan_non_end@?$_List_val@U?$_List_simple_types@U?$pair@$$CBI_K@std@@@std@@@std@@QAEXXZ 100266d0 f i MoveMap.obj
 0001:000257d0       ?_Rehash_for_1@?$_Hash@V?$_Umap_traits@IPAUMMapData@MMAP@@V?$_Uhash_compare@IU?$hash@I@std@@U?$equal_to@I@2@@std@@V?$allocator@U?$pair@$$CBIPAUMMapData@MMAP@@@std@@@4@$0A@@std@@@std@@IAEXXZ 100267d0 f i MoveMap.obj
 0001:00025830       ?_Rehash_for_1@?$_Hash@V?$_Umap_traits@IPAVdtNavMeshQuery@@V?$_Uhash_compare@IU?$hash@I@std@@U?$equal_to@I@2@@std@@V?$allocator@U?$pair@$$CBIPAVdtNavMeshQuery@@@std@@@3@$0A@@std@@@std@@IAEXXZ 10026830 f i MoveMap.obj
 0001:00025890       ?_Rehash_for_1@?$_Hash@V?$_Umap_traits@I_KV?$_Uhash_compare@IU?$hash@I@std@@U?$equal_to@I@2@@std@@V?$allocator@U?$pair@$$CBI_K@std@@@2@$0A@@std@@@std@@IAEXXZ 10026890 f i MoveMap.obj
 0001:000258f0       ?_Release@?$_Alloc_construct_ptr@V?$allocator@U?$_List_node@U?$pair@$$CBIPAUMMapData@MMAP@@@std@@PAX@std@@@std@@@std@@QAEPAU?$_List_node@U?$pair@$$CBIPAUMMapData@MMAP@@@std@@PAX@2@XZ 100268f0 f i MoveMap.obj
 0001:000258f0       ?_Release@?$_Alloc_construct_ptr@V?$allocator@U?$_List_node@U?$pair@$$CBIPAVdtNavMeshQuery@@@std@@PAX@std@@@std@@@std@@QAEPAU?$_List_node@U?$pair@$$CBIPAVdtNavMeshQuery@@@std@@PAX@2@XZ 100268f0 f i MoveMap.obj
 0001:000258f0       ?_Release@?$_Alloc_construct_ptr@V?$allocator@U?$_List_node@U?$pair@$$CBI_K@std@@PAX@std@@@std@@@std@@QAEPAU?$_List_node@U?$pair@$$CBI_K@std@@PAX@2@XZ 100268f0 f i MoveMap.obj
 0001:00025940       ?_Release@?$_Uninitialized_backout@PAV?$_List_unchecked_iterator@V?$_List_val@U?$_List_simple_types@U?$pair@$$CBIPAUMMapData@MMAP@@@std@@@std@@@std@@@std@@@std@@QAEPAV?$_List_unchecked_iterator@V?$_List_val@U?$_List_simple_types@U?$pair@$$CBIPAUMMapData@MMAP@@@std@@@std@@@std@@@2@XZ 10026940 f i MoveMap.obj
 0001:00025940       ?_Release@?$_Uninitialized_backout@PAV?$_List_unchecked_iterator@V?$_List_val@U?$_List_simple_types@U?$pair@$$CBIPAVdtNavMeshQuery@@@std@@@std@@@std@@@std@@@std@@QAEPAV?$_List_unchecked_iterator@V?$_List_val@U?$_List_simple_types@U?$pair@$$CBIPAVdtNavMeshQuery@@@std@@@std@@@std@@@2@XZ 10026940 f i MoveMap.obj
 0001:00025940       ?_Release@?$_Uninitialized_backout@PAV?$_List_unchecked_iterator@V?$_List_val@U?$_List_simple_types@U?$pair@$$CBI_K@std@@@std@@@std@@@std@@@std@@QAEPAV?$_List_unchecked_iterator@V?$_List_val@U?$_List_simple_types@U?$pair@$$CBI_K@std@@@std@@@std@@@2@XZ 10026940 f i MoveMap.obj
 0001:00025980       ?_Switch_to_buf@_Bxty@?$_String_val@U?$_Simple_types@D@std@@@std@@QAEXXZ 10026980 f i MoveMap.obj
 0001:000259f0       ?_Switch_to_buf@_Bxty@?$_String_val@U?$_Simple_types@_W@std@@@std@@QAEXXZ 100269f0 f i MoveMap.obj
 0001:00025a60       ?_Tidy@?$_Hash_vec@V?$allocator@V?$_List_unchecked_iterator@V?$_List_val@U?$_List_simple_types@U?$pair@$$CBIPAUMMapData@MMAP@@@std@@@std@@@std@@@std@@@std@@@std@@QAEXXZ 10026a60 f i MoveMap.obj
 0001:00025a60       ?_Tidy@?$_Hash_vec@V?$allocator@V?$_List_unchecked_iterator@V?$_List_val@U?$_List_simple_types@U?$pair@$$CBIPAVdtNavMeshQuery@@@std@@@std@@@std@@@std@@@std@@@std@@QAEXXZ 10026a60 f i MoveMap.obj
 0001:00025a60       ?_Tidy@?$_Hash_vec@V?$allocator@V?$_List_unchecked_iterator@V?$_List_val@U?$_List_simple_types@U?$pair@$$CBI_K@std@@@std@@@std@@@std@@@std@@@std@@QAEXXZ 10026a60 f i MoveMap.obj
 0001:00025b00       ?_Tidy@?$basic_stringbuf@DU?$char_traits@D@std@@V?$allocator@D@2@@std@@IAEXXZ 10026b00 f i MoveMap.obj
 0001:00025c30       ?_Tidy@?$list@U?$pair@$$CBIPAUMMapData@MMAP@@@std@@V?$allocator@U?$pair@$$CBIPAUMMapData@MMAP@@@std@@@2@@std@@AAEXXZ 10026c30 f i MoveMap.obj
 0001:00025c30       ?_Tidy@?$list@U?$pair@$$CBIPAVdtNavMeshQuery@@@std@@V?$allocator@U?$pair@$$CBIPAVdtNavMeshQuery@@@std@@@2@@std@@AAEXXZ 10026c30 f i MoveMap.obj
 0001:00025cb0       ?_Tidy@?$list@U?$pair@$$CBI_K@std@@V?$allocator@U?$pair@$$CBI_K@std@@@2@@std@@AAEXXZ 10026cb0 f i MoveMap.obj
 0001:00025d30       ?_Tidy_deallocate@?$basic_string@DU?$char_traits@D@std@@V?$allocator@D@2@@std@@AAEXXZ 10026d30 f i MoveMap.obj
 0001:00025df0       ?_Tidy_deallocate@?$basic_string@_WU?$char_traits@_W@std@@V?$allocator@_W@2@@std@@AAEXXZ 10026df0 f i MoveMap.obj
 0001:00025eb0       ?_Unchecked_begin@?$_Hash@V?$_Umap_traits@IPAUMMapData@MMAP@@V?$_Uhash_compare@IU?$hash@I@std@@U?$equal_to@I@2@@std@@V?$allocator@U?$pair@$$CBIPAUMMapData@MMAP@@@std@@@4@$0A@@std@@@std@@QAE?AV?$_List_unchecked_iterator@V?$_List_val@U?$_List_simple_types@U?$pair@$$CBIPAUMMapData@MMAP@@@std@@@std@@@std@@@2@XZ 10026eb0 f i MoveMap.obj
 0001:00025eb0       ?_Unchecked_begin@?$_Hash@V?$_Umap_traits@IPAVdtNavMeshQuery@@V?$_Uhash_compare@IU?$hash@I@std@@U?$equal_to@I@2@@std@@V?$allocator@U?$pair@$$CBIPAVdtNavMeshQuery@@@std@@@3@$0A@@std@@@std@@QAE?AV?$_List_unchecked_iterator@V?$_List_val@U?$_List_simple_types@U?$pair@$$CBIPAVdtNavMeshQuery@@@std@@@std@@@std@@@2@XZ 10026eb0 f i MoveMap.obj
 0001:00025eb0       ?_Unchecked_begin@?$_Hash@V?$_Umap_traits@I_KV?$_Uhash_compare@IU?$hash@I@std@@U?$equal_to@I@2@@std@@V?$allocator@U?$pair@$$CBI_K@std@@@2@$0A@@std@@@std@@QAE?AV?$_List_unchecked_iterator@V?$_List_val@U?$_List_simple_types@U?$pair@$$CBI_K@std@@@std@@@std@@@2@XZ 10026eb0 f i MoveMap.obj
 0001:00025f00       ?_Unchecked_begin@?$list@U?$pair@$$CBIPAUMMapData@MMAP@@@std@@V?$allocator@U?$pair@$$CBIPAUMMapData@MMAP@@@std@@@2@@std@@QAE?AV?$_List_unchecked_iterator@V?$_List_val@U?$_List_simple_types@U?$pair@$$CBIPAUMMapData@MMAP@@@std@@@std@@@std@@@2@XZ 10026f00 f i MoveMap.obj
 0001:00025f00       ?_Unchecked_begin@?$list@U?$pair@$$CBIPAVdtNavMeshQuery@@@std@@V?$allocator@U?$pair@$$CBIPAVdtNavMeshQuery@@@std@@@2@@std@@QAE?AV?$_List_unchecked_iterator@V?$_List_val@U?$_List_simple_types@U?$pair@$$CBIPAVdtNavMeshQuery@@@std@@@std@@@std@@@2@XZ 10026f00 f i MoveMap.obj
 0001:00025f00       ?_Unchecked_begin@?$list@U?$pair@$$CBI_K@std@@V?$allocator@U?$pair@$$CBI_K@std@@@2@@std@@QAE?AV?$_List_unchecked_iterator@V?$_List_val@U?$_List_simple_types@U?$pair@$$CBI_K@std@@@std@@@std@@@2@XZ 10026f00 f i MoveMap.obj
 0001:00025f40       ?_Unchecked_end@?$_Hash@V?$_Umap_traits@IPAUMMapData@MMAP@@V?$_Uhash_compare@IU?$hash@I@std@@U?$equal_to@I@2@@std@@V?$allocator@U?$pair@$$CBIPAUMMapData@MMAP@@@std@@@4@$0A@@std@@@std@@QAE?AV?$_List_unchecked_iterator@V?$_List_val@U?$_List_simple_types@U?$pair@$$CBIPAUMMapData@MMAP@@@std@@@std@@@std@@@2@XZ 10026f40 f i MoveMap.obj
 0001:00025f40       ?_Unchecked_end@?$_Hash@V?$_Umap_traits@IPAVdtNavMeshQuery@@V?$_Uhash_compare@IU?$hash@I@std@@U?$equal_to@I@2@@std@@V?$allocator@U?$pair@$$CBIPAVdtNavMeshQuery@@@std@@@3@$0A@@std@@@std@@QAE?AV?$_List_unchecked_iterator@V?$_List_val@U?$_List_simple_types@U?$pair@$$CBIPAVdtNavMeshQuery@@@std@@@std@@@std@@@2@XZ 10026f40 f i MoveMap.obj
 0001:00025f40       ?_Unchecked_end@?$_Hash@V?$_Umap_traits@I_KV?$_Uhash_compare@IU?$hash@I@std@@U?$equal_to@I@2@@std@@V?$allocator@U?$pair@$$CBI_K@std@@@2@$0A@@std@@@std@@QAE?AV?$_List_unchecked_iterator@V?$_List_val@U?$_List_simple_types@U?$pair@$$CBI_K@std@@@std@@@std@@@2@XZ 10026f40 f i MoveMap.obj
 0001:00025f90       ?_Unchecked_end@?$list@U?$pair@$$CBIPAUMMapData@MMAP@@@std@@V?$allocator@U?$pair@$$CBIPAUMMapData@MMAP@@@std@@@2@@std@@QAE?AV?$_List_unchecked_iterator@V?$_List_val@U?$_List_simple_types@U?$pair@$$CBIPAUMMapData@MMAP@@@std@@@std@@@std@@@2@XZ 10026f90 f i MoveMap.obj
 0001:00025f90       ?_Unchecked_end@?$list@U?$pair@$$CBIPAVdtNavMeshQuery@@@std@@V?$allocator@U?$pair@$$CBIPAVdtNavMeshQuery@@@std@@@2@@std@@QAE?AV?$_List_unchecked_iterator@V?$_List_val@U?$_List_simple_types@U?$pair@$$CBIPAVdtNavMeshQuery@@@std@@@std@@@std@@@2@XZ 10026f90 f i MoveMap.obj
 0001:00025f90       ?_Unchecked_end@?$list@U?$pair@$$CBI_K@std@@V?$allocator@U?$pair@$$CBI_K@std@@@2@@std@@QAE?AV?$_List_unchecked_iterator@V?$_List_val@U?$_List_simple_types@U?$pair@$$CBI_K@std@@@std@@@std@@@2@XZ 10026f90 f i MoveMap.obj
 0001:00025fd0       ?_Unchecked_erase@?$_Hash@V?$_Umap_traits@IPAUMMapData@MMAP@@V?$_Uhash_compare@IU?$hash@I@std@@U?$equal_to@I@2@@std@@V?$allocator@U?$pair@$$CBIPAUMMapData@MMAP@@@std@@@4@$0A@@std@@@std@@AAEPAU?$_List_node@U?$pair@$$CBIPAUMMapData@MMAP@@@std@@PAX@2@PAU32@QAU32@@Z 10026fd0 f i MoveMap.obj
 0001:00025fd0       ?_Unchecked_erase@?$_Hash@V?$_Umap_traits@IPAVdtNavMeshQuery@@V?$_Uhash_compare@IU?$hash@I@std@@U?$equal_to@I@2@@std@@V?$allocator@U?$pair@$$CBIPAVdtNavMeshQuery@@@std@@@3@$0A@@std@@@std@@AAEPAU?$_List_node@U?$pair@$$CBIPAVdtNavMeshQuery@@@std@@PAX@2@PAU32@QAU32@@Z 10026fd0 f i MoveMap.obj
 0001:00026220       ?_Unchecked_erase@?$_Hash@V?$_Umap_traits@I_KV?$_Uhash_compare@IU?$hash@I@std@@U?$equal_to@I@2@@std@@V?$allocator@U?$pair@$$CBI_K@std@@@2@$0A@@std@@@std@@AAEPAU?$_List_node@U?$pair@$$CBI_K@std@@PAX@2@PAU32@QAU32@@Z 10027220 f i MoveMap.obj
 0001:00026470       ?_Unchecked_erase@?$list@U?$pair@$$CBIPAUMMapData@MMAP@@@std@@V?$allocator@U?$pair@$$CBIPAUMMapData@MMAP@@@std@@@2@@std@@AAEPAU?$_List_node@U?$pair@$$CBIPAUMMapData@MMAP@@@std@@PAX@2@PAU32@QAU32@@Z 10027470 f i MoveMap.obj
 0001:00026470       ?_Unchecked_erase@?$list@U?$pair@$$CBIPAVdtNavMeshQuery@@@std@@V?$allocator@U?$pair@$$CBIPAVdtNavMeshQuery@@@std@@@2@@std@@AAEPAU?$_List_node@U?$pair@$$CBIPAVdtNavMeshQuery@@@std@@PAX@2@PAU32@QAU32@@Z 10027470 f i MoveMap.obj
 0001:00026630       ?_Unchecked_erase@?$list@U?$pair@$$CBI_K@std@@V?$allocator@U?$pair@$$CBI_K@std@@@2@@std@@AAEPAU?$_List_node@U?$pair@$$CBI_K@std@@PAX@2@PAU32@QAU32@@Z 10027630 f i MoveMap.obj
 0001:000267f0       ?_Unchecked_splice@?$_List_val@U?$_List_simple_types@U?$pair@$$CBIPAUMMapData@MMAP@@@std@@@std@@@std@@SAPAU?$_List_node@U?$pair@$$CBIPAUMMapData@MMAP@@@std@@PAX@2@QAU32@00@Z 100277f0 f i MoveMap.obj
 0001:000267f0       ?_Unchecked_splice@?$_List_val@U?$_List_simple_types@U?$pair@$$CBIPAVdtNavMeshQuery@@@std@@@std@@@std@@SAPAU?$_List_node@U?$pair@$$CBIPAVdtNavMeshQuery@@@std@@PAX@2@QAU32@00@Z 100277f0 f i MoveMap.obj
 0001:000267f0       ?_Unchecked_splice@?$_List_val@U?$_List_simple_types@U?$pair@$$CBI_K@std@@@std@@@std@@SAPAU?$_List_node@U?$pair@$$CBI_K@std@@PAX@2@QAU32@00@Z 100277f0 f i MoveMap.obj
 0001:00026880       ?_Unwrapped@?$_String_iterator@V?$_String_val@U?$_Simple_types@_W@std@@@std@@@std@@QBEPA_WXZ 10027880 f i MoveMap.obj
 0001:000268c0       ?_Verify_range@std@@YAXABV?$_String_const_iterator@V?$_String_val@U?$_Simple_types@_W@std@@@std@@@1@0@Z 100278c0 f i MoveMap.obj
 0001:000269a0       ?_Xlen_string@std@@YAXXZ   100279a0 f i MoveMap.obj
 0001:000269d0       ?_Xran@?$_String_val@U?$_Simple_types@D@std@@@std@@SAXXZ 100279d0 f i MoveMap.obj
 0001:00026a00       ?__empty_global_delete@@YAXPAXI@Z 10027a00 f i MoveMap.obj
 0001:00026a00       ?__global_delete@@YAXPAXI@Z 10027a00 f i MoveMap.obj
 0001:00026a20       ?allocate@?$allocator@D@std@@QAEPADI@Z 10027a20 f i MoveMap.obj
 0001:00026a60       ?allocate@?$allocator@U?$_List_node@U?$pair@$$CBIPAUMMapData@MMAP@@@std@@PAX@std@@@std@@QAEPAU?$_List_node@U?$pair@$$CBIPAUMMapData@MMAP@@@std@@PAX@2@I@Z 10027a60 f i MoveMap.obj
 0001:00026a60       ?allocate@?$allocator@U?$_List_node@U?$pair@$$CBIPAVdtNavMeshQuery@@@std@@PAX@std@@@std@@QAEPAU?$_List_node@U?$pair@$$CBIPAVdtNavMeshQuery@@@std@@PAX@2@I@Z 10027a60 f i MoveMap.obj
 0001:00026aa0       ?allocate@?$allocator@U?$_List_node@U?$pair@$$CBI_K@std@@PAX@std@@@std@@QAEPAU?$_List_node@U?$pair@$$CBI_K@std@@PAX@2@I@Z 10027aa0 f i MoveMap.obj
 0001:00026ae0       ?allocate@?$allocator@V?$_List_unchecked_iterator@V?$_List_val@U?$_List_simple_types@U?$pair@$$CBIPAUMMapData@MMAP@@@std@@@std@@@std@@@std@@@std@@QAEPAV?$_List_unchecked_iterator@V?$_List_val@U?$_List_simple_types@U?$pair@$$CBIPAUMMapData@MMAP@@@std@@@std@@@std@@@2@I@Z 10027ae0 f i MoveMap.obj
 0001:00026ae0       ?allocate@?$allocator@V?$_List_unchecked_iterator@V?$_List_val@U?$_List_simple_types@U?$pair@$$CBIPAVdtNavMeshQuery@@@std@@@std@@@std@@@std@@@std@@QAEPAV?$_List_unchecked_iterator@V?$_List_val@U?$_List_simple_types@U?$pair@$$CBIPAVdtNavMeshQuery@@@std@@@std@@@std@@@2@I@Z 10027ae0 f i MoveMap.obj
 0001:00026ae0       ?allocate@?$allocator@V?$_List_unchecked_iterator@V?$_List_val@U?$_List_simple_types@U?$pair@$$CBI_K@std@@@std@@@std@@@std@@@std@@QAEPAV?$_List_unchecked_iterator@V?$_List_val@U?$_List_simple_types@U?$pair@$$CBI_K@std@@@std@@@std@@@2@I@Z 10027ae0 f i MoveMap.obj
 0001:00026b20       ?allocate@?$allocator@_W@std@@QAEPA_WI@Z 10027b20 f i MoveMap.obj
 0001:00026b60       ?append@?$basic_string@DU?$char_traits@D@std@@V?$allocator@D@2@@std@@QAEAAV12@ABV12@@Z 10027b60 f i MoveMap.obj
 0001:00026bc0       ?append@?$basic_string@DU?$char_traits@D@std@@V?$allocator@D@2@@std@@QAEAAV12@QBD@Z 10027bc0 f i MoveMap.obj
 0001:00026c10       ?append@?$basic_string@DU?$char_traits@D@std@@V?$allocator@D@2@@std@@QAEAAV12@QBDI@Z 10027c10 f i MoveMap.obj
 0001:00026cd0       ?assign@?$_Char_traits@DH@std@@SAXAADABD@Z 10027cd0 f i MoveMap.obj
 0001:00026cf0       ?assign@?$_Char_traits@_WG@std@@SAXAA_WAB_W@Z 10027cf0 f i MoveMap.obj
 0001:00026d20       ?assign@?$_Narrow_char_traits@DH@std@@SAXAADABD@Z 10027d20 f i MoveMap.obj
 0001:00026d60       ?assign@?$_WChar_traits@_W@std@@SAXAA_WAB_W@Z 10027d60 f i MoveMap.obj
 0001:00026db0       ?assign@?$basic_string@DU?$char_traits@D@std@@V?$allocator@D@2@@std@@QAEAAV12@QBDI@Z 10027db0 f i MoveMap.obj
 0001:00026e50       ?begin@?$_Hash@V?$_Umap_traits@IPAUMMapData@MMAP@@V?$_Uhash_compare@IU?$hash@I@std@@U?$equal_to@I@2@@std@@V?$allocator@U?$pair@$$CBIPAUMMapData@MMAP@@@std@@@4@$0A@@std@@@std@@QAE?AV?$_List_iterator@V?$_List_val@U?$_List_simple_types@U?$pair@$$CBIPAUMMapData@MMAP@@@std@@@std@@@std@@@2@XZ 10027e50 f i MoveMap.obj
 0001:00026e50       ?begin@?$_Hash@V?$_Umap_traits@IPAVdtNavMeshQuery@@V?$_Uhash_compare@IU?$hash@I@std@@U?$equal_to@I@2@@std@@V?$allocator@U?$pair@$$CBIPAVdtNavMeshQuery@@@std@@@3@$0A@@std@@@std@@QAE?AV?$_List_iterator@V?$_List_val@U?$_List_simple_types@U?$pair@$$CBIPAVdtNavMeshQuery@@@std@@@std@@@std@@@2@XZ 10027e50 f i MoveMap.obj
 0001:00026ea0       ?begin@?$basic_string@_WU?$char_traits@_W@std@@V?$allocator@_W@2@@std@@QAE?AV?$_String_iterator@V?$_String_val@U?$_Simple_types@_W@std@@@std@@@2@XZ 10027ea0 f i MoveMap.obj
 0001:00026f10       ?begin@?$list@U?$pair@$$CBIPAUMMapData@MMAP@@@std@@V?$allocator@U?$pair@$$CBIPAUMMapData@MMAP@@@std@@@2@@std@@QAE?AV?$_List_iterator@V?$_List_val@U?$_List_simple_types@U?$pair@$$CBIPAUMMapData@MMAP@@@std@@@std@@@std@@@2@XZ 10027f10 f i MoveMap.obj
 0001:00026f10       ?begin@?$list@U?$pair@$$CBIPAVdtNavMeshQuery@@@std@@V?$allocator@U?$pair@$$CBIPAVdtNavMeshQuery@@@std@@@2@@std@@QAE?AV?$_List_iterator@V?$_List_val@U?$_List_simple_types@U?$pair@$$CBIPAVdtNavMeshQuery@@@std@@@std@@@std@@@2@XZ 10027f10 f i MoveMap.obj
 0001:00026f80       ?bucket@?$_Hash@V?$_Umap_traits@IPAUMMapData@MMAP@@V?$_Uhash_compare@IU?$hash@I@std@@U?$equal_to@I@2@@std@@V?$allocator@U?$pair@$$CBIPAUMMapData@MMAP@@@std@@@4@$0A@@std@@@std@@QBEIABI@Z 10027f80 f i MoveMap.obj
 0001:00026f80       ?bucket@?$_Hash@V?$_Umap_traits@IPAVdtNavMeshQuery@@V?$_Uhash_compare@IU?$hash@I@std@@U?$equal_to@I@2@@std@@V?$allocator@U?$pair@$$CBIPAVdtNavMeshQuery@@@std@@@3@$0A@@std@@@std@@QBEIABI@Z 10027f80 f i MoveMap.obj
 0001:00026f80       ?bucket@?$_Hash@V?$_Umap_traits@I_KV?$_Uhash_compare@IU?$hash@I@std@@U?$equal_to@I@2@@std@@V?$allocator@U?$pair@$$CBI_K@std@@@2@$0A@@std@@@std@@QBEIABI@Z 10027f80 f i MoveMap.obj
 0001:00026fe0       ?bucket_count@?$_Hash@V?$_Umap_traits@IPAUMMapData@MMAP@@V?$_Uhash_compare@IU?$hash@I@std@@U?$equal_to@I@2@@std@@V?$allocator@U?$pair@$$CBIPAUMMapData@MMAP@@@std@@@4@$0A@@std@@@std@@QBEIXZ 10027fe0 f i MoveMap.obj
 0001:00026fe0       ?bucket_count@?$_Hash@V?$_Umap_traits@IPAVdtNavMeshQuery@@V?$_Uhash_compare@IU?$hash@I@std@@U?$equal_to@I@2@@std@@V?$allocator@U?$pair@$$CBIPAVdtNavMeshQuery@@@std@@@3@$0A@@std@@@std@@QBEIXZ 10027fe0 f i MoveMap.obj
 0001:00026fe0       ?bucket_count@?$_Hash@V?$_Umap_traits@I_KV?$_Uhash_compare@IU?$hash@I@std@@U?$equal_to@I@2@@std@@V?$allocator@U?$pair@$$CBI_K@std@@@2@$0A@@std@@@std@@QBEIXZ 10027fe0 f i MoveMap.obj
 0001:00027010       ?c_str@?$basic_string@DU?$char_traits@D@std@@V?$allocator@D@2@@std@@QBEPBDXZ 10028010 f i MoveMap.obj
 0001:00027040       ?capacity@?$_Hash_vec@V?$allocator@V?$_List_unchecked_iterator@V?$_List_val@U?$_List_simple_types@U?$pair@$$CBIPAUMMapData@MMAP@@@std@@@std@@@std@@@std@@@std@@@std@@QBEIXZ 10028040 f i MoveMap.obj
 0001:00027040       ?capacity@?$_Hash_vec@V?$allocator@V?$_List_unchecked_iterator@V?$_List_val@U?$_List_simple_types@U?$pair@$$CBIPAVdtNavMeshQuery@@@std@@@std@@@std@@@std@@@std@@@std@@QBEIXZ 10028040 f i MoveMap.obj
 0001:00027040       ?capacity@?$_Hash_vec@V?$allocator@V?$_List_unchecked_iterator@V?$_List_val@U?$_List_simple_types@U?$pair@$$CBI_K@std@@@std@@@std@@@std@@@std@@@std@@QBEIXZ 10028040 f i MoveMap.obj
 0001:00027080       ?clear@?$_Hash@V?$_Umap_traits@IPAUMMapData@MMAP@@V?$_Uhash_compare@IU?$hash@I@std@@U?$equal_to@I@2@@std@@V?$allocator@U?$pair@$$CBIPAUMMapData@MMAP@@@std@@@4@$0A@@std@@@std@@QAEXXZ 10028080 f i MoveMap.obj
 0001:00027080       ?clear@?$_Hash@V?$_Umap_traits@IPAVdtNavMeshQuery@@V?$_Uhash_compare@IU?$hash@I@std@@U?$equal_to@I@2@@std@@V?$allocator@U?$pair@$$CBIPAVdtNavMeshQuery@@@std@@@3@$0A@@std@@@std@@QAEXXZ 10028080 f i MoveMap.obj
 0001:00027170       ?clear@?$_Hash@V?$_Umap_traits@I_KV?$_Uhash_compare@IU?$hash@I@std@@U?$equal_to@I@2@@std@@V?$allocator@U?$pair@$$CBI_K@std@@@2@$0A@@std@@@std@@QAEXXZ 10028170 f i MoveMap.obj
 0001:00027260       ?clear@?$list@U?$pair@$$CBIPAUMMapData@MMAP@@@std@@V?$allocator@U?$pair@$$CBIPAUMMapData@MMAP@@@std@@@2@@std@@QAEXXZ 10028260 f i MoveMap.obj
 0001:00027260       ?clear@?$list@U?$pair@$$CBIPAVdtNavMeshQuery@@@std@@V?$allocator@U?$pair@$$CBIPAVdtNavMeshQuery@@@std@@@2@@std@@QAEXXZ 10028260 f i MoveMap.obj
 0001:000272f0       ?clear@?$list@U?$pair@$$CBI_K@std@@V?$allocator@U?$pair@$$CBI_K@std@@@2@@std@@QAEXXZ 100282f0 f i MoveMap.obj
 0001:00027380       ?compare@?$_Narrow_char_traits@DH@std@@SAHQBD0I@Z 10028380 f i MoveMap.obj
 0001:000273c0       ?copy@?$_Char_traits@DH@std@@SAPADQADQBDI@Z 100283c0 f i MoveMap.obj
 0001:00027440       ?copy@?$_Char_traits@_WG@std@@SAPA_WQA_WQB_WI@Z 10028440 f i MoveMap.obj
 0001:000274c0       ?deallocate@?$_Default_allocator_traits@V?$allocator@U?$_List_node@U?$pair@$$CBIPAUMMapData@MMAP@@@std@@PAX@std@@@std@@@std@@SAXAAV?$allocator@U?$_List_node@U?$pair@$$CBIPAUMMapData@MMAP@@@std@@PAX@std@@@2@QAU?$_List_node@U?$pair@$$CBIPAUMMapData@MMAP@@@std@@PAX@2@I@Z 100284c0 f i MoveMap.obj
 0001:000274c0       ?deallocate@?$_Default_allocator_traits@V?$allocator@U?$_List_node@U?$pair@$$CBIPAVdtNavMeshQuery@@@std@@PAX@std@@@std@@@std@@SAXAAV?$allocator@U?$_List_node@U?$pair@$$CBIPAVdtNavMeshQuery@@@std@@PAX@std@@@2@QAU?$_List_node@U?$pair@$$CBIPAVdtNavMeshQuery@@@std@@PAX@2@I@Z 100284c0 f i MoveMap.obj
 0001:00027510       ?deallocate@?$_Default_allocator_traits@V?$allocator@U?$_List_node@U?$pair@$$CBI_K@std@@PAX@std@@@std@@@std@@SAXAAV?$allocator@U?$_List_node@U?$pair@$$CBI_K@std@@PAX@std@@@2@QAU?$_List_node@U?$pair@$$CBI_K@std@@PAX@2@I@Z 10028510 f i MoveMap.obj
 0001:00027560       ?deallocate@?$allocator@D@std@@QAEXQADI@Z 10028560 f i MoveMap.obj
 0001:00027600       ?deallocate@?$allocator@U?$_List_node@U?$pair@$$CBIPAUMMapData@MMAP@@@std@@PAX@std@@@std@@QAEXQAU?$_List_node@U?$pair@$$CBIPAUMMapData@MMAP@@@std@@PAX@2@I@Z 10028600 f i MoveMap.obj
 0001:00027600       ?deallocate@?$allocator@U?$_List_node@U?$pair@$$CBIPAVdtNavMeshQuery@@@std@@PAX@std@@@std@@QAEXQAU?$_List_node@U?$pair@$$CBIPAVdtNavMeshQuery@@@std@@PAX@2@I@Z 10028600 f i MoveMap.obj
 0001:000276a0       ?deallocate@?$allocator@U?$_List_node@U?$pair@$$CBI_K@std@@PAX@std@@@std@@QAEXQAU?$_List_node@U?$pair@$$CBI_K@std@@PAX@2@I@Z 100286a0 f i MoveMap.obj
 0001:00027740       ?deallocate@?$allocator@V?$_List_unchecked_iterator@V?$_List_val@U?$_List_simple_types@U?$pair@$$CBIPAUMMapData@MMAP@@@std@@@std@@@std@@@std@@@std@@QAEXQAV?$_List_unchecked_iterator@V?$_List_val@U?$_List_simple_types@U?$pair@$$CBIPAUMMapData@MMAP@@@std@@@std@@@std@@@2@I@Z 10028740 f i MoveMap.obj
 0001:00027740       ?deallocate@?$allocator@V?$_List_unchecked_iterator@V?$_List_val@U?$_List_simple_types@U?$pair@$$CBIPAVdtNavMeshQuery@@@std@@@std@@@std@@@std@@@std@@QAEXQAV?$_List_unchecked_iterator@V?$_List_val@U?$_List_simple_types@U?$pair@$$CBIPAVdtNavMeshQuery@@@std@@@std@@@std@@@2@I@Z 10028740 f i MoveMap.obj
 0001:00027740       ?deallocate@?$allocator@V?$_List_unchecked_iterator@V?$_List_val@U?$_List_simple_types@U?$pair@$$CBI_K@std@@@std@@@std@@@std@@@std@@QAEXQAV?$_List_unchecked_iterator@V?$_List_val@U?$_List_simple_types@U?$pair@$$CBI_K@std@@@std@@@std@@@2@I@Z 10028740 f i MoveMap.obj
 0001:000277e0       ?deallocate@?$allocator@_W@std@@QAEXQA_WI@Z 100287e0 f i MoveMap.obj
 0001:00027880       ?end@?$_Hash@V?$_Umap_traits@IPAUMMapData@MMAP@@V?$_Uhash_compare@IU?$hash@I@std@@U?$equal_to@I@2@@std@@V?$allocator@U?$pair@$$CBIPAUMMapData@MMAP@@@std@@@4@$0A@@std@@@std@@QAE?AV?$_List_iterator@V?$_List_val@U?$_List_simple_types@U?$pair@$$CBIPAUMMapData@MMAP@@@std@@@std@@@std@@@2@XZ 10028880 f i MoveMap.obj
 0001:00027880       ?end@?$_Hash@V?$_Umap_traits@IPAVdtNavMeshQuery@@V?$_Uhash_compare@IU?$hash@I@std@@U?$equal_to@I@2@@std@@V?$allocator@U?$pair@$$CBIPAVdtNavMeshQuery@@@std@@@3@$0A@@std@@@std@@QAE?AV?$_List_iterator@V?$_List_val@U?$_List_simple_types@U?$pair@$$CBIPAVdtNavMeshQuery@@@std@@@std@@@std@@@2@XZ 10028880 f i MoveMap.obj
 0001:00027880       ?end@?$_Hash@V?$_Umap_traits@I_KV?$_Uhash_compare@IU?$hash@I@std@@U?$equal_to@I@2@@std@@V?$allocator@U?$pair@$$CBI_K@std@@@2@$0A@@std@@@std@@QAE?AV?$_List_iterator@V?$_List_val@U?$_List_simple_types@U?$pair@$$CBI_K@std@@@std@@@std@@@2@XZ 10028880 f i MoveMap.obj
 0001:000278d0       ?end@?$basic_string@_WU?$char_traits@_W@std@@V?$allocator@_W@2@@std@@QAE?AV?$_String_iterator@V?$_String_val@U?$_Simple_types@_W@std@@@std@@@2@XZ 100288d0 f i MoveMap.obj
 0001:00027950       ?end@?$list@U?$pair@$$CBIPAUMMapData@MMAP@@@std@@V?$allocator@U?$pair@$$CBIPAUMMapData@MMAP@@@std@@@2@@std@@QAE?AV?$_List_iterator@V?$_List_val@U?$_List_simple_types@U?$pair@$$CBIPAUMMapData@MMAP@@@std@@@std@@@std@@@2@XZ 10028950 f i MoveMap.obj
 0001:00027950       ?end@?$list@U?$pair@$$CBIPAVdtNavMeshQuery@@@std@@V?$allocator@U?$pair@$$CBIPAVdtNavMeshQuery@@@std@@@2@@std@@QAE?AV?$_List_iterator@V?$_List_val@U?$_List_simple_types@U?$pair@$$CBIPAVdtNavMeshQuery@@@std@@@std@@@std@@@2@XZ 10028950 f i MoveMap.obj
 0001:00027950       ?end@?$list@U?$pair@$$CBI_K@std@@V?$allocator@U?$pair@$$CBI_K@std@@@2@@std@@QAE?AV?$_List_iterator@V?$_List_val@U?$_List_simple_types@U?$pair@$$CBI_K@std@@@std@@@std@@@2@XZ 10028950 f i MoveMap.obj
 0001:000279c0       ?eof@?$_Narrow_char_traits@DH@std@@SAHXZ 100289c0 f i MoveMap.obj
 0001:000279e0       ?eq@?$_Narrow_char_traits@DH@std@@SA_NDD@Z 100289e0 f i MoveMap.obj
 0001:00027a30       ?eq_int_type@?$_Narrow_char_traits@DH@std@@SA_NHH@Z 10028a30 f i MoveMap.obj
 0001:00027a70       ?erase@?$basic_string@DU?$char_traits@D@std@@V?$allocator@D@2@@std@@QAEAAV12@II@Z 10028a70 f i MoveMap.obj
 0001:00027ad0       ?find@?$_Hash@V?$_Umap_traits@IPAUMMapData@MMAP@@V?$_Uhash_compare@IU?$hash@I@std@@U?$equal_to@I@2@@std@@V?$allocator@U?$pair@$$CBIPAUMMapData@MMAP@@@std@@@4@$0A@@std@@@std@@QAE?AV?$_List_iterator@V?$_List_val@U?$_List_simple_types@U?$pair@$$CBIPAUMMapData@MMAP@@@std@@@std@@@std@@@2@ABI@Z 10028ad0 f i MoveMap.obj
 0001:00027ad0       ?find@?$_Hash@V?$_Umap_traits@IPAVdtNavMeshQuery@@V?$_Uhash_compare@IU?$hash@I@std@@U?$equal_to@I@2@@std@@V?$allocator@U?$pair@$$CBIPAVdtNavMeshQuery@@@std@@@3@$0A@@std@@@std@@QAE?AV?$_List_iterator@V?$_List_val@U?$_List_simple_types@U?$pair@$$CBIPAVdtNavMeshQuery@@@std@@@std@@@std@@@2@ABI@Z 10028ad0 f i MoveMap.obj
 0001:00027ad0       ?find@?$_Hash@V?$_Umap_traits@I_KV?$_Uhash_compare@IU?$hash@I@std@@U?$equal_to@I@2@@std@@V?$allocator@U?$pair@$$CBI_K@std@@@2@$0A@@std@@@std@@QAE?AV?$_List_iterator@V?$_List_val@U?$_List_simple_types@U?$pair@$$CBI_K@std@@@std@@@std@@@2@ABI@Z 10028ad0 f i MoveMap.obj
 0001:00027b50       ?find@?$_Narrow_char_traits@DH@std@@SAPBDQBDIABD@Z 10028b50 f i MoveMap.obj
 0001:00027ba0       ?find@?$basic_string@DU?$char_traits@D@std@@V?$allocator@D@2@@std@@QBEIABV12@I@Z 10028ba0 f i MoveMap.obj
 0001:00027c20       ?insert@?$basic_string@DU?$char_traits@D@std@@V?$allocator@D@2@@std@@QAEAAV12@IABV12@@Z 10028c20 f i MoveMap.obj
 0001:00027c80       ?insert@?$basic_string@DU?$char_traits@D@std@@V?$allocator@D@2@@std@@QAEAAV12@IQBDI@Z 10028c80 f i MoveMap.obj
 0001:00027de0       ?length@?$_Narrow_char_traits@DH@std@@SAIQBD@Z 10028de0 f i MoveMap.obj
 0001:00027e40       ?length@?$_WChar_traits@_W@std@@SAIPB_W@Z 10028e40 f i MoveMap.obj
 0001:00027ed0       ?length@?$basic_string@DU?$char_traits@D@std@@V?$allocator@D@2@@std@@QBEIXZ 10028ed0 f i MoveMap.obj
 0001:00027f00       ?max_load_factor@?$_Hash@V?$_Umap_traits@IPAUMMapData@MMAP@@V?$_Uhash_compare@IU?$hash@I@std@@U?$equal_to@I@2@@std@@V?$allocator@U?$pair@$$CBIPAUMMapData@MMAP@@@std@@@4@$0A@@std@@@std@@QBEMXZ 10028f00 f i MoveMap.obj
 0001:00027f00       ?max_load_factor@?$_Hash@V?$_Umap_traits@IPAVdtNavMeshQuery@@V?$_Uhash_compare@IU?$hash@I@std@@U?$equal_to@I@2@@std@@V?$allocator@U?$pair@$$CBIPAVdtNavMeshQuery@@@std@@@3@$0A@@std@@@std@@QBEMXZ 10028f00 f i MoveMap.obj
 0001:00027f00       ?max_load_factor@?$_Hash@V?$_Umap_traits@I_KV?$_Uhash_compare@IU?$hash@I@std@@U?$equal_to@I@2@@std@@V?$allocator@U?$pair@$$CBI_K@std@@@2@$0A@@std@@@std@@QBEMXZ 10028f00 f i MoveMap.obj
 0001:00027f30       ?max_size@?$_Default_allocator_traits@V?$allocator@D@std@@@std@@SAIABV?$allocator@D@2@@Z 10028f30 f i MoveMap.obj
 0001:00027f50       ?max_size@?$_Default_allocator_traits@V?$allocator@U?$_List_node@U?$pair@$$CBIPAUMMapData@MMAP@@@std@@PAX@std@@@std@@@std@@SAIABV?$allocator@U?$_List_node@U?$pair@$$CBIPAUMMapData@MMAP@@@std@@PAX@std@@@2@@Z 10028f50 f i MoveMap.obj
 0001:00027f50       ?max_size@?$_Default_allocator_traits@V?$allocator@U?$_List_node@U?$pair@$$CBIPAVdtNavMeshQuery@@@std@@PAX@std@@@std@@@std@@SAIABV?$allocator@U?$_List_node@U?$pair@$$CBIPAVdtNavMeshQuery@@@std@@PAX@std@@@2@@Z 10028f50 f i MoveMap.obj
 0001:00027f70       ?max_size@?$_Default_allocator_traits@V?$allocator@U?$_List_node@U?$pair@$$CBI_K@std@@PAX@std@@@std@@@std@@SAIABV?$allocator@U?$_List_node@U?$pair@$$CBI_K@std@@PAX@std@@@2@@Z 10028f70 f i MoveMap.obj
 0001:00027f90       ?max_size@?$_Default_allocator_traits@V?$allocator@V?$_List_unchecked_iterator@V?$_List_val@U?$_List_simple_types@U?$pair@$$CBIPAUMMapData@MMAP@@@std@@@std@@@std@@@std@@@std@@@std@@SAIABV?$allocator@V?$_List_unchecked_iterator@V?$_List_val@U?$_List_simple_types@U?$pair@$$CBIPAUMMapData@MMAP@@@std@@@std@@@std@@@std@@@2@@Z 10028f90 f i MoveMap.obj
 0001:00027f90       ?max_size@?$_Default_allocator_traits@V?$allocator@V?$_List_unchecked_iterator@V?$_List_val@U?$_List_simple_types@U?$pair@$$CBIPAVdtNavMeshQuery@@@std@@@std@@@std@@@std@@@std@@@std@@SAIABV?$allocator@V?$_List_unchecked_iterator@V?$_List_val@U?$_List_simple_types@U?$pair@$$CBIPAVdtNavMeshQuery@@@std@@@std@@@std@@@std@@@2@@Z 10028f90 f i MoveMap.obj
 0001:00027f90       ?max_size@?$_Default_allocator_traits@V?$allocator@V?$_List_unchecked_iterator@V?$_List_val@U?$_List_simple_types@U?$pair@$$CBI_K@std@@@std@@@std@@@std@@@std@@@std@@SAIABV?$allocator@V?$_List_unchecked_iterator@V?$_List_val@U?$_List_simple_types@U?$pair@$$CBI_K@std@@@std@@@std@@@std@@@2@@Z 10028f90 f i MoveMap.obj
 0001:00027fb0       ?max_size@?$_Default_allocator_traits@V?$allocator@_W@std@@@std@@SAIABV?$allocator@_W@2@@Z 10028fb0 f i MoveMap.obj
 0001:00027fd0       ?max_size@?$_Hash_vec@V?$allocator@V?$_List_unchecked_iterator@V?$_List_val@U?$_List_simple_types@U?$pair@$$CBIPAUMMapData@MMAP@@@std@@@std@@@std@@@std@@@std@@@std@@QBEIXZ 10028fd0 f i MoveMap.obj
 0001:00027fd0       ?max_size@?$_Hash_vec@V?$allocator@V?$_List_unchecked_iterator@V?$_List_val@U?$_List_simple_types@U?$pair@$$CBIPAVdtNavMeshQuery@@@std@@@std@@@std@@@std@@@std@@@std@@QBEIXZ 10028fd0 f i MoveMap.obj
 0001:00027fd0       ?max_size@?$_Hash_vec@V?$allocator@V?$_List_unchecked_iterator@V?$_List_val@U?$_List_simple_types@U?$pair@$$CBI_K@std@@@std@@@std@@@std@@@std@@@std@@QBEIXZ 10028fd0 f i MoveMap.obj
 0001:00028040       ?max_size@?$basic_string@DU?$char_traits@D@std@@V?$allocator@D@2@@std@@QBEIXZ 10029040 f i MoveMap.obj
 0001:00028120       ?max_size@?$basic_string@_WU?$char_traits@_W@std@@V?$allocator@_W@2@@std@@QBEIXZ 10029120 f i MoveMap.obj
 0001:00028200       ?max_size@?$list@U?$pair@$$CBIPAUMMapData@MMAP@@@std@@V?$allocator@U?$pair@$$CBIPAUMMapData@MMAP@@@std@@@2@@std@@QBEIXZ 10029200 f i MoveMap.obj
 0001:00028200       ?max_size@?$list@U?$pair@$$CBIPAVdtNavMeshQuery@@@std@@V?$allocator@U?$pair@$$CBIPAVdtNavMeshQuery@@@std@@@2@@std@@QBEIXZ 10029200 f i MoveMap.obj
 0001:00028270       ?max_size@?$list@U?$pair@$$CBI_K@std@@V?$allocator@U?$pair@$$CBI_K@std@@@2@@std@@QBEIXZ 10029270 f i MoveMap.obj
 0001:000282e0       ?move@?$_Char_traits@DH@std@@SAPADQADQBDI@Z 100292e0 f i MoveMap.obj
 0001:000283d0       ?not_eof@?$_Narrow_char_traits@DH@std@@SAHH@Z 100293d0 f i MoveMap.obj
 0001:00028430       ?overflow@?$basic_stringbuf@DU?$char_traits@D@std@@V?$allocator@D@2@@std@@MAEHH@Z 10029430 f i MoveMap.obj
 0001:00028710       ?pbackfail@?$basic_stringbuf@DU?$char_traits@D@std@@V?$allocator@D@2@@std@@MAEHH@Z 10029710 f i MoveMap.obj
 0001:00028840       ?pointer_to@?$pointer_traits@PAD@std@@SAPADAAD@Z 10029840 f i MoveMap.obj
 0001:00028840       ?pointer_to@?$pointer_traits@PAU?$pair@$$CBIPAUMMapData@MMAP@@@std@@@std@@SAPAU?$pair@$$CBIPAUMMapData@MMAP@@@2@AAU32@@Z 10029840 f i MoveMap.obj
 0001:00028840       ?pointer_to@?$pointer_traits@PAU?$pair@$$CBIPAVdtNavMeshQuery@@@std@@@std@@SAPAU?$pair@$$CBIPAVdtNavMeshQuery@@@2@AAU32@@Z 10029840 f i MoveMap.obj
 0001:00028870       ?seekoff@?$basic_stringbuf@DU?$char_traits@D@std@@V?$allocator@D@2@@std@@MAE?AV?$fpos@U_Mbstatet@@@2@_JHH@Z 10029870 f i MoveMap.obj
 0001:00028b50       ?seekpos@?$basic_stringbuf@DU?$char_traits@D@std@@V?$allocator@D@2@@std@@MAE?AV?$fpos@U_Mbstatet@@@2@V32@H@Z 10029b50 f i MoveMap.obj
 0001:00028d70       ?size@?$_Hash_vec@V?$allocator@V?$_List_unchecked_iterator@V?$_List_val@U?$_List_simple_types@U?$pair@$$CBIPAUMMapData@MMAP@@@std@@@std@@@std@@@std@@@std@@@std@@QBEIXZ 10029d70 f i MoveMap.obj
 0001:00028d70       ?size@?$_Hash_vec@V?$allocator@V?$_List_unchecked_iterator@V?$_List_val@U?$_List_simple_types@U?$pair@$$CBIPAVdtNavMeshQuery@@@std@@@std@@@std@@@std@@@std@@@std@@QBEIXZ 10029d70 f i MoveMap.obj
 0001:00028d70       ?size@?$_Hash_vec@V?$allocator@V?$_List_unchecked_iterator@V?$_List_val@U?$_List_simple_types@U?$pair@$$CBI_K@std@@@std@@@std@@@std@@@std@@@std@@QBEIXZ 10029d70 f i MoveMap.obj
 0001:00028db0       ?str@?$basic_ostringstream@DU?$char_traits@D@std@@V?$allocator@D@2@@std@@QGBE?AV?$basic_string@DU?$char_traits@D@std@@V?$allocator@D@2@@2@XZ 10029db0 f i MoveMap.obj
 0001:00028e10       ?str@?$basic_stringbuf@DU?$char_traits@D@std@@V?$allocator@D@2@@std@@QGBE?AV?$basic_string@DU?$char_traits@D@std@@V?$allocator@D@2@@2@XZ 10029e10 f i MoveMap.obj
 0001:00028f20       ?substr@?$basic_string@DU?$char_traits@D@std@@V?$allocator@D@2@@std@@QGBE?AV12@II@Z 10029f20 f i MoveMap.obj
 0001:00028f90       ?to_char_type@?$_Narrow_char_traits@DH@std@@SADH@Z 10029f90 f i MoveMap.obj
 0001:00028f90       ?to_int_type@?$_Narrow_char_traits@DH@std@@SAHD@Z 10029f90 f i MoveMap.obj
 0001:00028fb0       ?underflow@?$basic_stringbuf@DU?$char_traits@D@std@@V?$allocator@D@2@@std@@MAEHXZ 10029fb0 f i MoveMap.obj
 0001:00029150       ?GetInstance@Navigation@@SAPAV1@XZ 1002a150 f   Navigation.obj
 0001:00029230       ?Initialize@Navigation@@QAEXXZ 1002a230 f   Navigation.obj
 0001:00029300       ?Release@Navigation@@QAEXXZ 1002a300 f   Navigation.obj
 0001:00029350       ?CalculatePath@Navigation@@QAEPAUXYZ@@IU2@0_NPAH@Z 1002a350 f   Navigation.obj
 0001:000298a0       ?FreePathArr@Navigation@@QAEXPAUXYZ@@@Z 1002a8a0 f   Navigation.obj
 0001:00029910       ?CalculatePathEx@Navigation@@QAEPAUPathResult@@IUXYZ@@0_N@Z 1002a910 f   Navigation.obj
 0001:0002a160       ?FreePathResult@Navigation@@QAEXPAUPathResult@@@Z 1002b160 f   Navigation.obj
 0001:0002a230       ?GetMmapsPath@Navigation@@QAE?AV?$basic_string@DU?$char_traits@D@std@@V?$allocator@D@2@@std@@XZ 1002b230 f   Navigation.obj
 0001:0002a4c0       ?FindNearestPoly@Navigation@@QAE_NIUXYZ@@MPAU2@@Z 1002b4c0 f   Navigation.obj
 0001:0002a6a0       ?FindPolysAroundCircle@Navigation@@QAEHIUXYZ@@MPAU2@H@Z 1002b6a0 f   Navigation.obj
 0001:0002ad40       ?FindDistanceToWall@Navigation@@QAEMIUXYZ@@MPAU2@@Z 1002bd40 f   Navigation.obj
 0001:0002afc0       ?IsPointOnNavMesh@Navigation@@QAE_NIUXYZ@@M@Z 1002bfc0 f   Navigation.obj
 0001:0002b160       ?FindRandomPointAroundCircle@Navigation@@QAE?AUXYZ@@IU2@M@Z 1002c160 f   Navigation.obj
 0001:0002b3e0       ?HasLineOfSight@Navigation@@QAE_NIUXYZ@@0@Z 1002c3e0 f   Navigation.obj
 0001:0002ba90       ?FindNearestPolyRef@Navigation@@QAE_NIUXYZ@@0PA_KPAU2@@Z 1002ca90 f   Navigation.obj
 0001:0002bc60       ?GetPolyHeight@Navigation@@QAE_NI_KUXYZ@@PAM@Z 1002cc60 f   Navigation.obj
 0001:0002bda0       ?ClosestPointOnPoly@Navigation@@QAE_NI_KUXYZ@@PAU2@@Z 1002cda0 f   Navigation.obj
 0001:0002bf20       ?ClosestPointOnPolyBoundary@Navigation@@QAE_NI_KUXYZ@@PAU2@@Z 1002cf20 f   Navigation.obj
 0001:0002c080       ?QueryPolygons@Navigation@@QAEHIUXYZ@@0PA_KH@Z 1002d080 f   Navigation.obj
 0001:0002c2d0       ?FindLocalNeighbourhood@Navigation@@QAEHI_KUXYZ@@MPA_K2H@Z 1002d2d0 f   Navigation.obj
 0001:0002c5f0       ?GetPolyWallSegments@Navigation@@QAEHI_KPAUXYZ@@1H@Z 1002d5f0 f   Navigation.obj
 0001:0002c950       ?InitSlicedFindPath@Navigation@@QAE_NIUXYZ@@0@Z 1002d950 f   Navigation.obj
 0001:0002cbc0       ?UpdateSlicedFindPath@Navigation@@QAE_NH@Z 1002dbc0 f   Navigation.obj
 0001:0002ccc0       ?UpdateSlicedFindPathMs@Navigation@@QAE_NM@Z 1002dcc0 f   Navigation.obj
 0001:0002ce50       ?FinalizeSlicedFindPath@Navigation@@QAEPAUXYZ@@HPAH@Z 1002de50 f   Navigation.obj
 0001:0002dad0       ?SetIncludeFlags@Navigation@@QAEXG@Z 1002ead0 f   Navigation.obj
 0001:0002db30       ?SetExcludeFlags@Navigation@@QAEXG@Z 1002eb30 f   Navigation.obj
 0001:0002db90       ?SetAreaCost@Navigation@@QAEXIM@Z 1002eb90 f   Navigation.obj
 0001:0002dc00       ?GetAreaCost@Navigation@@QAEMI@Z 1002ec00 f   Navigation.obj
 0001:0002dc40       ?IsTileLoaded@Navigation@@QAE_NIHH@Z 1002ec40 f   Navigation.obj
 0001:0002dcd0       ?GetLoadedTilesCount@Navigation@@QAEHI@Z 1002ecd0 f   Navigation.obj
 0001:0002dd90       ?UpdatePathFollowing@Navigation@@QAEHIUXYZ@@HPBU2@HH@Z 1002ed90 f   Navigation.obj
 0001:0002e300       ?GetNavMeshQuery@Navigation@@QAEPAVdtNavMeshQuery@@I@Z 1002f300 f   Navigation.obj
 0001:0002e360       ?EnsureTiles@Navigation@@QAEXIUXYZ@@H@Z 1002f360 f   Navigation.obj
 0001:0002e530       ?EnsureTilesDirectional@Navigation@@QAEXIUXYZ@@0H@Z 1002f530 f   Navigation.obj
 0001:0002e780       ?EnsureTilesForPath@Navigation@@QAEXIUXYZ@@0@Z 1002f780 f   Navigation.obj
 0001:0002e920       ?InitializeMapsForContinent@Navigation@@AAEXPAVMMapManager@MMAP@@I@Z 1002f920 f   Navigation.obj
 0001:0002ee30       ?EstimateIterations@Navigation@@AAEHM@Z 1002fe30 f   Navigation.obj
 0001:0002eea0       ?TuneIterationsPerMs@Navigation@@AAEXMH@Z 1002fea0 f   Navigation.obj
 0001:0002ef80       ?WorldToTile@Navigation@@AAEXMMPAH0@Z 1002ff80 f   Navigation.obj
 0001:0002f010       ?EvictLRUTiles@Navigation@@AAEXXZ 10030010 f   Navigation.obj
 0001:0002f2a0       ??$?0$$V@?$_Compressed_pair@V?$allocator@U?$_Tree_node@U?$pair@$$CBUTileKey@Navigation@@_K@std@@PAX@std@@@std@@V?$_Tree_val@U?$_Tree_simple_types@U?$pair@$$CBUTileKey@Navigation@@_K@std@@@std@@@2@$00@std@@QAE@U_Zero_then_variadic_args_t@1@@Z 100302a0 f i Navigation.obj
 0001:0002f2e0       ??$?0ABQAU?$_Tree_node@U?$pair@$$CBUTileKey@Navigation@@_K@std@@PAX@std@@_N$0A@@?$pair@PAU?$_Tree_node@U?$pair@$$CBUTileKey@Navigation@@_K@std@@PAX@std@@_N@std@@QAE@ABQAU?$_Tree_node@U?$pair@$$CBUTileKey@Navigation@@_K@std@@PAX@1@$$QA_N@Z 100302e0 f i Navigation.obj
 0001:0002f2e0       ??$?0PAU?$_Tree_node@U?$pair@$$CBUTileKey@Navigation@@_K@std@@PAX@std@@_N$0A@@?$pair@PAU?$_Tree_node@U?$pair@$$CBUTileKey@Navigation@@_K@std@@PAX@std@@_N@std@@QAE@$$QAPAU?$_Tree_node@U?$pair@$$CBUTileKey@Navigation@@_K@std@@PAX@1@$$QA_N@Z 100302e0 f i Navigation.obj
 0001:0002f320       ??$?0ABU?$less@UTileKey@Navigation@@@std@@U_Zero_then_variadic_args_t@1@@?$_Compressed_pair@U?$less@UTileKey@Navigation@@@std@@V?$_Compressed_pair@V?$allocator@U?$_Tree_node@U?$pair@$$CBUTileKey@Navigation@@_K@std@@PAX@std@@@std@@V?$_Tree_val@U?$_Tree_simple_types@U?$pair@$$CBUTileKey@Navigation@@_K@std@@@std@@@2@$00@2@$00@std@@QAE@U_One_then_variadic_args_t@1@ABU?$less@UTileKey@Navigation@@@1@$$QAU_Zero_then_variadic_args_t@1@@Z 10030320 f i Navigation.obj
 0001:0002f370       ??$?0ABUTileKey@Navigation@@$$Z$$V@?$pair@$$CBUTileKey@Navigation@@_K@std@@QAE@Upiecewise_construct_t@1@V?$tuple@ABUTileKey@Navigation@@@1@V?$tuple@$$V@1@@Z 10030370 f i Navigation.obj
 0001:0002f3d0       ??$?0ABUTileKey@Navigation@@$0A@@?$tuple@ABUTileKey@Navigation@@@std@@QAE@ABUTileKey@Navigation@@@Z 100303d0 f i Navigation.obj
 0001:0002f450       ??$?0ABUTileKey@Navigation@@@?$_Tuple_val@ABUTileKey@Navigation@@@std@@QAE@ABUTileKey@Navigation@@@Z 10030450 f i Navigation.obj
 0001:0002f490       ??$?0ABUpiecewise_construct_t@std@@V?$tuple@ABUTileKey@Navigation@@@1@V?$tuple@$$V@1@@?$_Tree_temp_node@V?$allocator@U?$_Tree_node@U?$pair@$$CBUTileKey@Navigation@@_K@std@@PAX@std@@@std@@@std@@QAE@AAV?$allocator@U?$_Tree_node@U?$pair@$$CBUTileKey@Navigation@@_K@std@@PAX@std@@@1@PAU?$_Tree_node@U?$pair@$$CBUTileKey@Navigation@@_K@std@@PAX@1@ABUpiecewise_construct_t@1@$$QAV?$tuple@ABUTileKey@Navigation@@@1@$$QAV?$tuple@$$V@1@@Z 10030490 f i Navigation.obj
 0001:0002f5a0       ??$?0ABV?$allocator@M@std@@$$V@?$_Compressed_pair@V?$allocator@M@std@@V?$_Vector_val@U?$_Simple_types@M@std@@@2@$00@std@@QAE@U_One_then_variadic_args_t@1@ABV?$allocator@M@1@@Z 100305a0 f i Navigation.obj
 0001:0002f5a0       ??$?0V?$allocator@VVector3@G3D@@@std@@$$V@?$_Compressed_pair@V?$allocator@VVector3@G3D@@@std@@V?$_Vector_val@U?$_Simple_types@VVector3@G3D@@@std@@@2@$00@std@@QAE@U_One_then_variadic_args_t@1@$$QAV?$allocator@VVector3@G3D@@@1@@Z 100305a0 f i Navigation.obj
 0001:0002f5e0       ??$?0ABV?$allocator@_W@std@@$$V@?$_Compressed_pair@V?$allocator@_W@std@@V?$_String_val@U?$_Simple_types@_W@std@@@2@$00@std@@QAE@U_One_then_variadic_args_t@1@ABV?$allocator@_W@1@@Z 100305e0 f i Navigation.obj
 0001:0002f5e0       ??$?0V?$allocator@_W@std@@$$V@?$_Compressed_pair@V?$allocator@_W@std@@V?$_String_val@U?$_Simple_types@_W@std@@@2@$00@std@@QAE@U_One_then_variadic_args_t@1@$$QAV?$allocator@_W@1@@Z 100305e0 f i Navigation.obj
 0001:0002f620       ??$?0M$0A@@?$duration@MU?$ratio@$00$0DOI@@std@@@chrono@std@@QAE@ABM@Z 10030620 f i Navigation.obj
 0001:0002f660       ??$?0M@?$allocator@U_Container_proxy@std@@@std@@QAE@ABV?$allocator@M@1@@Z 10030660 f i Navigation.obj
 0001:0002f660       ??$?0U?$_Tree_node@U?$pair@$$CBUTileKey@Navigation@@_K@std@@PAX@std@@@?$allocator@U_Container_proxy@std@@@std@@QAE@ABV?$allocator@U?$_Tree_node@U?$pair@$$CBUTileKey@Navigation@@_K@std@@PAX@std@@@1@@Z 10030660 f i Navigation.obj
 0001:0002f660       ??$?0VVector3@G3D@@@?$allocator@U_Container_proxy@std@@@std@@QAE@ABV?$allocator@VVector3@G3D@@@1@@Z 10030660 f i Navigation.obj
 0001:0002f690       ??$?0PAD$0A@@?$basic_string@DU?$char_traits@D@std@@V?$allocator@D@2@@std@@QAE@PAD0ABV?$allocator@D@1@@Z 10030690 f i Navigation.obj
 0001:0002f780       ??$?0U_Creator@_Dir_enum_impl@filesystem@std@@ABW4directory_options@23@@?$_Ref_count_obj2@U_Dir_enum_impl@filesystem@std@@@std@@QAE@$$QAU_Creator@_Dir_enum_impl@filesystem@1@ABW4directory_options@41@@Z 10030780 f i Navigation.obj
 0001:0002f820       ??$?0U_Exact_args_t@std@@ABUTileKey@Navigation@@$$V$0A@@?$tuple@ABUTileKey@Navigation@@@std@@QAE@U_Exact_args_t@1@ABUTileKey@Navigation@@@Z 10030820 f i Navigation.obj
 0001:0002f880       ??$?0V?$allocator@M@std@@$0A@@?$vector@MV?$allocator@M@std@@@std@@QAE@IABMABV?$allocator@M@1@@Z 10030880 f i Navigation.obj
 0001:0002f8f0       ??$?0V?$basic_string@DU?$char_traits@D@std@@V?$allocator@D@2@@std@@$0A@@path@filesystem@std@@QAE@ABV?$basic_string@DU?$char_traits@D@std@@V?$allocator@D@2@@2@W4format@012@@Z 100308f0 f i Navigation.obj
 0001:0002f940       ??$?0V?$basic_string_view@_WU?$char_traits@_W@std@@@std@@$0A@@?$basic_string@_WU?$char_traits@_W@std@@V?$allocator@_W@2@@std@@QAE@ABV?$basic_string_view@_WU?$char_traits@_W@std@@@1@ABV?$allocator@_W@1@@Z 10030940 f i Navigation.obj
 0001:0002fa50       ??$?0V?$basic_string_view@_WU?$char_traits@_W@std@@@std@@$0A@@path@filesystem@std@@QAE@ABV?$basic_string_view@_WU?$char_traits@_W@std@@@2@W4format@012@@Z 10030a50 f i Navigation.obj
 0001:0002faa0       ??$?0V?$tuple@ABUTileKey@Navigation@@@std@@V?$tuple@$$V@1@$0A@$$Z$S@?$pair@$$CBUTileKey@Navigation@@_K@std@@AAE@AAV?$tuple@ABUTileKey@Navigation@@@1@AAV?$tuple@$$V@1@U?$integer_sequence@I$0A@@1@U?$integer_sequence@I$S@1@@Z 10030aa0 f i Navigation.obj
 0001:0002fb00       ??$?0_J$0A@@?$duration@_JU?$ratio@$00$0DLJKMKAA@@std@@@chrono@std@@QAE@AB_J@Z 10030b00 f i Navigation.obj
 0001:0002fb00       ??$?0_J$0A@@?$duration@_JU?$ratio@$00$0DOI@@std@@@chrono@std@@QAE@AB_J@Z 10030b00 f i Navigation.obj
 0001:0002fb40       ??$?0_JU?$ratio@$00$0DLJKMKAA@@std@@$0A@@?$duration@MU?$ratio@$00$0DOI@@std@@@chrono@std@@QAE@ABV?$duration@_JU?$ratio@$00$0DLJKMKAA@@std@@@12@@Z 10030b40 f i Navigation.obj
 0001:0002fba0       ??$?8DU?$char_traits@D@std@@V?$allocator@D@1@@std@@YA_NABV?$basic_string@DU?$char_traits@D@std@@V?$allocator@D@2@@0@QBD@Z 10030ba0 f i Navigation.obj
 0001:0002fbd0       ??$?8U_Dir_enum_impl@filesystem@std@@U012@@std@@YA_NABV?$shared_ptr@U_Dir_enum_impl@filesystem@std@@@0@0@Z 10030bd0 f i Navigation.obj
 0001:0002fc20       ??$?CU_Dir_enum_impl@filesystem@std@@$0A@@?$shared_ptr@U_Dir_enum_impl@filesystem@std@@@std@@QBEPAU_Dir_enum_impl@filesystem@1@XZ 10030c20 f i Navigation.obj
 0001:0002fc20       ??$?DU_Dir_enum_impl@filesystem@std@@$0A@@?$shared_ptr@U_Dir_enum_impl@filesystem@std@@@std@@QBEAAU_Dir_enum_impl@filesystem@1@XZ 10030c20 f i Navigation.obj
 0001:0002fc50       ??$?GUsteady_clock@chrono@std@@V?$duration@_JU?$ratio@$00$0DLJKMKAA@@std@@@12@V312@@chrono@std@@YA?AV?$duration@_JU?$ratio@$00$0DLJKMKAA@@std@@@01@ABV?$time_point@Usteady_clock@chrono@std@@V?$duration@_JU?$ratio@$00$0DLJKMKAA@@std@@@23@@01@0@Z 10030c50 f i Navigation.obj
 0001:0002fcc0       ??$?G_JU?$ratio@$00$0DLJKMKAA@@std@@_JU01@@chrono@std@@YA?AV?$duration@_JU?$ratio@$00$0DLJKMKAA@@std@@@01@ABV201@0@Z 10030cc0 f i Navigation.obj
 0001:0002fd50       ??$?YV?$basic_string_view@DU?$char_traits@D@std@@@std@@$0A@@?$basic_string@DU?$char_traits@D@std@@V?$allocator@D@2@@std@@QAEAAV01@ABV?$basic_string_view@DU?$char_traits@D@std@@@1@@Z 10030d50 f i Navigation.obj
 0001:0002fd90       ??$?_0V?$basic_string_view@_WU?$char_traits@_W@std@@@std@@$0A@@path@filesystem@std@@QAEAAV012@ABV?$basic_string_view@_WU?$char_traits@_W@std@@@2@@Z 10030d90 f i Navigation.obj
 0001:0002fe30       ??$_Adl_verify_range@PADPAD@std@@YAXABQAD0@Z 10030e30 f i Navigation.obj
 0001:0002fe30       ??$_Adl_verify_range@PB_WPB_W@std@@YAXABQB_W0@Z 10030e30 f i Navigation.obj
 0001:0002fea0       ??$_Allocate_at_least_helper@V?$allocator@M@std@@@std@@YAPAMAAV?$allocator@M@0@AAI@Z 10030ea0 f i Navigation.obj
 0001:0002fed0       ??$_Allocate_at_least_helper@V?$allocator@VVector3@G3D@@@std@@@std@@YAPAVVector3@G3D@@AAV?$allocator@VVector3@G3D@@@0@AAI@Z 10030ed0 f i Navigation.obj
 0001:0002ff00       ??$_Bit_cast@IT_Addr_storage@error_category@std@@$0A@@std@@YAIABT_Addr_storage@error_category@0@@Z 10030f00 f i Navigation.obj
 0001:0002ff30       ??$_Bitmask_includes_any@W4__std_fs_file_attr@@@std@@YA_NW4__std_fs_file_attr@@0@Z 10030f30 f i Navigation.obj
 0001:0002ff80       ??$_Bitmask_includes_any@W4directory_options@filesystem@std@@@std@@YA_NW4directory_options@filesystem@0@0@Z 10030f80 f i Navigation.obj
 0001:0002ffd0       ??$_Buyheadnode@V?$allocator@U?$_Tree_node@U?$pair@$$CBUTileKey@Navigation@@_K@std@@PAX@std@@@std@@@?$_Tree_node@U?$pair@$$CBUTileKey@Navigation@@_K@std@@PAX@std@@SAPAU01@AAV?$allocator@U?$_Tree_node@U?$pair@$$CBUTileKey@Navigation@@_K@std@@PAX@std@@@1@@Z 10030fd0 f i Navigation.obj
 0001:000300a0       ??$_Construct@$00PAD@?$basic_string@DU?$char_traits@D@std@@V?$allocator@D@2@@std@@AAEXQADI@Z 100310a0 f i Navigation.obj
 0001:000302e0       ??$_Construct@$01PB_W@?$basic_string@_WU?$char_traits@_W@std@@V?$allocator@_W@2@@std@@AAEXQB_WI@Z 100312e0 f i Navigation.obj
 0001:000304e0       ??$_Construct_in_place@PADAAPAD@std@@YAXAAPAD0@Z 100314e0 f i Navigation.obj
 0001:000304e0       ??$_Construct_in_place@PA_WAAPA_W@std@@YAXAAPA_W0@Z 100314e0 f i Navigation.obj
 0001:00030550       ??$_Construct_in_place@PAU?$_Tree_node@U?$pair@$$CBUTileKey@Navigation@@_K@std@@PAX@std@@AAPAU12@@std@@YAXAAPAU?$_Tree_node@U?$pair@$$CBUTileKey@Navigation@@_K@std@@PAX@0@0@Z 10031550 f i Navigation.obj
 0001:00030550       ??$_Construct_in_place@PAU?$_Tree_node@U?$pair@$$CBUTileKey@Navigation@@_K@std@@PAX@std@@ABQAU12@@std@@YAXAAPAU?$_Tree_node@U?$pair@$$CBUTileKey@Navigation@@_K@std@@PAX@0@ABQAU10@@Z 10031550 f i Navigation.obj
 0001:000305c0       ??$_Construct_in_place@U_Dir_enum_impl@filesystem@std@@U_Creator@123@ABW4directory_options@23@@std@@YAXAAU_Dir_enum_impl@filesystem@0@$$QAU_Creator@120@ABW4directory_options@20@@Z 100315c0 f i Navigation.obj
 0001:00030640       ??$_Construct_n@ABM@?$vector@MV?$allocator@M@std@@@std@@AAEXIABM@Z 10031640 f i Navigation.obj
 0001:000307b0       ??$_Construct_n@ABQAVVector3@G3D@@ABQAV12@@?$vector@VVector3@G3D@@V?$allocator@VVector3@G3D@@@std@@@std@@AAEXIABQAVVector3@G3D@@0@Z 100317b0 f i Navigation.obj
 0001:00030920       ??$_Convert_Source_to_wide@V?$basic_string@DU?$char_traits@D@std@@V?$allocator@D@2@@std@@U_Normal_conversion@filesystem@2@@filesystem@std@@YA?AV?$basic_string@_WU?$char_traits@_W@std@@V?$allocator@_W@2@@1@ABV?$basic_string@DU?$char_traits@D@std@@V?$allocator@D@2@@1@U_Normal_conversion@01@@Z 10031920 f i Navigation.obj
 0001:00030990       ??$_Convert_Source_to_wide@V?$basic_string_view@_WU?$char_traits@_W@std@@@std@@U_Normal_conversion@filesystem@2@@filesystem@std@@YA?AV?$basic_string@_WU?$char_traits@_W@std@@V?$allocator@_W@2@@1@ABV?$basic_string_view@_WU?$char_traits@_W@std@@@1@U_Normal_conversion@01@@Z 10031990 f i Navigation.obj
 0001:00030a00       ??$_Convert_stringoid_to_wide@U_Normal_conversion@filesystem@std@@@filesystem@std@@YA?AV?$basic_string@_WU?$char_traits@_W@std@@V?$allocator@_W@2@@1@V?$basic_string_view@DU?$char_traits@D@std@@@1@U_Normal_conversion@01@@Z 10031a00 f i Navigation.obj
 0001:00030a60       ??$_Convert_stringoid_to_wide@U_Normal_conversion@filesystem@std@@@filesystem@std@@YA?AV?$basic_string@_WU?$char_traits@_W@std@@V?$allocator@_W@2@@1@V?$basic_string_view@_WU?$char_traits@_W@std@@@1@U_Normal_conversion@01@@Z 10031a60 f i Navigation.obj
 0001:00030ac0       ??$_Convert_wide_to@U?$char_traits@D@std@@V?$allocator@D@2@D@filesystem@std@@YA?AV?$basic_string@DU?$char_traits@D@std@@V?$allocator@D@2@@1@V?$basic_string_view@_WU?$char_traits@_W@std@@@1@ABV?$allocator@D@1@@Z 10031ac0 f i Navigation.obj
 0001:00030b20       ??$_Convert_wide_to_narrow@U?$char_traits@D@std@@V?$allocator@D@2@@std@@YA?AV?$basic_string@DU?$char_traits@D@std@@V?$allocator@D@2@@0@W4__std_code_page@@V?$basic_string_view@_WU?$char_traits@_W@std@@@0@ABV?$allocator@D@0@@Z 10031b20 f i Navigation.obj
 0001:00030cd0       ??$_Convert_wide_to_narrow_replace_chars@U?$char_traits@D@std@@V?$allocator@D@2@@filesystem@std@@YA?AV?$basic_string@DU?$char_traits@D@std@@V?$allocator@D@2@@1@W4__std_code_page@@V?$basic_string_view@_WU?$char_traits@_W@std@@@1@ABV?$allocator@D@1@@Z 10031cd0 f i Navigation.obj
 0001:00030e80       ??$_Copy_construct_from@U_Dir_enum_impl@filesystem@std@@@?$_Ptr_base@U_Dir_enum_impl@filesystem@std@@@std@@IAEXABV?$shared_ptr@U_Dir_enum_impl@filesystem@std@@@1@@Z 10031e80 f i Navigation.obj
 0001:00030ed0       ??$_Copy_memmove@PAVVector3@G3D@@PAV12@@std@@YAPAVVector3@G3D@@PAV12@00@Z 10031ed0 f i Navigation.obj
 0001:00030f70       ??$_Copy_memmove_tail@PAVVector3@G3D@@@std@@YAPAVVector3@G3D@@QBDQAV12@II@Z 10031f70 f i Navigation.obj
 0001:00030fd0       ??$_Debug_lt_pred@ABU?$less@UTileKey@Navigation@@@std@@ABUTileKey@Navigation@@ABU34@@std@@YA_NABU?$less@UTileKey@Navigation@@@0@ABUTileKey@Navigation@@1@Z 10031fd0 f i Navigation.obj
 0001:00031080       ??$_Destroy_in_place@PAU?$_Tree_node@U?$pair@$$CBUTileKey@Navigation@@_K@std@@PAX@std@@@std@@YAXAAPAU?$_Tree_node@U?$pair@$$CBUTileKey@Navigation@@_K@std@@PAX@0@@Z 10032080 f i Navigation.obj
 0001:00031080       ??$_Destroy_range@V?$allocator@M@std@@@std@@YAXPAMQAMAAV?$allocator@M@0@@Z 10032080 f i Navigation.obj
 0001:00031080       ??$_Destroy_range@V?$allocator@VVector3@G3D@@@std@@@std@@YAXPAVVector3@G3D@@QAV12@AAV?$allocator@VVector3@G3D@@@0@@Z 10032080 f i Navigation.obj
 0001:00031080       ??$_Pocca@V?$allocator@_W@std@@@std@@YAXAAV?$allocator@_W@0@ABV10@@Z 10032080 f i Navigation.obj
 0001:00031080       ??$_Pocma@V?$allocator@_W@std@@@std@@YAXAAV?$allocator@_W@0@0@Z 10032080 f i Navigation.obj
 0001:00031080       ??$destroy_at@U?$pair@$$CBUTileKey@Navigation@@_K@std@@@std@@YAXQAU?$pair@$$CBUTileKey@Navigation@@_K@0@@Z 10032080 f i Navigation.obj
 0001:000310a0       ??$_Destroy_in_place@U_Dir_enum_impl@filesystem@std@@@std@@YAXAAU_Dir_enum_impl@filesystem@0@@Z 100320a0 f i Navigation.obj
 0001:000310d0       ??$_Emplace_back@AAVVector3@G3D@@@?$_Uninitialized_backout_al@V?$allocator@VVector3@G3D@@@std@@@std@@QAEXAAVVector3@G3D@@@Z 100320d0 f i Navigation.obj
 0001:00031150       ??$_Emplace_back@ABM@?$_Uninitialized_backout_al@V?$allocator@M@std@@@std@@QAEXABM@Z 10032150 f i Navigation.obj
 0001:000311d0       ??$_Fill_zero_memset@PAM@std@@YAXPAMI@Z 100321d0 f i Navigation.obj
 0001:00031210       ??$_Find_last_of_pos_vectorized@DD@std@@YAIQBDI0I@Z 10032210 f i Navigation.obj
 0001:00031240       ??$_Find_lower_bound@UTileKey@Navigation@@@?$_Tree@V?$_Tmap_traits@UTileKey@Navigation@@_KU?$less@UTileKey@Navigation@@@std@@V?$allocator@U?$pair@$$CBUTileKey@Navigation@@_K@std@@@4@$0A@@std@@@std@@IBE?AU?$_Tree_find_result@PAU?$_Tree_node@U?$pair@$$CBUTileKey@Navigation@@_K@std@@PAX@std@@@1@ABUTileKey@Navigation@@@Z 10032240 f i Navigation.obj
 0001:00031380       ??$_Freenode0@V?$allocator@U?$_Tree_node@U?$pair@$$CBUTileKey@Navigation@@_K@std@@PAX@std@@@std@@@?$_Tree_node@U?$pair@$$CBUTileKey@Navigation@@_K@std@@PAX@std@@SAXAAV?$allocator@U?$_Tree_node@U?$pair@$$CBUTileKey@Navigation@@_K@std@@PAX@std@@@1@PAU01@@Z 10032380 f i Navigation.obj
 0001:000313e0       ??$_Freenode@V?$allocator@U?$_Tree_node@U?$pair@$$CBUTileKey@Navigation@@_K@std@@PAX@std@@@std@@@?$_Tree_node@U?$pair@$$CBUTileKey@Navigation@@_K@std@@PAX@std@@SAXAAV?$allocator@U?$_Tree_node@U?$pair@$$CBUTileKey@Navigation@@_K@std@@PAX@std@@@1@PAU01@@Z 100323e0 f i Navigation.obj
 0001:00031460       ??$_Get_size_of_n@$0CI@@std@@YAII@Z 10032460 f i Navigation.obj
 0001:000314b0       ??$_Get_unwrapped@AAPAD@std@@YA?A_TAAPAD@Z 100324b0 f i Navigation.obj
 0001:000314b0       ??$_Get_unwrapped@AAPB_W@std@@YA?A_TAAPB_W@Z 100324b0 f i Navigation.obj
 0001:000314b0       ??$_Get_unwrapped@ABQB_W@std@@YA?A_TABQB_W@Z 100324b0 f i Navigation.obj
 0001:000314b0       ??$_Unwrap_iter@PAVVector3@G3D@@PAV12@@ranges@std@@YA?A_T$$QAPAVVector3@G3D@@@Z 100324b0 f i Navigation.obj
 0001:000314b0       ??$_Unwrap_sent@PAVVector3@G3D@@PAV12@@ranges@std@@YA?A_T$$QAPAVVector3@G3D@@@Z 100324b0 f i Navigation.obj
 0001:000314d0       ??$_Immortalize_memcpy_image@V_Generic_error_category@std@@@std@@YAABV_Generic_error_category@0@XZ 100324d0 f i Navigation.obj
 0001:000314f0       ??$_Immortalize_memcpy_image@V_System_error_category@std@@@std@@YAABV_System_error_category@0@XZ 100324f0 f i Navigation.obj
 0001:00031510       ??$_In_range@HI@std@@YA_NI@Z 10032510 f i Navigation.obj
 0001:00031570       ??$_Initialize_dir_enum@U_Dir_enum_impl@filesystem@std@@@_Dir_enum_impl@filesystem@std@@SA?AW4__std_win_error@@AAV?$shared_ptr@U_Dir_enum_impl@filesystem@std@@@2@ABVpath@12@W4directory_options@12@@Z 10032570 f i Navigation.obj
 0001:000316a0       ??$_Integral_to_string@DI@std@@YA?AV?$basic_string@DU?$char_traits@D@std@@V?$allocator@D@2@@0@I@Z 100326a0 f i Navigation.obj
 0001:00031770       ??$_Is_all_bits_zero@M@std@@YA_NABM@Z 10032770 f i Navigation.obj
 0001:00031820       ??$_Kfn@$$CBUTileKey@Navigation@@_K@?$_Tmap_traits@UTileKey@Navigation@@_KU?$less@UTileKey@Navigation@@@std@@V?$allocator@U?$pair@$$CBUTileKey@Navigation@@_K@std@@@4@$0A@@std@@SAABUTileKey@Navigation@@ABU?$pair@$$CBUTileKey@Navigation@@_K@1@@Z 10032820 f i Navigation.obj
 0001:00031840       ??$_Lower_bound_duplicate@UTileKey@Navigation@@@?$_Tree@V?$_Tmap_traits@UTileKey@Navigation@@_KU?$less@UTileKey@Navigation@@@std@@V?$allocator@U?$pair@$$CBUTileKey@Navigation@@_K@std@@@4@$0A@@std@@@std@@IBE_NQAU?$_Tree_node@U?$pair@$$CBUTileKey@Navigation@@_K@std@@PAX@1@ABUTileKey@Navigation@@@Z 10032840 f i Navigation.obj
 0001:000318d0       ??$_Move_construct_from@U_Dir_enum_impl@filesystem@std@@@?$_Ptr_base@U_Dir_enum_impl@filesystem@std@@@std@@IAEX$$QAV01@@Z 100328d0 f i Navigation.obj
 0001:00031930       ??$_Reallocate_for@V<lambda_1>@?1??assign@?$basic_string@_WU?$char_traits@_W@std@@V?$allocator@_W@2@@std@@QAEAAV34@QB_WI@Z@PB_W@?$basic_string@_WU?$char_traits@_W@std@@V?$allocator@_W@2@@std@@AAEAAV01@IV<lambda_1>@?1??assign@01@QAEAAV01@QB_WI@Z@PB_W@Z 10032930 f i Navigation.obj
 0001:00031a90       ??$_Reallocate_grow_by@V<lambda_1>@?1??append@?$basic_string@DU?$char_traits@D@std@@V?$allocator@D@2@@std@@QAEAAV34@ID@Z@ID@?$basic_string@DU?$char_traits@D@std@@V?$allocator@D@2@@std@@AAEAAV01@IV<lambda_1>@?1??append@01@QAEAAV01@ID@Z@ID@Z 10032a90 f i Navigation.obj
 0001:00031c40       ??$_Reallocate_grow_by@V<lambda_1>@?1??append@?$basic_string@_WU?$char_traits@_W@std@@V?$allocator@_W@2@@std@@QAEAAV34@I_W@Z@I_W@?$basic_string@_WU?$char_traits@_W@std@@V?$allocator@_W@2@@std@@AAEAAV01@IV<lambda_1>@?1??append@01@QAEAAV01@I_W@Z@I_W@Z 10032c40 f i Navigation.obj
 0001:00031df0       ??$_Reallocate_grow_by@V<lambda_1>@?1??append@?$basic_string@_WU?$char_traits@_W@std@@V?$allocator@_W@2@@std@@QAEAAV34@QB_WI@Z@PB_WI@?$basic_string@_WU?$char_traits@_W@std@@V?$allocator@_W@2@@std@@AAEAAV01@IV<lambda_1>@?1??append@01@QAEAAV01@QB_WI@Z@PB_WI@Z 10032df0 f i Navigation.obj
 0001:00031fa0       ??$_Reallocate_grow_by@V<lambda_1>@?1??push_back@?$basic_string@DU?$char_traits@D@std@@V?$allocator@D@2@@std@@QAEXD@Z@D@?$basic_string@DU?$char_traits@D@std@@V?$allocator@D@2@@std@@AAEAAV01@IV<lambda_1>@?1??push_back@01@QAEXD@Z@D@Z 10032fa0 f i Navigation.obj
 0001:00032150       ??$_Reallocate_grow_by@V<lambda_1>@?1??push_back@?$basic_string@_WU?$char_traits@_W@std@@V?$allocator@_W@2@@std@@QAEX_W@Z@_W@?$basic_string@_WU?$char_traits@_W@std@@V?$allocator@_W@2@@std@@AAEAAV01@IV<lambda_1>@?1??push_back@01@QAEX_W@Z@_W@Z 10033150 f i Navigation.obj
 0001:00032300       ??$_Reallocate_grow_by@V<lambda_1>@?1??reserve@?$basic_string@DU?$char_traits@D@std@@V?$allocator@D@2@@std@@QAEXI@Z@$$V@?$basic_string@DU?$char_traits@D@std@@V?$allocator@D@2@@std@@AAEAAV01@IV<lambda_1>@?1??reserve@01@QAEXI@Z@@Z 10033300 f i Navigation.obj
 0001:000324a0       ??$_Seek_wrapped@PB_WAAPB_W@std@@YAXAAPB_W0@Z 100334a0 f i Navigation.obj
 0001:000324d0       ??$_Set_ptr_rep_and_enable_shared@U_Dir_enum_impl@filesystem@std@@@?$shared_ptr@U_Dir_enum_impl@filesystem@std@@@std@@AAEXQAU_Dir_enum_impl@filesystem@1@QAV_Ref_count_base@1@@Z 100334d0 f i Navigation.obj
 0001:00032510       ??$_Stringoid_from_Source@DU?$char_traits@D@std@@V?$allocator@D@2@@filesystem@std@@YA?A_PABV?$basic_string@DU?$char_traits@D@std@@V?$allocator@D@2@@1@@Z 10033510 f i Navigation.obj
 0001:00032570       ??$_Stringoid_from_Source@_WU?$char_traits@_W@std@@@filesystem@std@@YA?A_PABV?$basic_string_view@_WU?$char_traits@_W@std@@@1@@Z 10033570 f i Navigation.obj
 0001:000325d0       ??$_To_address@PAM@std@@YA?A_PABQAM@Z 100335d0 f i Navigation.obj
 0001:000325d0       ??$_To_address@PAVVector3@G3D@@@std@@YA?A_PABQAVVector3@G3D@@@Z 100335d0 f i Navigation.obj
 0001:00032600       ??$_Traits_compare@U?$char_traits@_W@std@@@std@@YAHQB_WI0I@Z 10033600 f i Navigation.obj
 0001:00032680       ??$_Traits_equal@U?$char_traits@D@std@@@std@@YA_NQBDI0I@Z 10033680 f i Navigation.obj
 0001:000326f0       ??$_Traits_find_last_of@U?$char_traits@D@std@@@std@@YAIQBDII0I@Z 100336f0 f i Navigation.obj
 0001:000328c0       ??$_Try_emplace@ABUTileKey@Navigation@@$$V@?$map@UTileKey@Navigation@@_KU?$less@UTileKey@Navigation@@@std@@V?$allocator@U?$pair@$$CBUTileKey@Navigation@@_K@std@@@4@@std@@AAE?AU?$pair@PAU?$_Tree_node@U?$pair@$$CBUTileKey@Navigation@@_K@std@@PAX@std@@_N@1@ABUTileKey@Navigation@@@Z 100338c0 f i Navigation.obj
 0001:00032a30       ??$_Tuple_get@$0A@ABUTileKey@Navigation@@@std@@YA$$QA_P$$QAV?$tuple@ABUTileKey@Navigation@@@0@@Z 10033a30 f i Navigation.obj
 0001:00032a50       ??$_UIntegral_to_buff@DI@std@@YAPADPADI@Z 10033a50 f i Navigation.obj
 0001:00032ac0       ??$_Unfancy@M@std@@YAPAMPAM@Z 10033ac0 f i Navigation.obj
 0001:00032ac0       ??$_Unfancy@VVector3@G3D@@@std@@YAPAVVector3@G3D@@PAV12@@Z 10033ac0 f i Navigation.obj
 0001:00032ac0       ??$_Unfancy_maybe_null@M@std@@YAPAMPAM@Z 10033ac0 f i Navigation.obj
 0001:00032ac0       ?select_on_container_copy_construction@?$_Default_allocator_traits@V?$allocator@VVector3@G3D@@@std@@@std@@SA?AV?$allocator@VVector3@G3D@@@2@ABV32@@Z 10033ac0 f i Navigation.obj
 0001:00032ac0       ?select_on_container_copy_construction@?$_Default_allocator_traits@V?$allocator@_W@std@@@std@@SA?AV?$allocator@_W@2@ABV32@@Z 10033ac0 f i Navigation.obj
 0001:00032ae0       ??$_Uninitialized_copy@PAVVector3@G3D@@PAV12@V?$allocator@VVector3@G3D@@@std@@@std@@YAPAVVector3@G3D@@PAV12@00AAV?$allocator@VVector3@G3D@@@0@@Z 10033ae0 f i Navigation.obj
 0001:00032c90       ??$_Uninitialized_fill_n@V?$allocator@M@std@@@std@@YAPAMPAMIABMAAV?$allocator@M@0@@Z 10033c90 f i Navigation.obj
 0001:00032de0       ??$addressof@$$CBV?$_Tree_val@U?$_Tree_simple_types@U?$pair@$$CBUTileKey@Navigation@@_K@std@@@std@@@std@@@std@@YAPBV?$_Tree_val@U?$_Tree_simple_types@U?$pair@$$CBUTileKey@Navigation@@_K@std@@@std@@@0@ABV10@@Z 10033de0 f i Navigation.obj
 0001:00032de0       ??$addressof@$$CBV?$basic_string@_WU?$char_traits@_W@std@@V?$allocator@_W@2@@std@@@std@@YAPBV?$basic_string@_WU?$char_traits@_W@std@@V?$allocator@_W@2@@0@ABV10@@Z 10033de0 f i Navigation.obj
 0001:00032de0       ??$addressof@PAU?$_Tree_node@U?$pair@$$CBUTileKey@Navigation@@_K@std@@PAX@std@@@std@@YAPAPAU?$_Tree_node@U?$pair@$$CBUTileKey@Navigation@@_K@std@@PAX@0@AAPAU10@@Z 10033de0 f i Navigation.obj
 0001:00032de0       ??$addressof@U?$pair@$$CBUTileKey@Navigation@@_K@std@@@std@@YAPAU?$pair@$$CBUTileKey@Navigation@@_K@0@AAU10@@Z 10033de0 f i Navigation.obj
 0001:00032de0       ??$addressof@U_Dir_enum_impl@filesystem@std@@@std@@YAPAU_Dir_enum_impl@filesystem@0@AAU120@@Z 10033de0 f i Navigation.obj
 0001:00032de0       ??$addressof@V?$_String_val@U?$_Simple_types@D@std@@@std@@@std@@YAPAV?$_String_val@U?$_Simple_types@D@std@@@0@AAV10@@Z 10033de0 f i Navigation.obj
 0001:00032de0       ??$addressof@V?$_Tree_val@U?$_Tree_simple_types@U?$pair@$$CBUTileKey@Navigation@@_K@std@@@std@@@std@@@std@@YAPAV?$_Tree_val@U?$_Tree_simple_types@U?$pair@$$CBUTileKey@Navigation@@_K@std@@@std@@@0@AAV10@@Z 10033de0 f i Navigation.obj
 0001:00032de0       ??$addressof@V?$basic_string@_WU?$char_traits@_W@std@@V?$allocator@_W@2@@std@@@std@@YAPAV?$basic_string@_WU?$char_traits@_W@std@@V?$allocator@_W@2@@0@AAV10@@Z 10033de0 f i Navigation.obj
 0001:00032e00       ??$append@V?$basic_string_view@DU?$char_traits@D@std@@@std@@$0A@@?$basic_string@DU?$char_traits@D@std@@V?$allocator@D@2@@std@@QAEAAV01@ABV?$basic_string_view@DU?$char_traits@D@std@@@1@@Z 10033e00 f i Navigation.obj
 0001:00032ed0       ??$construct@MABM@?$_Default_allocator_traits@V?$allocator@M@std@@@std@@SAXAAV?$allocator@M@1@QAMABM@Z 10033ed0 f i Navigation.obj
 0001:00032f00       ??$construct@U?$pair@$$CBUTileKey@Navigation@@_K@std@@ABUpiecewise_construct_t@2@V?$tuple@ABUTileKey@Navigation@@@2@V?$tuple@$$V@2@@?$_Default_allocator_traits@V?$allocator@U?$_Tree_node@U?$pair@$$CBUTileKey@Navigation@@_K@std@@PAX@std@@@std@@@std@@SAXAAV?$allocator@U?$_Tree_node@U?$pair@$$CBUTileKey@Navigation@@_K@std@@PAX@std@@@1@QAU?$pair@$$CBUTileKey@Navigation@@_K@1@ABUpiecewise_construct_t@1@$$QAV?$tuple@ABUTileKey@Navigation@@@1@$$QAV?$tuple@$$V@1@@Z 10033f00 f i Navigation.obj
 0001:00032f30       ??$construct@VVector3@G3D@@AAV12@@?$_Default_allocator_traits@V?$allocator@VVector3@G3D@@@std@@@std@@SAXAAV?$allocator@VVector3@G3D@@@1@QAVVector3@G3D@@AAV34@@Z 10033f30 f i Navigation.obj
 0001:00032f60       ??$construct_at@MABM@std@@YAPAMQAMABM@Z 10033f60 f i Navigation.obj
 0001:00032f60       ??$construct_at@PADAAPAD@std@@YAPAPADQAPADAAPAD@Z 10033f60 f i Navigation.obj
 0001:00032f60       ??$construct_at@PAU?$_Tree_node@U?$pair@$$CBUTileKey@Navigation@@_K@std@@PAX@std@@AAPAU12@@std@@YAPAPAU?$_Tree_node@U?$pair@$$CBUTileKey@Navigation@@_K@std@@PAX@0@QAPAU10@AAPAU10@@Z 10033f60 f i Navigation.obj
 0001:00032f60       ??$construct_at@PAU?$_Tree_node@U?$pair@$$CBUTileKey@Navigation@@_K@std@@PAX@std@@ABQAU12@@std@@YAPAPAU?$_Tree_node@U?$pair@$$CBUTileKey@Navigation@@_K@std@@PAX@0@QAPAU10@ABQAU10@@Z 10033f60 f i Navigation.obj
 0001:00032f60       ??$construct_at@PA_WAAPA_W@std@@YAPAPA_WQAPA_WAAPA_W@Z 10033f60 f i Navigation.obj
 0001:00032fb0       ??$construct_at@U?$pair@$$CBUTileKey@Navigation@@_K@std@@ABUpiecewise_construct_t@2@V?$tuple@ABUTileKey@Navigation@@@2@V?$tuple@$$V@2@@std@@YAPAU?$pair@$$CBUTileKey@Navigation@@_K@0@QAU10@ABUpiecewise_construct_t@0@$$QAV?$tuple@ABUTileKey@Navigation@@@0@$$QAV?$tuple@$$V@0@@Z 10033fb0 f i Navigation.obj
 0001:00033030       ??$construct_at@U_Dir_enum_impl@filesystem@std@@U_Creator@123@ABW4directory_options@23@@std@@YAPAU_Dir_enum_impl@filesystem@0@QAU120@$$QAU_Creator@120@ABW4directory_options@20@@Z 10034030 f i Navigation.obj
 0001:00033080       ??$construct_at@VVector3@G3D@@AAV12@@std@@YAPAVVector3@G3D@@QAV12@AAV12@@Z 10034080 f i Navigation.obj
 0001:000330d0       ??$destroy@U?$pair@$$CBUTileKey@Navigation@@_K@std@@@?$_Default_allocator_traits@V?$allocator@U?$_Tree_node@U?$pair@$$CBUTileKey@Navigation@@_K@std@@PAX@std@@@std@@@std@@SAXAAV?$allocator@U?$_Tree_node@U?$pair@$$CBUTileKey@Navigation@@_K@std@@PAX@std@@@1@QAU?$pair@$$CBUTileKey@Navigation@@_K@1@@Z 100340d0 f i Navigation.obj
 0001:00033100       ??$duration_cast@V?$duration@MU?$ratio@$00$0DOI@@std@@@chrono@std@@_JU?$ratio@$00$0DLJKMKAA@@3@$0A@@chrono@std@@YA?AV?$duration@MU?$ratio@$00$0DOI@@std@@@01@ABV?$duration@_JU?$ratio@$00$0DLJKMKAA@@std@@@01@@Z 10034100 f i Navigation.obj
 0001:00033160       ??$duration_cast@V?$duration@_JU?$ratio@$00$0DOI@@std@@@chrono@std@@_JU?$ratio@$00$0DLJKMKAA@@3@$0A@@chrono@std@@YA?AV?$duration@_JU?$ratio@$00$0DOI@@std@@@01@ABV?$duration@_JU?$ratio@$00$0DLJKMKAA@@std@@@01@@Z 10034160 f i Navigation.obj
 0001:000331d0       ??$end@D$0BF@@std@@YAPADAAY0BF@D@Z 100341d0 f i Navigation.obj
 0001:000331f0       ??$erase@V?$_Tree_iterator@V?$_Tree_val@U?$_Tree_simple_types@U?$pair@$$CBUTileKey@Navigation@@_K@std@@@std@@@std@@@std@@$0A@@?$_Tree@V?$_Tmap_traits@UTileKey@Navigation@@_KU?$less@UTileKey@Navigation@@@std@@V?$allocator@U?$pair@$$CBUTileKey@Navigation@@_K@std@@@4@$0A@@std@@@std@@QAE?AV?$_Tree_iterator@V?$_Tree_val@U?$_Tree_simple_types@U?$pair@$$CBUTileKey@Navigation@@_K@std@@@std@@@std@@@1@V21@@Z 100341f0 f i Navigation.obj
 0001:00033320       ??$exchange@PAU?$_Tree_node@U?$pair@$$CBUTileKey@Navigation@@_K@std@@PAX@std@@$$T@std@@YAPAU?$_Tree_node@U?$pair@$$CBUTileKey@Navigation@@_K@std@@PAX@0@AAPAU10@$$QA$$T@Z 10034320 f i Navigation.obj
 0001:00033320       ??$exchange@W4__std_fs_dir_handle@@W41@@std@@YA?AW4__std_fs_dir_handle@@AAW41@$$QAW41@@Z 10034320 f i Navigation.obj
 0001:00033360       ??$find_if@PB_WU_Is_slash_oper@filesystem@std@@@std@@YAPB_WPB_WQB_WU_Is_slash_oper@filesystem@0@@Z 10034360 f i Navigation.obj
 0001:00033450       ??$find_if_not@PB_WU_Is_slash_oper@filesystem@std@@@std@@YAPB_WPB_WQB_WU_Is_slash_oper@filesystem@0@@Z 10034450 f i Navigation.obj
 0001:00033540       ??$forward_as_tuple@ABUTileKey@Navigation@@@std@@YA?AV?$tuple@ABUTileKey@Navigation@@@0@ABUTileKey@Navigation@@@Z 10034540 f i Navigation.obj
 0001:00033570       ??$make_shared@U_Dir_enum_impl@filesystem@std@@U_Creator@123@ABW4directory_options@23@@std@@YA?AV?$shared_ptr@U_Dir_enum_impl@filesystem@std@@@0@$$QAU_Creator@_Dir_enum_impl@filesystem@0@ABW4directory_options@40@@Z 10034570 f i Navigation.obj
 0001:000336a0       ??$max@H@std@@YAABHABH0@Z  100346a0 f i Navigation.obj
 0001:000336f0       ??$min@H@std@@YAABHABH0@Z  100346f0 f i Navigation.obj
 0001:00033740       ??$string@DU?$char_traits@D@std@@V?$allocator@D@2@$0A@@path@filesystem@std@@QBE?AV?$basic_string@DU?$char_traits@D@std@@V?$allocator@D@2@@2@ABV?$allocator@D@2@@Z 10034740 f i Navigation.obj
 0001:000337c0       ??$swap@D$0A@@std@@YAXAAD0@Z 100347c0 f i Navigation.obj
 0001:00033800       ??$swap@PAU_Dir_enum_impl@filesystem@std@@$0A@@std@@YAXAAPAU_Dir_enum_impl@filesystem@0@0@Z 10034800 f i Navigation.obj
 0001:00033800       ??$swap@PAV_Ref_count_base@std@@$0A@@std@@YAXAAPAV_Ref_count_base@0@0@Z 10034800 f i Navigation.obj
 0001:00033840       ??$to_address@M@std@@YAPAMQAM@Z 10034840 f i Navigation.obj
 0001:00033840       ??$to_address@VVector3@G3D@@@std@@YAPAVVector3@G3D@@QAV12@@Z 10034840 f i Navigation.obj
 0001:00033860       ??0?$_Alloc_construct_ptr@V?$allocator@U?$_Tree_node@U?$pair@$$CBUTileKey@Navigation@@_K@std@@PAX@std@@@std@@@std@@QAE@AAV?$allocator@U?$_Tree_node@U?$pair@$$CBUTileKey@Navigation@@_K@std@@PAX@std@@@1@@Z 10034860 f i Navigation.obj
 0001:000338a0       ??0?$_Ptr_base@U_Dir_enum_impl@filesystem@std@@@std@@IAE@XZ 100348a0 f i Navigation.obj
 0001:000338e0       ??0?$_String_bitmap@D$00@std@@QAE@XZ 100348e0 f i Navigation.obj
 0001:00033920       ??0?$_Tree@V?$_Tmap_traits@UTileKey@Navigation@@_KU?$less@UTileKey@Navigation@@@std@@V?$allocator@U?$pair@$$CBUTileKey@Navigation@@_K@std@@@4@$0A@@std@@@std@@QAE@ABU?$less@UTileKey@Navigation@@@1@@Z 10034920 f i Navigation.obj
 0001:00033990       ??0?$_Tree_const_iterator@V?$_Tree_val@U?$_Tree_simple_types@U?$pair@$$CBUTileKey@Navigation@@_K@std@@@std@@@std@@@std@@QAE@PAU?$_Tree_node@U?$pair@$$CBUTileKey@Navigation@@_K@std@@PAX@1@PBV?$_Tree_val@U?$_Tree_simple_types@U?$pair@$$CBUTileKey@Navigation@@_K@std@@@std@@@1@@Z 10034990 f i Navigation.obj
 0001:000339d0       ??0?$_Tree_iterator@V?$_Tree_val@U?$_Tree_simple_types@U?$pair@$$CBUTileKey@Navigation@@_K@std@@@std@@@std@@@std@@QAE@PAU?$_Tree_node@U?$pair@$$CBUTileKey@Navigation@@_K@std@@PAX@1@PBV?$_Tree_val@U?$_Tree_simple_types@U?$pair@$$CBUTileKey@Navigation@@_K@std@@@std@@@1@@Z 100349d0 f i Navigation.obj
 0001:00033a10       ??0?$_Tree_temp_node_alloc@V?$allocator@U?$_Tree_node@U?$pair@$$CBUTileKey@Navigation@@_K@std@@PAX@std@@@std@@@std@@QAE@AAV?$allocator@U?$_Tree_node@U?$pair@$$CBUTileKey@Navigation@@_K@std@@PAX@std@@@1@@Z 10034a10 f i Navigation.obj
 0001:00033a90       ??0?$_Tree_unchecked_const_iterator@V?$_Tree_val@U?$_Tree_simple_types@U?$pair@$$CBUTileKey@Navigation@@_K@std@@@std@@@std@@U_Iterator_base0@2@@std@@QAE@PAU?$_Tree_node@U?$pair@$$CBUTileKey@Navigation@@_K@std@@PAX@1@PBV?$_Tree_val@U?$_Tree_simple_types@U?$pair@$$CBUTileKey@Navigation@@_K@std@@@std@@@1@@Z 10034a90 f i Navigation.obj
 0001:00033ad0       ??0?$_Tree_unchecked_const_iterator@V?$_Tree_val@U?$_Tree_simple_types@U?$pair@$$CBUTileKey@Navigation@@_K@std@@@std@@@std@@U_Iterator_base12@2@@std@@QAE@PAU?$_Tree_node@U?$pair@$$CBUTileKey@Navigation@@_K@std@@PAX@1@PBV?$_Tree_val@U?$_Tree_simple_types@U?$pair@$$CBUTileKey@Navigation@@_K@std@@@std@@@1@@Z 10034ad0 f i Navigation.obj
 0001:00033b20       ??0?$_Tree_unchecked_iterator@V?$_Tree_val@U?$_Tree_simple_types@U?$pair@$$CBUTileKey@Navigation@@_K@std@@@std@@@std@@@std@@QAE@PAU?$_Tree_node@U?$pair@$$CBUTileKey@Navigation@@_K@std@@PAX@1@PBV?$_Tree_val@U?$_Tree_simple_types@U?$pair@$$CBUTileKey@Navigation@@_K@std@@@std@@@1@@Z 10034b20 f i Navigation.obj
 0001:00033b60       ??0?$_Tree_val@U?$_Tree_simple_types@U?$pair@$$CBUTileKey@Navigation@@_K@std@@@std@@@std@@QAE@XZ 10034b60 f i Navigation.obj
 0001:00033bb0       ??0?$_Uninitialized_backout_al@V?$allocator@M@std@@@std@@QAE@PAMAAV?$allocator@M@1@@Z 10034bb0 f i Navigation.obj
 0001:00033bb0       ??0?$_Uninitialized_backout_al@V?$allocator@VVector3@G3D@@@std@@@std@@QAE@PAVVector3@G3D@@AAV?$allocator@VVector3@G3D@@@1@@Z 10034bb0 f i Navigation.obj
 0001:00033c00       ??0?$_Vector_val@U?$_Simple_types@M@std@@@std@@QAE@XZ 10034c00 f i Navigation.obj
 0001:00033c00       ??0?$_Vector_val@U?$_Simple_types@VVector3@G3D@@@std@@@std@@QAE@XZ 10034c00 f i Navigation.obj
 0001:00033c50       ??0?$allocator@M@std@@QAE@XZ 10034c50 f i Navigation.obj
 0001:00033c50       ??0?$allocator@U?$_Tree_node@U?$pair@$$CBUTileKey@Navigation@@_K@std@@PAX@std@@@std@@QAE@XZ 10034c50 f i Navigation.obj
 0001:00033c80       ??0?$basic_string@DU?$char_traits@D@std@@V?$allocator@D@2@@std@@QAE@$$QAV01@@Z 10034c80 f i Navigation.obj
 0001:00033d50       ??0?$basic_string@DU?$char_traits@D@std@@V?$allocator@D@2@@std@@QAE@QBDI@Z 10034d50 f i Navigation.obj
 0001:00033df0       ??0?$basic_string@DU?$char_traits@D@std@@V?$allocator@D@2@@std@@QAE@XZ 10034df0 f i Navigation.obj
 0001:00033e80       ??0?$basic_string@_WU?$char_traits@_W@std@@V?$allocator@_W@2@@std@@QAE@ABV01@@Z 10034e80 f i Navigation.obj
 0001:00033f50       ??0?$basic_string@_WU?$char_traits@_W@std@@V?$allocator@_W@2@@std@@QAE@XZ 10034f50 f i Navigation.obj
 0001:00033fe0       ??0?$basic_string_view@DU?$char_traits@D@std@@@std@@QAE@QBD@Z 10034fe0 f i Navigation.obj
 0001:00034030       ??0?$basic_string_view@DU?$char_traits@D@std@@@std@@QAE@QBDI@Z 10035030 f i Navigation.obj
 0001:00034030       ??0?$basic_string_view@_WU?$char_traits@_W@std@@@std@@QAE@QB_WI@Z 10035030 f i Navigation.obj
 0001:000340d0       ??0?$basic_string_view@_WU?$char_traits@_W@std@@@std@@QAE@QB_W@Z 100350d0 f i Navigation.obj
 0001:00034120       ??0?$map@UTileKey@Navigation@@_KU?$less@UTileKey@Navigation@@@std@@V?$allocator@U?$pair@$$CBUTileKey@Navigation@@_K@std@@@4@@std@@QAE@XZ 10035120 f i Navigation.obj
 0001:00034160       ??0?$shared_ptr@U_Dir_enum_impl@filesystem@std@@@std@@QAE@$$QAV01@@Z 10035160 f i Navigation.obj
 0001:000341a0       ??0?$shared_ptr@U_Dir_enum_impl@filesystem@std@@@std@@QAE@ABV01@@Z 100351a0 f i Navigation.obj
 0001:000341e0       ??0?$shared_ptr@U_Dir_enum_impl@filesystem@std@@@std@@QAE@XZ 100351e0 f i Navigation.obj
 0001:00034220       ??0?$time_point@Usteady_clock@chrono@std@@V?$duration@_JU?$ratio@$00$0DLJKMKAA@@std@@@23@@chrono@std@@QAE@ABV?$duration@_JU?$ratio@$00$0DLJKMKAA@@std@@@12@@Z 10035220 f i Navigation.obj
 0001:00034260       ??0?$tuple@ABUTileKey@Navigation@@@std@@QAE@$$QAV01@@Z 10035260 f i Navigation.obj
 0001:000342b0       ??0?$vector@VVector3@G3D@@V?$allocator@VVector3@G3D@@@std@@@std@@QAE@ABV01@@Z 100352b0 f i Navigation.obj
 0001:00034360       ??0Navigation@@QAE@XZ      10035360 f i Navigation.obj
 0001:000343b0       ??0XYZ@@QAE@NNN@Z          100353b0 f i Navigation.obj
 0001:00034410       ??0_Creator@_Dir_enum_impl@filesystem@std@@QAE@ABVpath@23@W4directory_options@23@@Z 10035410 f i Navigation.obj
 0001:00034540       ??0_Dir_enum_impl@filesystem@std@@QAE@$$QAU_Creator@012@W4directory_options@12@@Z 10035540 f i Navigation.obj
 0001:000345f0       ??0_File_status_and_error@filesystem@std@@QAE@XZ 100355f0 f i Navigation.obj
 0001:00034620       ??0_Find_file_handle@filesystem@std@@QAE@$$QAU012@@Z 10035620 f i Navigation.obj
 0001:00034680       ??0_Find_file_handle@filesystem@std@@QAE@XZ 10035680 f i Navigation.obj
 0001:000346c0       ??0_Ref_count_base@std@@IAE@XZ 100356c0 f i Navigation.obj
 0001:00034700       ??0_System_error@std@@IAE@Verror_code@1@@Z 10035700 f i Navigation.obj
 0001:000347c0       ??0_System_error@std@@IAE@Verror_code@1@ABV?$basic_string@DU?$char_traits@D@std@@V?$allocator@D@2@@1@@Z 100357c0 f i Navigation.obj
 0001:00034890       ??0_System_error@std@@QAE@ABV01@@Z 10035890 f i Navigation.obj
 0001:000348e0       ??0_System_error_message@std@@QAE@K@Z 100358e0 f i Navigation.obj
 0001:00034930       ??0directory_entry@filesystem@std@@QAE@XZ 10035930 f i Navigation.obj
 0001:000349a0       ??0directory_iterator@filesystem@std@@QAE@$$QAV012@@Z 100359a0 f i Navigation.obj
 0001:000349f0       ??0directory_iterator@filesystem@std@@QAE@ABV012@@Z 100359f0 f i Navigation.obj
 0001:00034a40       ??0directory_iterator@filesystem@std@@QAE@ABVpath@12@@Z 10035a40 f i Navigation.obj
 0001:00034af0       ??0directory_iterator@filesystem@std@@QAE@XZ 10035af0 f i Navigation.obj
 0001:00034b30       ??0error_code@std@@QAE@HABVerror_category@1@@Z 10035b30 f i Navigation.obj
 0001:00034b30       ??0error_condition@std@@QAE@HABVerror_category@1@@Z 10035b30 f i Navigation.obj
 0001:00034b70       ??0error_code@std@@QAE@XZ  10035b70 f i Navigation.obj
 0001:00034bb0       ??0exception@std@@QAE@QBD@Z 10035bb0 f i Navigation.obj
 0001:00034c70       ??0file_status@filesystem@std@@QAE@XZ 10035c70 f i Navigation.obj
 0001:00034cb0       ??0filesystem_error@filesystem@std@@QAE@ABV012@@Z 10035cb0 f i Navigation.obj
 0001:00034d80       ??0filesystem_error@filesystem@std@@QAE@ABV?$basic_string@DU?$char_traits@D@std@@V?$allocator@D@2@@2@ABVpath@12@Verror_code@2@@Z 10035d80 f i Navigation.obj
 0001:00034ec0       ??0filesystem_error@filesystem@std@@QAE@ABV?$basic_string@DU?$char_traits@D@std@@V?$allocator@D@2@@2@Verror_code@2@@Z 10035ec0 f i Navigation.obj
 0001:00034f90       ??0path@filesystem@std@@QAE@ABV012@@Z 10035f90 f i Navigation.obj
 0001:00034fe0       ??0path@filesystem@std@@QAE@XZ 10035fe0 f i Navigation.obj
 0001:00035020       ??0runtime_error@std@@QAE@ABV01@@Z 10036020 f i Navigation.obj
 0001:00035060       ??0runtime_error@std@@QAE@ABV?$basic_string@DU?$char_traits@D@std@@V?$allocator@D@2@@1@@Z 10036060 f i Navigation.obj
 0001:000350b0       ??0system_error@std@@QAE@ABV01@@Z 100360b0 f i Navigation.obj
 0001:000350f0       ??0system_error@std@@QAE@Verror_code@1@@Z 100360f0 f i Navigation.obj
 0001:00035140       ??0system_error@std@@QAE@Verror_code@1@ABV?$basic_string@DU?$char_traits@D@std@@V?$allocator@D@2@@1@@Z 10036140 f i Navigation.obj
 0001:00035190       ??1?$_Alloc_construct_ptr@V?$allocator@U?$_Tree_node@U?$pair@$$CBUTileKey@Navigation@@_K@std@@PAX@std@@@std@@@std@@QAE@XZ 10036190 f i Navigation.obj
 0001:000351f0       ??1?$_Ref_count_obj2@U_Dir_enum_impl@filesystem@std@@@std@@UAE@XZ 100361f0 f i Navigation.obj
 0001:00035230       ??1?$_Tidy_guard@V?$vector@MV?$allocator@M@std@@@std@@@std@@QAE@XZ 10036230 f i Navigation.obj
 0001:00035270       ??1?$_Tidy_guard@V?$vector@VVector3@G3D@@V?$allocator@VVector3@G3D@@@std@@@std@@@std@@QAE@XZ 10036270 f i Navigation.obj
 0001:000352b0       ??1?$_Tree_temp_node@V?$allocator@U?$_Tree_node@U?$pair@$$CBUTileKey@Navigation@@_K@std@@PAX@std@@@std@@@std@@QAE@XZ 100362b0 f i Navigation.obj
 0001:00035390       ??1?$_Tree_temp_node_alloc@V?$allocator@U?$_Tree_node@U?$pair@$$CBUTileKey@Navigation@@_K@std@@PAX@std@@@std@@@std@@QAE@XZ 10036390 f i Navigation.obj
 0001:000353c0       ??1?$_Uninitialized_backout_al@V?$allocator@M@std@@@std@@QAE@XZ 100363c0 f i Navigation.obj
 0001:000353c0       ??1?$_Uninitialized_backout_al@V?$allocator@VVector3@G3D@@@std@@@std@@QAE@XZ 100363c0 f i Navigation.obj
 0001:00035410       ??1?$shared_ptr@U_Dir_enum_impl@filesystem@std@@@std@@QAE@XZ 10036410 f i Navigation.obj
 0001:00035440       ??1?$vector@MV?$allocator@M@std@@@std@@QAE@XZ 10036440 f i Navigation.obj
 0001:00035500       ??1?$vector@VVector3@G3D@@V?$allocator@VVector3@G3D@@@std@@@std@@QAE@XZ 10036500 f i Navigation.obj
 0001:000355c0       ??1_Creator@_Dir_enum_impl@filesystem@std@@QAE@XZ 100365c0 f i Navigation.obj
 0001:000355f0       ??1_Dir_enum_impl@filesystem@std@@QAE@XZ 100365f0 f i Navigation.obj
 0001:00035620       ??1_Find_file_handle@filesystem@std@@QAE@XZ 10036620 f i Navigation.obj
 0001:00035660       ??1_Generic_error_category@std@@UAE@XZ 10036660 f i Navigation.obj
 0001:00035660       ??1_System_error_category@std@@UAE@XZ 10036660 f i Navigation.obj
 0001:00035690       ??1_Ref_count_base@std@@UAE@XZ 10036690 f i Navigation.obj
 0001:000356c0       ??1_System_error_message@std@@QAE@XZ 100366c0 f i Navigation.obj
 0001:00035700       ??1directory_entry@filesystem@std@@QAE@XZ 10036700 f i Navigation.obj
 0001:00035740       ??1directory_iterator@filesystem@std@@QAE@XZ 10036740 f i Navigation.obj
 0001:00035770       ??1error_category@std@@UAE@XZ 10036770 f i Navigation.obj
 0001:000357a0       ??1filesystem_error@filesystem@std@@UAE@XZ 100367a0 f i Navigation.obj
 0001:000357f0       ??1path@filesystem@std@@QAE@XZ 100367f0 f i Navigation.obj
 0001:00035820       ??1system_error@std@@UAE@XZ 10036820 f i Navigation.obj
 0001:00035850       ??4?$_Tree_const_iterator@V?$_Tree_val@U?$_Tree_simple_types@U?$pair@$$CBUTileKey@Navigation@@_K@std@@@std@@@std@@@std@@QAEAAV01@ABV01@@Z 10036850 f i Navigation.obj
 0001:00035880       ??4?$_Tree_iterator@V?$_Tree_val@U?$_Tree_simple_types@U?$pair@$$CBUTileKey@Navigation@@_K@std@@@std@@@std@@@std@@QAEAAV01@ABV01@@Z 10036880 f i Navigation.obj
 0001:000358b0       ??4?$_Tree_unchecked_const_iterator@V?$_Tree_val@U?$_Tree_simple_types@U?$pair@$$CBUTileKey@Navigation@@_K@std@@@std@@@std@@U_Iterator_base12@2@@std@@QAEAAV01@ABV01@@Z 100368b0 f i Navigation.obj
 0001:000358f0       ??4?$basic_string@_WU?$char_traits@_W@std@@V?$allocator@_W@2@@std@@QAEAAV01@$$QAV01@@Z 100368f0 f i Navigation.obj
 0001:00035980       ??4?$basic_string@_WU?$char_traits@_W@std@@V?$allocator@_W@2@@std@@QAEAAV01@ABV01@@Z 10036980 f i Navigation.obj
 0001:00035a20       ??4?$shared_ptr@U_Dir_enum_impl@filesystem@std@@@std@@QAEAAV01@$$QAV01@@Z 10036a20 f i Navigation.obj
 0001:00035a80       ??4path@filesystem@std@@QAEAAV012@$$QAV012@@Z 10036a80 f i Navigation.obj
 0001:00035ac0       ??4path@filesystem@std@@QAEAAV012@ABV012@@Z 10036ac0 f i Navigation.obj
 0001:00035b00       ??8?$_Tree_const_iterator@V?$_Tree_val@U?$_Tree_simple_types@U?$pair@$$CBUTileKey@Navigation@@_K@std@@@std@@@std@@@std@@QBE_NABV01@@Z 10036b00 f i Navigation.obj
 0001:00035bc0       ??8directory_iterator@filesystem@std@@QBE_NABV012@@Z 10036bc0 f i Navigation.obj
 0001:00035c00       ??8error_category@std@@QBE_NABV01@@Z 10036c00 f i Navigation.obj
 0001:00035c70       ??8std@@YA_NABVerror_condition@0@0@Z 10036c70 f i Navigation.obj
 0001:00035d00       ??A?$basic_string@DU?$char_traits@D@std@@V?$allocator@D@2@@std@@QAEAADI@Z 10036d00 f i Navigation.obj
 0001:00035d90       ??A?$map@UTileKey@Navigation@@_KU?$less@UTileKey@Navigation@@@std@@V?$allocator@U?$pair@$$CBUTileKey@Navigation@@_K@std@@@4@@std@@QAEAA_KABUTileKey@Navigation@@@Z 10036d90 f i Navigation.obj
 0001:00035de0       ??A?$vector@EV?$allocator@E@std@@@std@@QBEABEI@Z 10036de0 f i Navigation.obj
 0001:00035de0       ??A?$vector@W4StraightPathFlags@@V?$allocator@W4StraightPathFlags@@@std@@@std@@QBEABW4StraightPathFlags@@I@Z 10036de0 f i Navigation.obj
 0001:00035e80       ??A?$vector@MV?$allocator@M@std@@@std@@QAEAAMI@Z 10036e80 f i Navigation.obj
 0001:00035f30       ??A?$vector@VVector3@G3D@@V?$allocator@VVector3@G3D@@@std@@@std@@QAEAAVVector3@G3D@@I@Z 10036f30 f i Navigation.obj
 0001:00035fe0       ??A?$vector@VVector3@G3D@@V?$allocator@VVector3@G3D@@@std@@@std@@QBEABVVector3@G3D@@I@Z 10036fe0 f i Navigation.obj
 0001:00036090       ??B?$basic_string@_WU?$char_traits@_W@std@@V?$allocator@_W@2@@std@@QBE?AV?$basic_string_view@_WU?$char_traits@_W@std@@@1@XZ 10037090 f i Navigation.obj
 0001:000360f0       ??C?$_Tree_iterator@V?$_Tree_val@U?$_Tree_simple_types@U?$pair@$$CBUTileKey@Navigation@@_K@std@@@std@@@std@@@std@@QBEPAU?$pair@$$CBUTileKey@Navigation@@_K@1@XZ 100370f0 f i Navigation.obj
 0001:00036130       ??D?$_Tree_const_iterator@V?$_Tree_val@U?$_Tree_simple_types@U?$pair@$$CBUTileKey@Navigation@@_K@std@@@std@@@std@@@std@@QBEABU?$pair@$$CBUTileKey@Navigation@@_K@1@XZ 10037130 f i Navigation.obj
 0001:00036220       ??D?$_Tree_iterator@V?$_Tree_val@U?$_Tree_simple_types@U?$pair@$$CBUTileKey@Navigation@@_K@std@@@std@@@std@@@std@@QBEAAU?$pair@$$CBUTileKey@Navigation@@_K@1@XZ 10037220 f i Navigation.obj
 0001:00036250       ??Ddirectory_iterator@filesystem@std@@QBEABVdirectory_entry@12@XZ 10037250 f i Navigation.obj
 0001:00036280       ??E?$_Tree_const_iterator@V?$_Tree_val@U?$_Tree_simple_types@U?$pair@$$CBUTileKey@Navigation@@_K@std@@@std@@@std@@@std@@QAEAAV01@XZ 10037280 f i Navigation.obj
 0001:00036370       ??E?$_Tree_iterator@V?$_Tree_val@U?$_Tree_simple_types@U?$pair@$$CBUTileKey@Navigation@@_K@std@@@std@@@std@@@std@@QAEAAV01@XZ 10037370 f i Navigation.obj
 0001:000363b0       ??E?$_Tree_unchecked_const_iterator@V?$_Tree_val@U?$_Tree_simple_types@U?$pair@$$CBUTileKey@Navigation@@_K@std@@@std@@@std@@U_Iterator_base0@2@@std@@QAEAAV01@XZ 100373b0 f i Navigation.obj
 0001:00036440       ??E?$_Tree_unchecked_const_iterator@V?$_Tree_val@U?$_Tree_simple_types@U?$pair@$$CBUTileKey@Navigation@@_K@std@@@std@@@std@@U_Iterator_base12@2@@std@@QAEAAV01@XZ 10037440 f i Navigation.obj
 0001:000364e0       ??Edirectory_iterator@filesystem@std@@QAEAAV012@XZ 100374e0 f i Navigation.obj
 0001:00036540       ??I@YA?AW4__std_fs_file_attr@@W40@0@Z 10037540 f i Navigation.obj
 0001:00036560       ??Ifilesystem@std@@YA?AW4directory_options@01@W4201@0@Z 10037560 f i Navigation.obj
 0001:00036580       ??MTileKey@Navigation@@QBE_NABU01@@Z 10037580 f i Navigation.obj
 0001:00036640       ??R<lambda_1>@?1??append@?$basic_string@DU?$char_traits@D@std@@V?$allocator@D@2@@std@@QAEAAV23@ID@Z@QBE@QADQBDIID@Z 10037640 f i Navigation.obj
 0001:000366c0       ??R<lambda_1>@?1??append@?$basic_string@_WU?$char_traits@_W@std@@V?$allocator@_W@2@@std@@QAEAAV23@I_W@Z@QBE@QA_WQB_WII0@Z 100376c0 f i Navigation.obj
 0001:00036740       ??R<lambda_1>@?1??append@?$basic_string@_WU?$char_traits@_W@std@@V?$allocator@_W@2@@std@@QAEAAV23@QB_WI@Z@QBE@QA_W0I0I@Z 10037740 f i Navigation.obj
 0001:000367c0       ??R<lambda_1>@?1??assign@?$basic_string@_WU?$char_traits@_W@std@@V?$allocator@_W@2@@std@@QAEAAV23@QB_WI@Z@QBE@QA_WI0@Z 100377c0 f i Navigation.obj
 0001:00036830       ??R<lambda_1>@?1??push_back@?$basic_string@DU?$char_traits@D@std@@V?$allocator@D@2@@std@@QAEXD@Z@QBE@QADQBDID@Z 10037830 f i Navigation.obj
 0001:000368b0       ??R<lambda_1>@?1??push_back@?$basic_string@_WU?$char_traits@_W@std@@V?$allocator@_W@2@@std@@QAEX_W@Z@QBE@QA_WQB_WI0@Z 100378b0 f i Navigation.obj
 0001:00036930       ??R<lambda_1>@?1??reserve@?$basic_string@DU?$char_traits@D@std@@V?$allocator@D@2@@std@@QAEXI@Z@QBE@QADQBDI@Z 10037930 f i Navigation.obj
 0001:00036970       ??R?$less@UTileKey@Navigation@@@std@@QBE_NABUTileKey@Navigation@@0@Z 10037970 f i Navigation.obj
 0001:000369b0       ??R_Is_slash_oper@filesystem@std@@SA_N_W@Z 100379b0 f i Navigation.obj
 0001:00036a00       ??U@YA?AW4__std_fs_stats_flags@@W40@0@Z 10037a00 f i Navigation.obj
 0001:00036a20       ??Y?$basic_string@DU?$char_traits@D@std@@V?$allocator@D@2@@std@@QAEAAV01@ABV01@@Z 10037a20 f i Navigation.obj
 0001:00036a60       ??Y?$basic_string@DU?$char_traits@D@std@@V?$allocator@D@2@@std@@QAEAAV01@D@Z 10037a60 f i Navigation.obj
 0001:00036aa0       ??_0path@filesystem@std@@QAEAAV012@ABV012@@Z 10037aa0 f i Navigation.obj
 0001:00036c40       ??_5@YAAAW4__std_fs_stats_flags@@AAW40@W40@@Z 10037c40 f i Navigation.obj
 0001:00036c70       ??_E?$_Ref_count_obj2@U_Dir_enum_impl@filesystem@std@@@std@@UAEPAXI@Z 10037c70 f i Navigation.obj
 0001:00036c70       ??_G?$_Ref_count_obj2@U_Dir_enum_impl@filesystem@std@@@std@@UAEPAXI@Z 10037c70 f i Navigation.obj
 0001:00036cb0       ??_GMMapManager@MMAP@@QAEPAXI@Z 10037cb0 f i Navigation.obj
 0001:00036cf0       ??_G_Dir_enum_impl@filesystem@std@@QAEPAXI@Z 10037cf0 f i Navigation.obj
 0001:00036d30       ??_E_Generic_error_category@std@@UAEPAXI@Z 10037d30 f i Navigation.obj
 0001:00036d30       ??_E_System_error_category@std@@UAEPAXI@Z 10037d30 f i Navigation.obj
 0001:00036d30       ??_G_Generic_error_category@std@@UAEPAXI@Z 10037d30 f i Navigation.obj
 0001:00036d30       ??_G_System_error_category@std@@UAEPAXI@Z 10037d30 f i Navigation.obj
 0001:00036d70       ??_E_System_error@std@@UAEPAXI@Z 10037d70 f i Navigation.obj
 0001:00036d70       ??_G_System_error@std@@UAEPAXI@Z 10037d70 f i Navigation.obj
 0001:00036db0       ??_Efilesystem_error@filesystem@std@@UAEPAXI@Z 10037db0 f i Navigation.obj
 0001:00036db0       ??_Gfilesystem_error@filesystem@std@@UAEPAXI@Z 10037db0 f i Navigation.obj
 0001:00036df0       ??_Esystem_error@std@@UAEPAXI@Z 10037df0 f i Navigation.obj
 0001:00036df0       ??_Gsystem_error@std@@UAEPAXI@Z 10037df0 f i Navigation.obj
 0001:00036e30       ??_H@YGXPAXIIP6EPAX0@Z@Z   10037e30 f i Navigation.obj
 0001:00036eb0       ??__Ksv@string_view_literals@literals@std@@YA?AV?$basic_string_view@DU?$char_traits@D@std@@@3@PBDI@Z 10037eb0 f i Navigation.obj
 0001:00036eb0       ??__Ksv@string_view_literals@literals@std@@YA?AV?$basic_string_view@_WU?$char_traits@_W@std@@@3@PB_WI@Z 10037eb0 f i Navigation.obj
 0001:00036ee0       ?GetAbilityFlags@PathFinder@@QBEABV?$vector@EV?$allocator@E@std@@@std@@XZ 10037ee0 f i Navigation.obj
 0001:00036f10       ?GetFailStep@PathFinder@@QBE?AW4NavPathFindStep@@XZ 10037f10 f i Navigation.obj
 0001:00036f40       ?GetLastStatus@PathFinder@@QBEIXZ 10037f40 f i Navigation.obj
 0001:00036f70       ?GetPolyTypes@PathFinder@@QBEABV?$vector@EV?$allocator@E@std@@@std@@XZ 10037f70 f i Navigation.obj
 0001:00036fa0       ?GetStraightPathFlags@PathFinder@@QBEABV?$vector@W4StraightPathFlags@@V?$allocator@W4StraightPathFlags@@@std@@@std@@XZ 10037fa0 f i Navigation.obj
 0001:00036fd0       ?NavStatusAddFlag@@YAXAAIW4NavStatusFlag@@@Z 10037fd0 f i Navigation.obj
 0001:00037000       ?_Activate_SSO_buffer@?$_String_val@U?$_Simple_types@_W@std@@@std@@QAEXXZ 10038000 f i Navigation.obj
 0001:00037070       ?_Advance_and_reset_if_no_more_files@_Dir_enum_impl@filesystem@std@@SA?AW4__std_win_error@@AAV?$shared_ptr@U_Dir_enum_impl@filesystem@std@@@3@@Z 10038070 f i Navigation.obj
 0001:00037160       ?_Alloc_sentinel_and_proxy@?$_Tree@V?$_Tmap_traits@UTileKey@Navigation@@_KU?$less@UTileKey@Navigation@@@std@@V?$allocator@U?$pair@$$CBUTileKey@Navigation@@_K@std@@@4@$0A@@std@@@std@@IAEXXZ 10038160 f i Navigation.obj
 0001:00037270       ?_Allocate@?$_Alloc_construct_ptr@V?$allocator@U?$_Tree_node@U?$pair@$$CBUTileKey@Navigation@@_K@std@@PAX@std@@@std@@@std@@QAEXXZ 10038270 f i Navigation.obj
 0001:000372d0       ?_Buy_nonzero@?$vector@MV?$allocator@M@std@@@std@@AAEXI@Z 100382d0 f i Navigation.obj
 0001:00037320       ?_Buy_nonzero@?$vector@VVector3@G3D@@V?$allocator@VVector3@G3D@@@std@@@std@@AAEXI@Z 10038320 f i Navigation.obj
 0001:00037370       ?_Buy_raw@?$vector@MV?$allocator@M@std@@@std@@AAEXI@Z 10038370 f i Navigation.obj
 0001:00037410       ?_Buy_raw@?$vector@VVector3@G3D@@V?$allocator@VVector3@G3D@@@std@@@std@@AAEXI@Z 10038410 f i Navigation.obj
 0001:000374a0       ?_Calculate_growth@?$basic_string@_WU?$char_traits@_W@std@@V?$allocator@_W@2@@std@@ABEII@Z 100384a0 f i Navigation.obj
 0001:00037500       ?_Check_convert_result@std@@YAHU__std_fs_convert_result@@@Z 10038500 f i Navigation.obj
 0001:00037530       ?_Check_grow_by_1@?$_Tree@V?$_Tmap_traits@UTileKey@Navigation@@_KU?$less@UTileKey@Navigation@@@std@@V?$allocator@U?$pair@$$CBUTileKey@Navigation@@_K@std@@@4@$0A@@std@@@std@@IAEXXZ 10038530 f i Navigation.obj
 0001:00037580       ?_Check_offset@?$_String_val@U?$_Simple_types@_W@std@@@std@@QBEXI@Z 10038580 f i Navigation.obj
 0001:000375c0       ?_Construct_empty@?$basic_string@_WU?$char_traits@_W@std@@V?$allocator@_W@2@@std@@AAEXXZ 100385c0 f i Navigation.obj
 0001:00037660       ?_Convert_narrow_to_wide@filesystem@std@@YA?AV?$basic_string@_WU?$char_traits@_W@std@@V?$allocator@_W@2@@2@W4__std_code_page@@V?$basic_string_view@DU?$char_traits@D@std@@@2@@Z 10038660 f i Navigation.obj
 0001:00037800       ?_Decref@?$_Ptr_base@U_Dir_enum_impl@filesystem@std@@@std@@IAEXXZ 10038800 f i Navigation.obj
 0001:00037840       ?_Decref@_Ref_count_base@std@@QAEXXZ 10038840 f i Navigation.obj
 0001:000378a0       ?_Decwref@_Ref_count_base@std@@QAEXXZ 100388a0 f i Navigation.obj
 0001:000378f0       ?_Delete_this@?$_Ref_count_obj2@U_Dir_enum_impl@filesystem@std@@@std@@EAEXXZ 100388f0 f i Navigation.obj
 0001:00037960       ?_Destroy@?$_Ref_count_obj2@U_Dir_enum_impl@filesystem@std@@@std@@EAEXXZ 10038960 f i Navigation.obj
 0001:000379a0       ?_Eos@?$basic_string@DU?$char_traits@D@std@@V?$allocator@D@2@@std@@AAEXI@Z 100389a0 f i Navigation.obj
 0001:00037a00       ?_Eos@?$basic_string@_WU?$char_traits@_W@std@@V?$allocator@_W@2@@std@@AAEXI@Z 10038a00 f i Navigation.obj
 0001:00037a60       ?_Equal@?$basic_string@DU?$char_traits@D@std@@V?$allocator@D@2@@std@@QBE_NQBD@Z 10038a60 f i Navigation.obj
 0001:00037ad0       ?_Erase_unchecked@?$_Tree@V?$_Tmap_traits@UTileKey@Navigation@@_KU?$less@UTileKey@Navigation@@@std@@V?$allocator@U?$pair@$$CBUTileKey@Navigation@@_K@std@@@4@$0A@@std@@@std@@AAEPAU?$_Tree_node@U?$pair@$$CBUTileKey@Navigation@@_K@std@@PAX@2@V?$_Tree_unchecked_const_iterator@V?$_Tree_val@U?$_Tree_simple_types@U?$pair@$$CBUTileKey@Navigation@@_K@std@@@std@@@std@@U_Iterator_base0@2@@2@@Z 10038ad0 f i Navigation.obj
 0001:00037bb0       ?_Extract@?$_Tree_val@U?$_Tree_simple_types@U?$pair@$$CBUTileKey@Navigation@@_K@std@@@std@@@std@@QAEPAU?$_Tree_node@U?$pair@$$CBUTileKey@Navigation@@_K@std@@PAX@2@V?$_Tree_unchecked_const_iterator@V?$_Tree_val@U?$_Tree_simple_types@U?$pair@$$CBUTileKey@Navigation@@_K@std@@@std@@@std@@U_Iterator_base0@2@@2@@Z 10038bb0 f i Navigation.obj
 0001:00038010       ?_Find_filename@filesystem@std@@YAPB_WQB_WPB_W@Z 10039010 f i Navigation.obj
 0001:00038080       ?_Find_relative_path@filesystem@std@@YAPB_WQB_W0@Z 10039080 f i Navigation.obj
 0001:000380e0       ?_Find_root_name_end@filesystem@std@@YAPB_WQB_W0@Z 100390e0 f i Navigation.obj
 0001:000382a0       ?_Get_any_status@filesystem@std@@YA?AU_File_status_and_error@12@ABVpath@12@W4__std_fs_stats_flags@@@Z 100392a0 f i Navigation.obj
 0001:00038370       ?_Get_deleter@_Ref_count_base@std@@UBEPAXABVtype_info@@@Z 10039370 f i Navigation.obj
 0001:000383a0       ?_Get_first@?$_Compressed_pair@U?$less@UTileKey@Navigation@@@std@@V?$_Compressed_pair@V?$allocator@U?$_Tree_node@U?$pair@$$CBUTileKey@Navigation@@_K@std@@PAX@std@@@std@@V?$_Tree_val@U?$_Tree_simple_types@U?$pair@$$CBUTileKey@Navigation@@_K@std@@@std@@@2@$00@2@$00@std@@QBEABU?$less@UTileKey@Navigation@@@2@XZ 100393a0 f i Navigation.obj
 0001:000383a0       ?_Get_first@?$_Compressed_pair@V?$allocator@M@std@@V?$_Vector_val@U?$_Simple_types@M@std@@@2@$00@std@@QAEAAV?$allocator@M@2@XZ 100393a0 f i Navigation.obj
 0001:000383a0       ?_Get_first@?$_Compressed_pair@V?$allocator@M@std@@V?$_Vector_val@U?$_Simple_types@M@std@@@2@$00@std@@QBEABV?$allocator@M@2@XZ 100393a0 f i Navigation.obj
 0001:000383a0       ?_Get_first@?$_Compressed_pair@V?$allocator@U?$_Tree_node@U?$pair@$$CBUTileKey@Navigation@@_K@std@@PAX@std@@@std@@V?$_Tree_val@U?$_Tree_simple_types@U?$pair@$$CBUTileKey@Navigation@@_K@std@@@std@@@2@$00@std@@QAEAAV?$allocator@U?$_Tree_node@U?$pair@$$CBUTileKey@Navigation@@_K@std@@PAX@std@@@2@XZ 100393a0 f i Navigation.obj
 0001:000383a0       ?_Get_first@?$_Compressed_pair@V?$allocator@U?$_Tree_node@U?$pair@$$CBUTileKey@Navigation@@_K@std@@PAX@std@@@std@@V?$_Tree_val@U?$_Tree_simple_types@U?$pair@$$CBUTileKey@Navigation@@_K@std@@@std@@@2@$00@std@@QBEABV?$allocator@U?$_Tree_node@U?$pair@$$CBUTileKey@Navigation@@_K@std@@PAX@std@@@2@XZ 100393a0 f i Navigation.obj
 0001:000383a0       ?_Get_first@?$_Compressed_pair@V?$allocator@VVector3@G3D@@@std@@V?$_Vector_val@U?$_Simple_types@VVector3@G3D@@@std@@@2@$00@std@@QAEAAV?$allocator@VVector3@G3D@@@2@XZ 100393a0 f i Navigation.obj
 0001:000383a0       ?_Get_first@?$_Compressed_pair@V?$allocator@VVector3@G3D@@@std@@V?$_Vector_val@U?$_Simple_types@VVector3@G3D@@@std@@@2@$00@std@@QBEABV?$allocator@VVector3@G3D@@@2@XZ 100393a0 f i Navigation.obj
 0001:000383d0       ?_Get_scary@?$_Tree@V?$_Tmap_traits@UTileKey@Navigation@@_KU?$less@UTileKey@Navigation@@@std@@V?$allocator@U?$pair@$$CBUTileKey@Navigation@@_K@std@@@4@$0A@@std@@@std@@IAEPAV?$_Tree_val@U?$_Tree_simple_types@U?$pair@$$CBUTileKey@Navigation@@_K@std@@@std@@@2@XZ 100393d0 f i Navigation.obj
 0001:000383d0       ?_Get_scary@?$_Tree@V?$_Tmap_traits@UTileKey@Navigation@@_KU?$less@UTileKey@Navigation@@@std@@V?$allocator@U?$pair@$$CBUTileKey@Navigation@@_K@std@@@4@$0A@@std@@@std@@IBEPBV?$_Tree_val@U?$_Tree_simple_types@U?$pair@$$CBUTileKey@Navigation@@_K@std@@@std@@@2@XZ 100393d0 f i Navigation.obj
 0001:00038410       ?_Getal@?$_Tree@V?$_Tmap_traits@UTileKey@Navigation@@_KU?$less@UTileKey@Navigation@@@std@@V?$allocator@U?$pair@$$CBUTileKey@Navigation@@_K@std@@@4@$0A@@std@@@std@@IAEAAV?$allocator@U?$_Tree_node@U?$pair@$$CBUTileKey@Navigation@@_K@std@@PAX@std@@@2@XZ 10039410 f i Navigation.obj
 0001:00038410       ?_Getal@?$_Tree@V?$_Tmap_traits@UTileKey@Navigation@@_KU?$less@UTileKey@Navigation@@@std@@V?$allocator@U?$pair@$$CBUTileKey@Navigation@@_K@std@@@4@$0A@@std@@@std@@IBEABV?$allocator@U?$_Tree_node@U?$pair@$$CBUTileKey@Navigation@@_K@std@@PAX@std@@@2@XZ 10039410 f i Navigation.obj
 0001:00038410       ?_Getcomp@?$_Tree@V?$_Tmap_traits@UTileKey@Navigation@@_KU?$less@UTileKey@Navigation@@@std@@V?$allocator@U?$pair@$$CBUTileKey@Navigation@@_K@std@@@4@$0A@@std@@@std@@IBEABU?$less@UTileKey@Navigation@@@2@XZ 10039410 f i Navigation.obj
 0001:00038440       ?_Getal@?$vector@MV?$allocator@M@std@@@std@@AAEAAV?$allocator@M@2@XZ 10039440 f i Navigation.obj
 0001:00038440       ?_Getal@?$vector@MV?$allocator@M@std@@@std@@ABEABV?$allocator@M@2@XZ 10039440 f i Navigation.obj
 0001:00038440       ?_Getal@?$vector@VVector3@G3D@@V?$allocator@VVector3@G3D@@@std@@@std@@AAEAAV?$allocator@VVector3@G3D@@@2@XZ 10039440 f i Navigation.obj
 0001:00038440       ?_Getal@?$vector@VVector3@G3D@@V?$allocator@VVector3@G3D@@@std@@@std@@ABEABV?$allocator@VVector3@G3D@@@2@XZ 10039440 f i Navigation.obj
 0001:00038470       ?_Has_drive_letter_prefix@filesystem@std@@YA_NQB_W0@Z 10039470 f i Navigation.obj
 0001:000384d0       ?_Incref@?$_Ptr_base@U_Dir_enum_impl@filesystem@std@@@std@@IBEXXZ 100394d0 f i Navigation.obj
 0001:00038510       ?_Incref@_Ref_count_base@std@@QAEXXZ 10039510 f i Navigation.obj
 0001:00038540       ?_Insert_node@?$_Tree_val@U?$_Tree_simple_types@U?$pair@$$CBUTileKey@Navigation@@_K@std@@@std@@@std@@QAEPAU?$_Tree_node@U?$pair@$$CBUTileKey@Navigation@@_K@std@@PAX@2@U?$_Tree_id@PAU?$_Tree_node@U?$pair@$$CBUTileKey@Navigation@@_K@std@@PAX@std@@@2@QAU32@@Z 10039540 f i Navigation.obj
 0001:00038780       ?_Is_dot_or_dotdot@filesystem@std@@YA_NABU__std_fs_find_data@@@Z 10039780 f i Navigation.obj
 0001:00038820       ?_Is_drive_prefix@filesystem@std@@YA_NQB_W@Z 10039820 f i Navigation.obj
 0001:000388e0       ?_Lrotate@?$_Tree_val@U?$_Tree_simple_types@U?$pair@$$CBUTileKey@Navigation@@_K@std@@@std@@@std@@QAEXPAU?$_Tree_node@U?$pair@$$CBUTileKey@Navigation@@_K@std@@PAX@2@@Z 100398e0 f i Navigation.obj
 0001:000389a0       ?_Make_ec@std@@YA?AVerror_code@1@W4__std_win_error@@@Z 100399a0 f i Navigation.obj
 0001:000389d0       ?_Makestr@_System_error@std@@CA?AV?$basic_string@DU?$char_traits@D@std@@V?$allocator@D@2@@2@Verror_code@2@V32@@Z 100399d0 f i Navigation.obj
 0001:00038ab0       ?_Mark@?$_String_bitmap@D$00@std@@QAE_NPBDQBD@Z 10039ab0 f i Navigation.obj
 0001:00038b00       ?_Match@?$_String_bitmap@D$00@std@@QBE_ND@Z 10039b00 f i Navigation.obj
 0001:00038b40       ?_Max@?$_Tree_val@U?$_Tree_simple_types@U?$pair@$$CBUTileKey@Navigation@@_K@std@@@std@@@std@@SAPAU?$_Tree_node@U?$pair@$$CBUTileKey@Navigation@@_K@std@@PAX@2@PAU32@@Z 10039b40 f i Navigation.obj
 0001:00038b80       ?_Min@?$_Tree_val@U?$_Tree_simple_types@U?$pair@$$CBUTileKey@Navigation@@_K@std@@@std@@@std@@SAPAU?$_Tree_node@U?$pair@$$CBUTileKey@Navigation@@_K@std@@PAX@2@PAU32@@Z 10039b80 f i Navigation.obj
 0001:00038bc0       ?_Myptr@?$_String_val@U?$_Simple_types@_W@std@@@std@@QBEPB_WXZ 10039bc0 f i Navigation.obj
 0001:00038c20       ?_Open@_Find_file_handle@filesystem@std@@QAE?AW4__std_win_error@@PB_WPAU__std_fs_find_data@@@Z 10039c20 f i Navigation.obj
 0001:00038c60       ?_Open_dir@_Dir_enum_impl@filesystem@std@@SA?AW4__std_win_error@@AAVpath@23@W4directory_options@23@AAU_Find_file_handle@23@AAU__std_fs_find_data@@@Z 10039c60 f i Navigation.obj
 0001:00038e40       ?_Orphan_all@?$basic_string@_WU?$char_traits@_W@std@@V?$allocator@_W@2@@std@@QAEXXZ 10039e40 f i Navigation.obj
 0001:00038e70       ?_Orphan_ptr@?$_Tree_val@U?$_Tree_simple_types@U?$pair@$$CBUTileKey@Navigation@@_K@std@@@std@@@std@@QAEXQAU?$_Tree_node@U?$pair@$$CBUTileKey@Navigation@@_K@std@@PAX@2@@Z 10039e70 f i Navigation.obj
 0001:00038f80       ?_Pretty_message@filesystem_error@filesystem@std@@CA?AV?$basic_string@DU?$char_traits@D@std@@V?$allocator@D@2@@3@V?$basic_string_view@DU?$char_traits@D@std@@@3@ABVpath@23@1@Z 10039f80 f i Navigation.obj
 0001:00039260       ?_Range_compare@filesystem@std@@YAHQB_W000@Z 1003a260 f i Navigation.obj
 0001:000392a0       ?_Refresh@_Dir_enum_impl@filesystem@std@@QAEXABU__std_fs_find_data@@@Z 1003a2a0 f i Navigation.obj
 0001:00039360       ?_Refresh@directory_entry@filesystem@std@@AAEXABU__std_fs_find_data@@@Z 1003a360 f i Navigation.obj
 0001:00039430       ?_Refresh@file_status@filesystem@std@@QAEXW4__std_win_error@@ABU__std_fs_stats@@@Z 1003a430 f i Navigation.obj
 0001:00039570       ?_Release@?$_Alloc_construct_ptr@V?$allocator@U?$_Tree_node@U?$pair@$$CBUTileKey@Navigation@@_K@std@@PAX@std@@@std@@@std@@QAEPAU?$_Tree_node@U?$pair@$$CBUTileKey@Navigation@@_K@std@@PAX@2@XZ 1003a570 f i Navigation.obj
 0001:000395c0       ?_Release@?$_Uninitialized_backout_al@V?$allocator@M@std@@@std@@QAEPAMXZ 1003a5c0 f i Navigation.obj
 0001:000395c0       ?_Release@?$_Uninitialized_backout_al@V?$allocator@VVector3@G3D@@@std@@@std@@QAEPAVVector3@G3D@@XZ 1003a5c0 f i Navigation.obj
 0001:00039600       ?_Rrotate@?$_Tree_val@U?$_Tree_simple_types@U?$pair@$$CBUTileKey@Navigation@@_K@std@@@std@@@std@@QAEXPAU?$_Tree_node@U?$pair@$$CBUTileKey@Navigation@@_K@std@@PAX@2@@Z 1003a600 f i Navigation.obj
 0001:000396c0       ?_Skip_dots@_Dir_enum_impl@filesystem@std@@SA?AW4__std_win_error@@W4__std_fs_dir_handle@@AAU__std_fs_find_data@@@Z 1003a6c0 f i Navigation.obj
 0001:00039750       ?_Swap@?$_Ptr_base@U_Dir_enum_impl@filesystem@std@@@std@@IAEXAAV12@@Z 1003a750 f i Navigation.obj
 0001:000397a0       ?_Swap_proxy_and_iterators@?$basic_string@DU?$char_traits@D@std@@V?$allocator@D@2@@std@@AAEXAAV12@@Z 1003a7a0 f i Navigation.obj
 0001:000397a0       ?_Swap_proxy_and_iterators@?$basic_string@_WU?$char_traits@_W@std@@V?$allocator@_W@2@@std@@AAEXAAV12@@Z 1003a7a0 f i Navigation.obj
 0001:000397f0       ?_Swap_proxy_and_iterators@_Container_base12@std@@QAEXAAU12@@Z 1003a7f0 f i Navigation.obj
 0001:00039850       ?_Swap_proxy_and_iterators_locked@_Container_base12@std@@AAEXAAU12@@Z 1003a850 f i Navigation.obj
 0001:00039900       ?_Swap_proxy_and_iterators_unlocked@_Container_base12@std@@AAEXAAU12@@Z 1003a900 f i Navigation.obj
 0001:00039970       ?_Take_contents@?$basic_string@DU?$char_traits@D@std@@V?$allocator@D@2@@std@@AAEXAAV12@@Z 1003a970 f i Navigation.obj
 0001:00039b20       ?_Take_contents@?$basic_string@_WU?$char_traits@_W@std@@V?$allocator@_W@2@@std@@AAEXAAV12@@Z 1003ab20 f i Navigation.obj
 0001:00039ce0       ?_Throw_fs_error@filesystem@std@@YAXPBDW4__std_win_error@@@Z 1003ace0 f i Navigation.obj
 0001:00039de0       ?_Throw_fs_error@filesystem@std@@YAXPBDW4__std_win_error@@ABVpath@12@@Z 1003ade0 f i Navigation.obj
 0001:00039ed0       ?_Throw_system_error@std@@YAXW4errc@1@@Z 1003aed0 f i Navigation.obj
 0001:00039f40       ?_Throw_system_error_from_std_win_error@std@@YAXW4__std_win_error@@@Z 1003af40 f i Navigation.obj
 0001:00039fb0       ?_Throw_tree_length_error@std@@YAXXZ 1003afb0 f i Navigation.obj
 0001:00039fe0       ?_Tidy@?$vector@MV?$allocator@M@std@@@std@@AAEXXZ 1003afe0 f i Navigation.obj
 0001:0003a0b0       ?_Tidy@?$vector@VVector3@G3D@@V?$allocator@VVector3@G3D@@@std@@@std@@AAEXXZ 1003b0b0 f i Navigation.obj
 0001:0003a180       ?_Unwrapped@?$_Tree_iterator@V?$_Tree_val@U?$_Tree_simple_types@U?$pair@$$CBUTileKey@Navigation@@_K@std@@@std@@@std@@@std@@QBE?AV?$_Tree_unchecked_iterator@V?$_Tree_val@U?$_Tree_simple_types@U?$pair@$$CBUTileKey@Navigation@@_K@std@@@std@@@std@@@2@XZ 1003b180 f i Navigation.obj
 0001:0003a1e0       ?_Xlength@?$vector@MV?$allocator@M@std@@@std@@CAXXZ 1003b1e0 f i Navigation.obj
 0001:0003a1e0       ?_Xlength@?$vector@VVector3@G3D@@V?$allocator@VVector3@G3D@@@std@@@std@@CAXXZ 1003b1e0 f i Navigation.obj
 0001:0003a210       ?_Xran@?$_String_val@U?$_Simple_types@_W@std@@@std@@SAXXZ 1003b210 f i Navigation.obj
 0001:0003a240       ?allocate@?$allocator@M@std@@QAEPAMI@Z 1003b240 f i Navigation.obj
 0001:0003a280       ?allocate@?$allocator@U?$_Tree_node@U?$pair@$$CBUTileKey@Navigation@@_K@std@@PAX@std@@@std@@QAEPAU?$_Tree_node@U?$pair@$$CBUTileKey@Navigation@@_K@std@@PAX@2@I@Z 1003b280 f i Navigation.obj
 0001:0003a2c0       ?allocate@?$allocator@VVector3@G3D@@@std@@QAEPAVVector3@G3D@@I@Z 1003b2c0 f i Navigation.obj
 0001:0003a300       ?append@?$basic_string@DU?$char_traits@D@std@@V?$allocator@D@2@@std@@QAEAAV12@ID@Z 1003b300 f i Navigation.obj
 0001:0003a3c0       ?append@?$basic_string@_WU?$char_traits@_W@std@@V?$allocator@_W@2@@std@@QAEAAV12@I_W@Z 1003b3c0 f i Navigation.obj
 0001:0003a480       ?append@?$basic_string@_WU?$char_traits@_W@std@@V?$allocator@_W@2@@std@@QAEAAV12@QB_WI@Z 1003b480 f i Navigation.obj
 0001:0003a540       ?assign@?$_Char_traits@DH@std@@SAPADQADID@Z 1003b540 f i Navigation.obj
 0001:0003a5a0       ?assign@?$_Char_traits@_WG@std@@SAPA_WQA_WI_W@Z 1003b5a0 f i Navigation.obj
 0001:0003a600       ?assign@?$_Narrow_char_traits@DH@std@@SAPADQADID@Z 1003b600 f i Navigation.obj
 0001:0003a650       ?assign@?$_WChar_traits@_W@std@@SAPA_WQA_WI_W@Z 1003b650 f i Navigation.obj
 0001:0003a6a0       ?assign@?$basic_string@_WU?$char_traits@_W@std@@V?$allocator@_W@2@@std@@QAEAAV12@QB_WI@Z 1003b6a0 f i Navigation.obj
 0001:0003a750       ?begin@?$_Tree@V?$_Tmap_traits@UTileKey@Navigation@@_KU?$less@UTileKey@Navigation@@@std@@V?$allocator@U?$pair@$$CBUTileKey@Navigation@@_K@std@@@4@$0A@@std@@@std@@QAE?AV?$_Tree_iterator@V?$_Tree_val@U?$_Tree_simple_types@U?$pair@$$CBUTileKey@Navigation@@_K@std@@@std@@@std@@@2@XZ 1003b750 f i Navigation.obj
 0001:0003a7b0       ?begin@filesystem@std@@YA?AVdirectory_iterator@12@V312@@Z 1003b7b0 f i Navigation.obj
 0001:0003a7e0       ?c_str@?$basic_string@_WU?$char_traits@_W@std@@V?$allocator@_W@2@@std@@QBEPB_WXZ 1003b7e0 f i Navigation.obj
 0001:0003a7e0       ?data@?$basic_string@_WU?$char_traits@_W@std@@V?$allocator@_W@2@@std@@QBEPB_WXZ 1003b7e0 f i Navigation.obj
 0001:0003a810       ?c_str@path@filesystem@std@@QBEPB_WXZ 1003b810 f i Navigation.obj
 0001:0003a840       ?category@error_code@std@@QBEABVerror_category@2@XZ 1003b840 f i Navigation.obj
 0001:0003a840       ?category@error_condition@std@@QBEABVerror_category@2@XZ 1003b840 f i Navigation.obj
 0001:0003a870       ?clear@error_code@std@@QAEXXZ 1003b870 f i Navigation.obj
 0001:0003a8b0       ?compare@?$_WChar_traits@_W@std@@SAHQB_W0I@Z 1003b8b0 f i Navigation.obj
 0001:0003a970       ?count@?$duration@MU?$ratio@$00$0DOI@@std@@@chrono@std@@QBEMXZ 1003b970 f i Navigation.obj
 0001:0003a9a0       ?count@?$duration@_JU?$ratio@$00$0DLJKMKAA@@std@@@chrono@std@@QBE_JXZ 1003b9a0 f i Navigation.obj
 0001:0003a9a0       ?count@?$duration@_JU?$ratio@$00$0DOI@@std@@@chrono@std@@QBE_JXZ 1003b9a0 f i Navigation.obj
 0001:0003a9d0       ?data@?$basic_string@DU?$char_traits@D@std@@V?$allocator@D@2@@std@@QAEPADXZ 1003b9d0 f i Navigation.obj
 0001:0003a9d0       ?data@?$basic_string@DU?$char_traits@D@std@@V?$allocator@D@2@@std@@QBEPBDXZ 1003b9d0 f i Navigation.obj
 0001:0003aa00       ?data@?$basic_string@_WU?$char_traits@_W@std@@V?$allocator@_W@2@@std@@QAEPA_WXZ 1003ba00 f i Navigation.obj
 0001:0003aa30       ?data@?$basic_string_view@DU?$char_traits@D@std@@@std@@QBEPBDXZ 1003ba30 f i Navigation.obj
 0001:0003aa30       ?data@?$basic_string_view@_WU?$char_traits@_W@std@@@std@@QBEPB_WXZ 1003ba30 f i Navigation.obj
 0001:0003aa60       ?data@?$vector@MV?$allocator@M@std@@@std@@QAEPAMXZ 1003ba60 f i Navigation.obj
 0001:0003aaa0       ?deallocate@?$_Default_allocator_traits@V?$allocator@U?$_Tree_node@U?$pair@$$CBUTileKey@Navigation@@_K@std@@PAX@std@@@std@@@std@@SAXAAV?$allocator@U?$_Tree_node@U?$pair@$$CBUTileKey@Navigation@@_K@std@@PAX@std@@@2@QAU?$_Tree_node@U?$pair@$$CBUTileKey@Navigation@@_K@std@@PAX@2@I@Z 1003baa0 f i Navigation.obj
 0001:0003aaf0       ?deallocate@?$allocator@M@std@@QAEXQAMI@Z 1003baf0 f i Navigation.obj
 0001:0003ab90       ?deallocate@?$allocator@U?$_Tree_node@U?$pair@$$CBUTileKey@Navigation@@_K@std@@PAX@std@@@std@@QAEXQAU?$_Tree_node@U?$pair@$$CBUTileKey@Navigation@@_K@std@@PAX@2@I@Z 1003bb90 f i Navigation.obj
 0001:0003ac30       ?deallocate@?$allocator@VVector3@G3D@@@std@@QAEXQAVVector3@G3D@@I@Z 1003bc30 f i Navigation.obj
 0001:0003acd0       ?default_error_condition@_System_error_category@std@@UBE?AVerror_condition@2@H@Z 1003bcd0 f i Navigation.obj
 0001:0003ad90       ?default_error_condition@error_category@std@@UBE?AVerror_condition@2@H@Z 1003bd90 f i Navigation.obj
 0001:0003add0       ?dtCustomAlloc@@YAPAXIW4dtAllocHint@@@Z 1003bdd0 f i Navigation.obj
 0001:0003ae10       ?dtCustomFree@@YAXPAX@Z    1003be10 f i Navigation.obj
 0001:0003ae50       ?dtStatusSucceed@@YA_NI@Z  1003be50 f i Navigation.obj
 0001:0003aea0       ?empty@?$basic_string@DU?$char_traits@D@std@@V?$allocator@D@2@@std@@QBE_NXZ 1003bea0 f i Navigation.obj
 0001:0003aef0       ?empty@?$basic_string_view@DU?$char_traits@D@std@@@std@@QBE_NXZ 1003bef0 f i Navigation.obj
 0001:0003aef0       ?empty@?$basic_string_view@_WU?$char_traits@_W@std@@@std@@QBE_NXZ 1003bef0 f i Navigation.obj
 0001:0003af40       ?end@?$_Tree@V?$_Tmap_traits@UTileKey@Navigation@@_KU?$less@UTileKey@Navigation@@@std@@V?$allocator@U?$pair@$$CBUTileKey@Navigation@@_K@std@@@4@$0A@@std@@@std@@QAE?AV?$_Tree_iterator@V?$_Tree_val@U?$_Tree_simple_types@U?$pair@$$CBUTileKey@Navigation@@_K@std@@@std@@@std@@@2@XZ 1003bf40 f i Navigation.obj
 0001:0003afa0       ?end@filesystem@std@@YA?AVdirectory_iterator@12@V312@@Z 1003bfa0 f i Navigation.obj
 0001:0003afe0       ?equivalent@error_category@std@@UBE_NABVerror_code@2@H@Z 1003bfe0 f i Navigation.obj
 0001:0003b050       ?equivalent@error_category@std@@UBE_NHABVerror_condition@2@@Z 1003c050 f i Navigation.obj
 0001:0003b0c0       ?erase@?$basic_string@_WU?$char_traits@_W@std@@V?$allocator@_W@2@@std@@QAEAAV12@I@Z 1003c0c0 f i Navigation.obj
 0001:0003b120       ?exists@filesystem@std@@YA_NABVpath@12@AAVerror_code@2@@Z 1003c120 f i Navigation.obj
 0001:0003b1a0       ?find_last_of@?$basic_string@DU?$char_traits@D@std@@V?$allocator@D@2@@std@@QBEIQBDI@Z 1003c1a0 f i Navigation.obj
 0001:0003b220       ?generic_category@std@@YAABVerror_category@1@XZ 1003c220 f i Navigation.obj
 0001:0003b240       ?get@?$_Ptr_base@U_Dir_enum_impl@filesystem@std@@@std@@IBEPAU_Dir_enum_impl@filesystem@2@XZ 1003c240 f i Navigation.obj
 0001:0003b270       ?getPath@PathFinder@@QAEAAV?$vector@VVector3@G3D@@V?$allocator@VVector3@G3D@@@std@@@std@@XZ 1003c270 f i Navigation.obj
 0001:0003b2a0       ?getPathType@PathFinder@@QBE?AW4PathType@@XZ 1003c2a0 f i Navigation.obj
 0001:0003b2d0       ?is_absolute@path@filesystem@std@@QBE_NXZ 1003c2d0 f i Navigation.obj
 0001:0003b3d0       ?make_error_code@std@@YA?AVerror_code@1@W4errc@1@@Z 1003c3d0 f i Navigation.obj
 0001:0003b400       ?max_size@?$_Default_allocator_traits@V?$allocator@M@std@@@std@@SAIABV?$allocator@M@2@@Z 1003c400 f i Navigation.obj
 0001:0003b420       ?max_size@?$_Default_allocator_traits@V?$allocator@U?$_Tree_node@U?$pair@$$CBUTileKey@Navigation@@_K@std@@PAX@std@@@std@@@std@@SAIABV?$allocator@U?$_Tree_node@U?$pair@$$CBUTileKey@Navigation@@_K@std@@PAX@std@@@2@@Z 1003c420 f i Navigation.obj
 0001:0003b440       ?max_size@?$_Default_allocator_traits@V?$allocator@VVector3@G3D@@@std@@@std@@SAIABV?$allocator@VVector3@G3D@@@2@@Z 1003c440 f i Navigation.obj
 0001:0003b460       ?max_size@?$_Tree@V?$_Tmap_traits@UTileKey@Navigation@@_KU?$less@UTileKey@Navigation@@@std@@V?$allocator@U?$pair@$$CBUTileKey@Navigation@@_K@std@@@4@$0A@@std@@@std@@QBEIXZ 1003c460 f i Navigation.obj
 0001:0003b4d0       ?max_size@?$vector@MV?$allocator@M@std@@@std@@QBEIXZ 1003c4d0 f i Navigation.obj
 0001:0003b540       ?max_size@?$vector@VVector3@G3D@@V?$allocator@VVector3@G3D@@@std@@@std@@QBEIXZ 1003c540 f i Navigation.obj
 0001:0003b5b0       ?message@_Generic_error_category@std@@UBE?AV?$basic_string@DU?$char_traits@D@std@@V?$allocator@D@2@@2@H@Z 1003c5b0 f i Navigation.obj
 0001:0003b610       ?message@_System_error_category@std@@UBE?AV?$basic_string@DU?$char_traits@D@std@@V?$allocator@D@2@@2@H@Z 1003c610 f i Navigation.obj
 0001:0003b750       ?message@error_code@std@@QBE?AV?$basic_string@DU?$char_traits@D@std@@V?$allocator@D@2@@2@XZ 1003c750 f i Navigation.obj
 0001:0003b7e0       ?move@?$_Char_traits@_WG@std@@SAPA_WQA_WQB_WI@Z 1003c7e0 f i Navigation.obj
 0001:0003b8e0       ?name@_Generic_error_category@std@@UBEPBDXZ 1003c8e0 f i Navigation.obj
 0001:0003b910       ?name@_System_error_category@std@@UBEPBDXZ 1003c910 f i Navigation.obj
 0001:0003b940       ?native@path@filesystem@std@@QBEABV?$basic_string@_WU?$char_traits@_W@std@@V?$allocator@_W@2@@3@XZ 1003c940 f i Navigation.obj
 0001:0003b970       ?now@steady_clock@chrono@std@@SA?AV?$time_point@Usteady_clock@chrono@std@@V?$duration@_JU?$ratio@$00$0DLJKMKAA@@std@@@23@@23@XZ 1003c970 f i Navigation.obj
 0001:0003bb60       ?path@directory_entry@filesystem@std@@QBEABV023@XZ 1003cb60 f i Navigation.obj
 0001:0003bb90       ?permissions@file_status@filesystem@std@@QAEXW4perms@23@@Z 1003cb90 f i Navigation.obj
 0001:0003bbd0       ?pointer_to@?$pointer_traits@PAU?$pair@$$CBUTileKey@Navigation@@_K@std@@@std@@SAPAU?$pair@$$CBUTileKey@Navigation@@_K@2@AAU32@@Z 1003cbd0 f i Navigation.obj
 0001:0003bc00       ?push_back@?$basic_string@DU?$char_traits@D@std@@V?$allocator@D@2@@std@@QAEXD@Z 1003cc00 f i Navigation.obj
 0001:0003bcb0       ?push_back@?$basic_string@_WU?$char_traits@_W@std@@V?$allocator@_W@2@@std@@QAEX_W@Z 1003ccb0 f i Navigation.obj
 0001:0003bd60       ?remove_filename@path@filesystem@std@@QAEAAV123@XZ 1003cd60 f i Navigation.obj
 0001:0003be20       ?replace_filename@path@filesystem@std@@QAEAAV123@ABV123@@Z 1003ce20 f i Navigation.obj
 0001:0003be60       ?reserve@?$basic_string@DU?$char_traits@D@std@@V?$allocator@D@2@@std@@QAEXI@Z 1003ce60 f i Navigation.obj
 0001:0003bed0       ?reset@?$shared_ptr@U_Dir_enum_impl@filesystem@std@@@std@@QAEXXZ 1003ced0 f i Navigation.obj
 0001:0003bf30       ?resize@?$basic_string@DU?$char_traits@D@std@@V?$allocator@D@2@@std@@QAEXID@Z 1003cf30 f i Navigation.obj
 0001:0003bfa0       ?resize@?$basic_string@_WU?$char_traits@_W@std@@V?$allocator@_W@2@@std@@QAEXI_W@Z 1003cfa0 f i Navigation.obj
 0001:0003c010       ?setAreaCost@dtQueryFilter@@QAEXHM@Z 1003d010 f i Navigation.obj
 0001:0003c050       ?setExcludeFlags@dtQueryFilter@@QAEXG@Z 1003d050 f i Navigation.obj
 0001:0003c090       ?setIncludeFlags@dtQueryFilter@@QAEXG@Z 1003d090 f i Navigation.obj
 0001:0003c0d0       ?setUseStrightPath@PathFinder@@QAEX_N@Z 1003d0d0 f i Navigation.obj
 0001:0003c110       ?size@?$_Tree@V?$_Tmap_traits@UTileKey@Navigation@@_KU?$less@UTileKey@Navigation@@@std@@V?$allocator@U?$pair@$$CBUTileKey@Navigation@@_K@std@@@4@$0A@@std@@@std@@QBEIXZ 1003d110 f i Navigation.obj
 0001:0003c150       ?size@?$basic_string@DU?$char_traits@D@std@@V?$allocator@D@2@@std@@QBEIXZ 1003d150 f i Navigation.obj
 0001:0003c150       ?size@?$basic_string@_WU?$char_traits@_W@std@@V?$allocator@_W@2@@std@@QBEIXZ 1003d150 f i Navigation.obj
 0001:0003c180       ?size@?$basic_string_view@DU?$char_traits@D@std@@@std@@QBEIXZ 1003d180 f i Navigation.obj
 0001:0003c180       ?size@?$basic_string_view@_WU?$char_traits@_W@std@@@std@@QBEIXZ 1003d180 f i Navigation.obj
 0001:0003c1b0       ?size@?$vector@EV?$allocator@E@std@@@std@@QBEIXZ 1003d1b0 f i Navigation.obj
 0001:0003c1b0       ?size@?$vector@W4StraightPathFlags@@V?$allocator@W4StraightPathFlags@@@std@@@std@@QBEIXZ 1003d1b0 f i Navigation.obj
 0001:0003c200       ?size@?$vector@VVector3@G3D@@V?$allocator@VVector3@G3D@@@std@@@std@@QBEIXZ 1003d200 f i Navigation.obj
 0001:0003c250       ?sqrt@@YAMM@Z              1003d250 f i Navigation.obj
 0001:0003c280       ?status@filesystem@std@@YA?AVfile_status@12@ABVpath@12@AAVerror_code@2@@Z 1003d280 f i Navigation.obj
 0001:0003c350       ?string@path@filesystem@std@@QBE?AV?$basic_string@DU?$char_traits@D@std@@V?$allocator@D@2@@3@XZ 1003d350 f i Navigation.obj
 0001:0003c3c0       ?swap@?$shared_ptr@U_Dir_enum_impl@filesystem@std@@@std@@QAEXAAV12@@Z 1003d3c0 f i Navigation.obj
 0001:0003c400       ?system_category@std@@YAABVerror_category@1@XZ 1003d400 f i Navigation.obj
 0001:0003c420       ?time_since_epoch@?$time_point@Usteady_clock@chrono@std@@V?$duration@_JU?$ratio@$00$0DLJKMKAA@@std@@@23@@chrono@std@@QBE?AV?$duration@_JU?$ratio@$00$0DLJKMKAA@@std@@@23@XZ 1003d420 f i Navigation.obj
 0001:0003c460       ?to_string@std@@YA?AV?$basic_string@DU?$char_traits@D@std@@V?$allocator@D@2@@1@I@Z 1003d460 f i Navigation.obj
 0001:0003c4b0       ?type@file_status@filesystem@std@@QAEXW4file_type@23@@Z 1003d4b0 f i Navigation.obj
 0001:0003c4e0       ?type@file_status@filesystem@std@@QBE?AW4file_type@23@XZ 1003d4e0 f i Navigation.obj
 0001:0003c510       ?value@error_code@std@@QBEHXZ 1003d510 f i Navigation.obj
 0001:0003c510       ?value@error_condition@std@@QBEHXZ 1003d510 f i Navigation.obj
 0001:0003c540       ?what@filesystem_error@filesystem@std@@UBEPBDXZ 1003d540 f i Navigation.obj
 0001:0003c580       ___std_is_file_not_found   1003d580 f i Navigation.obj
 0001:0003c5f0       _wmemcmp                   1003d5f0 f i Navigation.obj
 0001:0003c9e0       _wmemset                   1003d9e0 f i Navigation.obj
 0001:0003ca50       _Nav_LoadMaps              1003da50 f   NavBridge.obj
 0001:0003ca90       _Nav_UnloadMaps            1003da90 f   NavBridge.obj
 0001:0003cad0       _CalculatePath_C           1003dad0 f   NavBridge.obj
 0001:0003cd00       _FreePathArr_C             1003dd00 f   NavBridge.obj
 0001:0003cd40       _CalculatePathEx           1003dd40 f   NavBridge.obj
 0001:0003ce60       _FreePathResult            1003de60 f   NavBridge.obj
 0001:0003cea0       _Raycast_C                 1003dea0 f   NavBridge.obj
 0001:0003d230       _FindNearestPoint_C        1003e230 f   NavBridge.obj
 0001:0003d2a0       _FindNearestPointEx_C      1003e2a0 f   NavBridge.obj
 0001:0003d440       _FindRandomPoint_C         1003e440 f   NavBridge.obj
 0001:0003d660       _SetAreaCost_C             1003e660 f   NavBridge.obj
 0001:0003d6b0       _CreateCorridorForAgent_C  1003e6b0 f   NavBridge.obj
 0001:0003daf0       _UpdateCorridorAgentPosition_C 1003eaf0 f   NavBridge.obj
 0001:0003dc00       _IsOffMeshConnection_C     1003ec00 f   NavBridge.obj
 0001:0003ddc0       _AddOffMeshConnection_C    1003edc0 f   NavBridge.obj
 0001:0003def0       _LoadTileOffMesh_C         1003eef0 f   NavBridge.obj
 0001:0003df30       _SetIncludeFlags_C         1003ef30 f   NavBridge.obj
 0001:0003df80       _SetExcludeFlags_C         1003ef80 f   NavBridge.obj
 0001:0003dfd0       _WorldToTile_C             1003efd0 f   NavBridge.obj
 0001:0003e070       _EnsureTiles_C             1003f070 f   NavBridge.obj
 0001:0003e0f0       _EnsureTilesDirectional_C  1003f0f0 f   NavBridge.obj
 0001:0003e1c0       _UpdatePathFollowing_C     1003f1c0 f   NavBridge.obj
 0001:0003e390       _DestroyCorridorForAgent_C 1003f390 f   NavBridge.obj
 0001:0003e4c0       _GetNavStats_C             1003f4c0 f   NavBridge.obj
 0001:0003e5c0       _ResetNavStats_C           1003f5c0 f   NavBridge.obj
 0001:0003e600       _FindNearestPolyRef_C      1003f600 f   NavBridge.obj
 0001:0003e790       _GetPolyHeight_C           1003f790 f   NavBridge.obj
 0001:0003e850       _ClosestPointOnPoly_C      1003f850 f   NavBridge.obj
 0001:0003e990       _ClosestPointOnPolyBoundary_C 1003f990 f   NavBridge.obj
 0001:0003ead0       _QueryPolygons_C           1003fad0 f   NavBridge.obj
 0001:0003ed00       _FindLocalNeighbourhood_C  1003fd00 f   NavBridge.obj
 0001:0003efe0       _GetPolyWallSegments_C     1003ffe0 f   NavBridge.obj
 0001:0003f380       ??$?0$$V@?$_Compressed_pair@V?$allocator@U?$_Tree_node@U?$pair@$$CBHPAVdtPathCorridor@@@std@@PAX@std@@@std@@V?$_Tree_val@U?$_Tree_simple_types@U?$pair@$$CBHPAVdtPathCorridor@@@std@@@std@@@2@$00@std@@QAE@U_Zero_then_variadic_args_t@1@@Z 10040380 f i NavBridge.obj
 0001:0003f3c0       ??$?0ABH$$Z$$V@?$pair@$$CBHPAVdtPathCorridor@@@std@@QAE@Upiecewise_construct_t@1@V?$tuple@ABH@1@V?$tuple@$$V@1@@Z 100403c0 f i NavBridge.obj
 0001:0003f420       ??$?0ABH$0A@@?$tuple@ABH@std@@QAE@ABH@Z 10040420 f i NavBridge.obj
 0001:0003f4a0       ??$?0ABH@?$_Tuple_val@ABH@std@@QAE@ABH@Z 100404a0 f i NavBridge.obj
 0001:0003f4e0       ??$?0ABQAU?$_Tree_node@U?$pair@$$CBHPAVdtPathCorridor@@@std@@PAX@std@@_N$0A@@?$pair@PAU?$_Tree_node@U?$pair@$$CBHPAVdtPathCorridor@@@std@@PAX@std@@_N@std@@QAE@ABQAU?$_Tree_node@U?$pair@$$CBHPAVdtPathCorridor@@@std@@PAX@1@$$QA_N@Z 100404e0 f i NavBridge.obj
 0001:0003f4e0       ??$?0PAU?$_Tree_node@U?$pair@$$CBHPAVdtPathCorridor@@@std@@PAX@std@@_N$0A@@?$pair@PAU?$_Tree_node@U?$pair@$$CBHPAVdtPathCorridor@@@std@@PAX@std@@_N@std@@QAE@$$QAPAU?$_Tree_node@U?$pair@$$CBHPAVdtPathCorridor@@@std@@PAX@1@$$QA_N@Z 100404e0 f i NavBridge.obj
 0001:0003f520       ??$?0ABU?$less@H@std@@U_Zero_then_variadic_args_t@1@@?$_Compressed_pair@U?$less@H@std@@V?$_Compressed_pair@V?$allocator@U?$_Tree_node@U?$pair@$$CBHPAVdtPathCorridor@@@std@@PAX@std@@@std@@V?$_Tree_val@U?$_Tree_simple_types@U?$pair@$$CBHPAVdtPathCorridor@@@std@@@std@@@2@$00@2@$00@std@@QAE@U_One_then_variadic_args_t@1@ABU?$less@H@1@$$QAU_Zero_then_variadic_args_t@1@@Z 10040520 f i NavBridge.obj
 0001:0003f570       ??$?0ABUpiecewise_construct_t@std@@V?$tuple@ABH@1@V?$tuple@$$V@1@@?$_Tree_temp_node@V?$allocator@U?$_Tree_node@U?$pair@$$CBHPAVdtPathCorridor@@@std@@PAX@std@@@std@@@std@@QAE@AAV?$allocator@U?$_Tree_node@U?$pair@$$CBHPAVdtPathCorridor@@@std@@PAX@std@@@1@PAU?$_Tree_node@U?$pair@$$CBHPAVdtPathCorridor@@@std@@PAX@1@ABUpiecewise_construct_t@1@$$QAV?$tuple@ABH@1@$$QAV?$tuple@$$V@1@@Z 10040570 f i NavBridge.obj
 0001:0003f680       ??$?0U?$_Tree_node@U?$pair@$$CBHPAVdtPathCorridor@@@std@@PAX@std@@@?$allocator@U_Container_proxy@std@@@std@@QAE@ABV?$allocator@U?$_Tree_node@U?$pair@$$CBHPAVdtPathCorridor@@@std@@PAX@std@@@1@@Z 10040680 f i NavBridge.obj
 0001:0003f6b0       ??$?0U_Exact_args_t@std@@ABH$$V$0A@@?$tuple@ABH@std@@QAE@U_Exact_args_t@1@ABH@Z 100406b0 f i NavBridge.obj
 0001:0003f710       ??$?0V?$tuple@ABH@std@@V?$tuple@$$V@1@$0A@$$Z$S@?$pair@$$CBHPAVdtPathCorridor@@@std@@AAE@AAV?$tuple@ABH@1@AAV?$tuple@$$V@1@U?$integer_sequence@I$0A@@1@U?$integer_sequence@I$S@1@@Z 10040710 f i NavBridge.obj
 0001:0003f760       ??$_Buyheadnode@V?$allocator@U?$_Tree_node@U?$pair@$$CBHPAVdtPathCorridor@@@std@@PAX@std@@@std@@@?$_Tree_node@U?$pair@$$CBHPAVdtPathCorridor@@@std@@PAX@std@@SAPAU01@AAV?$allocator@U?$_Tree_node@U?$pair@$$CBHPAVdtPathCorridor@@@std@@PAX@std@@@1@@Z 10040760 f i NavBridge.obj
 0001:0003f830       ??$_Construct_in_place@PAU?$_Tree_node@U?$pair@$$CBHPAVdtPathCorridor@@@std@@PAX@std@@AAPAU12@@std@@YAXAAPAU?$_Tree_node@U?$pair@$$CBHPAVdtPathCorridor@@@std@@PAX@0@0@Z 10040830 f i NavBridge.obj
 0001:0003f830       ??$_Construct_in_place@PAU?$_Tree_node@U?$pair@$$CBHPAVdtPathCorridor@@@std@@PAX@std@@ABQAU12@@std@@YAXAAPAU?$_Tree_node@U?$pair@$$CBHPAVdtPathCorridor@@@std@@PAX@0@ABQAU10@@Z 10040830 f i NavBridge.obj
 0001:0003f8a0       ??$_Debug_lt_pred@ABU?$less@H@std@@ABHABH@std@@YA_NABU?$less@H@0@ABH1@Z 100408a0 f i NavBridge.obj
 0001:0003f950       ??$_Destroy_in_place@PAU?$_Tree_node@U?$pair@$$CBHPAVdtPathCorridor@@@std@@PAX@std@@@std@@YAXAAPAU?$_Tree_node@U?$pair@$$CBHPAVdtPathCorridor@@@std@@PAX@0@@Z 10040950 f i NavBridge.obj
 0001:0003f950       ??$destroy_at@U?$pair@$$CBHPAVdtPathCorridor@@@std@@@std@@YAXQAU?$pair@$$CBHPAVdtPathCorridor@@@0@@Z 10040950 f i NavBridge.obj
 0001:0003f970       ??$_Erase_head@V?$allocator@U?$_Tree_node@U?$pair@$$CBHPAVdtPathCorridor@@@std@@PAX@std@@@std@@@?$_Tree_val@U?$_Tree_simple_types@U?$pair@$$CBHPAVdtPathCorridor@@@std@@@std@@@std@@QAEXAAV?$allocator@U?$_Tree_node@U?$pair@$$CBHPAVdtPathCorridor@@@std@@PAX@std@@@1@@Z 10040970 f i NavBridge.obj
 0001:0003f9d0       ??$_Erase_tree@V?$allocator@U?$_Tree_node@U?$pair@$$CBHPAVdtPathCorridor@@@std@@PAX@std@@@std@@@?$_Tree_val@U?$_Tree_simple_types@U?$pair@$$CBHPAVdtPathCorridor@@@std@@@std@@@std@@QAEXAAV?$allocator@U?$_Tree_node@U?$pair@$$CBHPAVdtPathCorridor@@@std@@PAX@std@@@1@PAU?$_Tree_node@U?$pair@$$CBHPAVdtPathCorridor@@@std@@PAX@1@@Z 100409d0 f i NavBridge.obj
 0001:0003fa40       ??$_Find@H@?$_Tree@V?$_Tmap_traits@HPAVdtPathCorridor@@U?$less@H@std@@V?$allocator@U?$pair@$$CBHPAVdtPathCorridor@@@std@@@3@$0A@@std@@@std@@ABEPAU?$_Tree_node@U?$pair@$$CBHPAVdtPathCorridor@@@std@@PAX@1@ABH@Z 10040a40 f i NavBridge.obj
 0001:0003fb00       ??$_Find_lower_bound@H@?$_Tree@V?$_Tmap_traits@HPAVdtPathCorridor@@U?$less@H@std@@V?$allocator@U?$pair@$$CBHPAVdtPathCorridor@@@std@@@3@$0A@@std@@@std@@IBE?AU?$_Tree_find_result@PAU?$_Tree_node@U?$pair@$$CBHPAVdtPathCorridor@@@std@@PAX@std@@@1@ABH@Z 10040b00 f i NavBridge.obj
 0001:0003fc40       ??$_Freenode0@V?$allocator@U?$_Tree_node@U?$pair@$$CBHPAVdtPathCorridor@@@std@@PAX@std@@@std@@@?$_Tree_node@U?$pair@$$CBHPAVdtPathCorridor@@@std@@PAX@std@@SAXAAV?$allocator@U?$_Tree_node@U?$pair@$$CBHPAVdtPathCorridor@@@std@@PAX@std@@@1@PAU01@@Z 10040c40 f i NavBridge.obj
 0001:0003fca0       ??$_Freenode@V?$allocator@U?$_Tree_node@U?$pair@$$CBHPAVdtPathCorridor@@@std@@PAX@std@@@std@@@?$_Tree_node@U?$pair@$$CBHPAVdtPathCorridor@@@std@@PAX@std@@SAXAAV?$allocator@U?$_Tree_node@U?$pair@$$CBHPAVdtPathCorridor@@@std@@PAX@std@@@1@PAU01@@Z 10040ca0 f i NavBridge.obj
 0001:0003fd20       ??$_Kfn@$$CBHPAVdtPathCorridor@@@?$_Tmap_traits@HPAVdtPathCorridor@@U?$less@H@std@@V?$allocator@U?$pair@$$CBHPAVdtPathCorridor@@@std@@@3@$0A@@std@@SAABHABU?$pair@$$CBHPAVdtPathCorridor@@@1@@Z 10040d20 f i NavBridge.obj
 0001:0003fd40       ??$_Lower_bound_duplicate@H@?$_Tree@V?$_Tmap_traits@HPAVdtPathCorridor@@U?$less@H@std@@V?$allocator@U?$pair@$$CBHPAVdtPathCorridor@@@std@@@3@$0A@@std@@@std@@IBE_NQAU?$_Tree_node@U?$pair@$$CBHPAVdtPathCorridor@@@std@@PAX@1@ABH@Z 10040d40 f i NavBridge.obj
 0001:0003fdd0       ??$_Try_emplace@ABH$$V@?$map@HPAVdtPathCorridor@@U?$less@H@std@@V?$allocator@U?$pair@$$CBHPAVdtPathCorridor@@@std@@@3@@std@@AAE?AU?$pair@PAU?$_Tree_node@U?$pair@$$CBHPAVdtPathCorridor@@@std@@PAX@std@@_N@1@ABH@Z 10040dd0 f i NavBridge.obj
 0001:0003ff40       ??$_Tuple_get@$0A@ABH@std@@YA$$QA_P$$QAV?$tuple@ABH@0@@Z 10040f40 f i NavBridge.obj
 0001:0003ff60       ??$addressof@$$CBV?$_Tree_val@U?$_Tree_simple_types@U?$pair@$$CBHPAVdtPathCorridor@@@std@@@std@@@std@@@std@@YAPBV?$_Tree_val@U?$_Tree_simple_types@U?$pair@$$CBHPAVdtPathCorridor@@@std@@@std@@@0@ABV10@@Z 10040f60 f i NavBridge.obj
 0001:0003ff60       ??$addressof@PAU?$_Tree_node@U?$pair@$$CBHPAVdtPathCorridor@@@std@@PAX@std@@@std@@YAPAPAU?$_Tree_node@U?$pair@$$CBHPAVdtPathCorridor@@@std@@PAX@0@AAPAU10@@Z 10040f60 f i NavBridge.obj
 0001:0003ff60       ??$addressof@U?$pair@$$CBHPAVdtPathCorridor@@@std@@@std@@YAPAU?$pair@$$CBHPAVdtPathCorridor@@@0@AAU10@@Z 10040f60 f i NavBridge.obj
 0001:0003ff60       ??$addressof@V?$_Tree_val@U?$_Tree_simple_types@U?$pair@$$CBHPAVdtPathCorridor@@@std@@@std@@@std@@@std@@YAPAV?$_Tree_val@U?$_Tree_simple_types@U?$pair@$$CBHPAVdtPathCorridor@@@std@@@std@@@0@AAV10@@Z 10040f60 f i NavBridge.obj
 0001:0003ff80       ??$construct@U?$pair@$$CBHPAVdtPathCorridor@@@std@@ABUpiecewise_construct_t@2@V?$tuple@ABH@2@V?$tuple@$$V@2@@?$_Default_allocator_traits@V?$allocator@U?$_Tree_node@U?$pair@$$CBHPAVdtPathCorridor@@@std@@PAX@std@@@std@@@std@@SAXAAV?$allocator@U?$_Tree_node@U?$pair@$$CBHPAVdtPathCorridor@@@std@@PAX@std@@@1@QAU?$pair@$$CBHPAVdtPathCorridor@@@1@ABUpiecewise_construct_t@1@$$QAV?$tuple@ABH@1@$$QAV?$tuple@$$V@1@@Z 10040f80 f i NavBridge.obj
 0001:0003ffb0       ??$construct_at@PAU?$_Tree_node@U?$pair@$$CBHPAVdtPathCorridor@@@std@@PAX@std@@AAPAU12@@std@@YAPAPAU?$_Tree_node@U?$pair@$$CBHPAVdtPathCorridor@@@std@@PAX@0@QAPAU10@AAPAU10@@Z 10040fb0 f i NavBridge.obj
 0001:0003ffb0       ??$construct_at@PAU?$_Tree_node@U?$pair@$$CBHPAVdtPathCorridor@@@std@@PAX@std@@ABQAU12@@std@@YAPAPAU?$_Tree_node@U?$pair@$$CBHPAVdtPathCorridor@@@std@@PAX@0@QAPAU10@ABQAU10@@Z 10040fb0 f i NavBridge.obj
 0001:00040000       ??$construct_at@U?$pair@$$CBHPAVdtPathCorridor@@@std@@ABUpiecewise_construct_t@2@V?$tuple@ABH@2@V?$tuple@$$V@2@@std@@YAPAU?$pair@$$CBHPAVdtPathCorridor@@@0@QAU10@ABUpiecewise_construct_t@0@$$QAV?$tuple@ABH@0@$$QAV?$tuple@$$V@0@@Z 10041000 f i NavBridge.obj
 0001:00040080       ??$destroy@U?$pair@$$CBHPAVdtPathCorridor@@@std@@@?$_Default_allocator_traits@V?$allocator@U?$_Tree_node@U?$pair@$$CBHPAVdtPathCorridor@@@std@@PAX@std@@@std@@@std@@SAXAAV?$allocator@U?$_Tree_node@U?$pair@$$CBHPAVdtPathCorridor@@@std@@PAX@std@@@1@QAU?$pair@$$CBHPAVdtPathCorridor@@@1@@Z 10041080 f i NavBridge.obj
 0001:000400b0       ??$erase@V?$_Tree_iterator@V?$_Tree_val@U?$_Tree_simple_types@U?$pair@$$CBHPAVdtPathCorridor@@@std@@@std@@@std@@@std@@$0A@@?$_Tree@V?$_Tmap_traits@HPAVdtPathCorridor@@U?$less@H@std@@V?$allocator@U?$pair@$$CBHPAVdtPathCorridor@@@std@@@3@$0A@@std@@@std@@QAE?AV?$_Tree_iterator@V?$_Tree_val@U?$_Tree_simple_types@U?$pair@$$CBHPAVdtPathCorridor@@@std@@@std@@@std@@@1@V21@@Z 100410b0 f i NavBridge.obj
 0001:000401e0       ??$exchange@PAU?$_Tree_node@U?$pair@$$CBHPAVdtPathCorridor@@@std@@PAX@std@@$$T@std@@YAPAU?$_Tree_node@U?$pair@$$CBHPAVdtPathCorridor@@@std@@PAX@0@AAPAU10@$$QA$$T@Z 100411e0 f i NavBridge.obj
 0001:000401e0       ??$exchange@PAU?$_Tree_node@U?$pair@$$CBHPAVdtPathCorridor@@@std@@PAX@std@@AAPAU12@@std@@YAPAU?$_Tree_node@U?$pair@$$CBHPAVdtPathCorridor@@@std@@PAX@0@AAPAU10@0@Z 100411e0 f i NavBridge.obj
 0001:00040220       ??$forward_as_tuple@ABH@std@@YA?AV?$tuple@ABH@0@ABH@Z 10041220 f i NavBridge.obj
 0001:00040250       ??0?$_Alloc_construct_ptr@V?$allocator@U?$_Tree_node@U?$pair@$$CBHPAVdtPathCorridor@@@std@@PAX@std@@@std@@@std@@QAE@AAV?$allocator@U?$_Tree_node@U?$pair@$$CBHPAVdtPathCorridor@@@std@@PAX@std@@@1@@Z 10041250 f i NavBridge.obj
 0001:00040290       ??0?$_Tree@V?$_Tmap_traits@HPAVdtPathCorridor@@U?$less@H@std@@V?$allocator@U?$pair@$$CBHPAVdtPathCorridor@@@std@@@3@$0A@@std@@@std@@QAE@ABU?$less@H@1@@Z 10041290 f i NavBridge.obj
 0001:00040300       ??0?$_Tree_const_iterator@V?$_Tree_val@U?$_Tree_simple_types@U?$pair@$$CBHPAVdtPathCorridor@@@std@@@std@@@std@@@std@@QAE@PAU?$_Tree_node@U?$pair@$$CBHPAVdtPathCorridor@@@std@@PAX@1@PBV?$_Tree_val@U?$_Tree_simple_types@U?$pair@$$CBHPAVdtPathCorridor@@@std@@@std@@@1@@Z 10041300 f i NavBridge.obj
 0001:00040340       ??0?$_Tree_iterator@V?$_Tree_val@U?$_Tree_simple_types@U?$pair@$$CBHPAVdtPathCorridor@@@std@@@std@@@std@@@std@@QAE@PAU?$_Tree_node@U?$pair@$$CBHPAVdtPathCorridor@@@std@@PAX@1@PBV?$_Tree_val@U?$_Tree_simple_types@U?$pair@$$CBHPAVdtPathCorridor@@@std@@@std@@@1@@Z 10041340 f i NavBridge.obj
 0001:00040380       ??0?$_Tree_temp_node_alloc@V?$allocator@U?$_Tree_node@U?$pair@$$CBHPAVdtPathCorridor@@@std@@PAX@std@@@std@@@std@@QAE@AAV?$allocator@U?$_Tree_node@U?$pair@$$CBHPAVdtPathCorridor@@@std@@PAX@std@@@1@@Z 10041380 f i NavBridge.obj
 0001:00040400       ??0?$_Tree_unchecked_const_iterator@V?$_Tree_val@U?$_Tree_simple_types@U?$pair@$$CBHPAVdtPathCorridor@@@std@@@std@@@std@@U_Iterator_base0@2@@std@@QAE@PAU?$_Tree_node@U?$pair@$$CBHPAVdtPathCorridor@@@std@@PAX@1@PBV?$_Tree_val@U?$_Tree_simple_types@U?$pair@$$CBHPAVdtPathCorridor@@@std@@@std@@@1@@Z 10041400 f i NavBridge.obj
 0001:00040440       ??0?$_Tree_unchecked_const_iterator@V?$_Tree_val@U?$_Tree_simple_types@U?$pair@$$CBHPAVdtPathCorridor@@@std@@@std@@@std@@U_Iterator_base12@2@@std@@QAE@PAU?$_Tree_node@U?$pair@$$CBHPAVdtPathCorridor@@@std@@PAX@1@PBV?$_Tree_val@U?$_Tree_simple_types@U?$pair@$$CBHPAVdtPathCorridor@@@std@@@std@@@1@@Z 10041440 f i NavBridge.obj
 0001:00040490       ??0?$_Tree_unchecked_iterator@V?$_Tree_val@U?$_Tree_simple_types@U?$pair@$$CBHPAVdtPathCorridor@@@std@@@std@@@std@@@std@@QAE@PAU?$_Tree_node@U?$pair@$$CBHPAVdtPathCorridor@@@std@@PAX@1@PBV?$_Tree_val@U?$_Tree_simple_types@U?$pair@$$CBHPAVdtPathCorridor@@@std@@@std@@@1@@Z 10041490 f i NavBridge.obj
 0001:000404d0       ??0?$_Tree_val@U?$_Tree_simple_types@U?$pair@$$CBHPAVdtPathCorridor@@@std@@@std@@@std@@QAE@XZ 100414d0 f i NavBridge.obj
 0001:00040520       ??0?$allocator@U?$_Tree_node@U?$pair@$$CBHPAVdtPathCorridor@@@std@@PAX@std@@@std@@QAE@XZ 10041520 f i NavBridge.obj
 0001:00040550       ??0?$map@HPAVdtPathCorridor@@U?$less@H@std@@V?$allocator@U?$pair@$$CBHPAVdtPathCorridor@@@std@@@3@@std@@QAE@XZ 10041550 f i NavBridge.obj
 0001:00040590       ??0?$tuple@ABH@std@@QAE@$$QAV01@@Z 10041590 f i NavBridge.obj
 0001:000405e0       ??0OffMeshConnectionInfo@MMAP@@QAE@XZ 100415e0 f i NavBridge.obj
 0001:00040670       ??0Vector3@G3D@@QAE@MMM@Z  10041670 f i NavBridge.obj
 0001:000406d0       ??0Vector3@G3D@@QAE@XZ     100416d0 f i NavBridge.obj
 0001:00040720       ??1?$_Alloc_construct_ptr@V?$allocator@U?$_Tree_node@U?$pair@$$CBHPAVdtPathCorridor@@@std@@PAX@std@@@std@@@std@@QAE@XZ 10041720 f i NavBridge.obj
 0001:00040780       ??1?$_Tree@V?$_Tmap_traits@HPAVdtPathCorridor@@U?$less@H@std@@V?$allocator@U?$pair@$$CBHPAVdtPathCorridor@@@std@@@3@$0A@@std@@@std@@QAE@XZ 10041780 f i NavBridge.obj
 0001:00040840       ??1?$_Tree_temp_node@V?$allocator@U?$_Tree_node@U?$pair@$$CBHPAVdtPathCorridor@@@std@@PAX@std@@@std@@@std@@QAE@XZ 10041840 f i NavBridge.obj
 0001:00040920       ??1?$_Tree_temp_node_alloc@V?$allocator@U?$_Tree_node@U?$pair@$$CBHPAVdtPathCorridor@@@std@@PAX@std@@@std@@@std@@QAE@XZ 10041920 f i NavBridge.obj
 0001:00040950       ??1?$map@HPAVdtPathCorridor@@U?$less@H@std@@V?$allocator@U?$pair@$$CBHPAVdtPathCorridor@@@std@@@3@@std@@QAE@XZ 10041950 f i NavBridge.obj
 0001:00040980       ??4Vector3@G3D@@QAIAAV01@ABV01@@Z 10041980 f i NavBridge.obj
 0001:000409e0       ??8?$_Tree_const_iterator@V?$_Tree_val@U?$_Tree_simple_types@U?$pair@$$CBHPAVdtPathCorridor@@@std@@@std@@@std@@@std@@QBE_NABV01@@Z 100419e0 f i NavBridge.obj
 0001:00040aa0       ??A?$map@HPAVdtPathCorridor@@U?$less@H@std@@V?$allocator@U?$pair@$$CBHPAVdtPathCorridor@@@std@@@3@@std@@QAEAAPAVdtPathCorridor@@ABH@Z 10041aa0 f i NavBridge.obj
 0001:00040af0       ??C?$_Tree_iterator@V?$_Tree_val@U?$_Tree_simple_types@U?$pair@$$CBHPAVdtPathCorridor@@@std@@@std@@@std@@@std@@QBEPAU?$pair@$$CBHPAVdtPathCorridor@@@1@XZ 10041af0 f i NavBridge.obj
 0001:00040b30       ??D?$_Tree_const_iterator@V?$_Tree_val@U?$_Tree_simple_types@U?$pair@$$CBHPAVdtPathCorridor@@@std@@@std@@@std@@@std@@QBEABU?$pair@$$CBHPAVdtPathCorridor@@@1@XZ 10041b30 f i NavBridge.obj
 0001:00040c20       ??D?$_Tree_iterator@V?$_Tree_val@U?$_Tree_simple_types@U?$pair@$$CBHPAVdtPathCorridor@@@std@@@std@@@std@@@std@@QBEAAU?$pair@$$CBHPAVdtPathCorridor@@@1@XZ 10041c20 f i NavBridge.obj
 0001:00040c50       ??E?$_Tree_unchecked_const_iterator@V?$_Tree_val@U?$_Tree_simple_types@U?$pair@$$CBHPAVdtPathCorridor@@@std@@@std@@@std@@U_Iterator_base0@2@@std@@QAEAAV01@XZ 10041c50 f i NavBridge.obj
 0001:00040ce0       ??R?$less@H@std@@QBE_NABH0@Z 10041ce0 f i NavBridge.obj
 0001:00040d40       ??_GdtPathCorridor@@QAEPAXI@Z 10041d40 f i NavBridge.obj
 0001:00040d80       ?GetDefaultFilter@Navigation@@QAEPAVdtQueryFilter@@XZ 10041d80 f i NavBridge.obj
 0001:00040db0       ?_Alloc_sentinel_and_proxy@?$_Tree@V?$_Tmap_traits@HPAVdtPathCorridor@@U?$less@H@std@@V?$allocator@U?$pair@$$CBHPAVdtPathCorridor@@@std@@@3@$0A@@std@@@std@@IAEXXZ 10041db0 f i NavBridge.obj
 0001:00040ec0       ?_Allocate@?$_Alloc_construct_ptr@V?$allocator@U?$_Tree_node@U?$pair@$$CBHPAVdtPathCorridor@@@std@@PAX@std@@@std@@@std@@QAEXXZ 10041ec0 f i NavBridge.obj
 0001:00040f20       ?_Check_grow_by_1@?$_Tree@V?$_Tmap_traits@HPAVdtPathCorridor@@U?$less@H@std@@V?$allocator@U?$pair@$$CBHPAVdtPathCorridor@@@std@@@3@$0A@@std@@@std@@IAEXXZ 10041f20 f i NavBridge.obj
 0001:00040f70       ?_Erase_unchecked@?$_Tree@V?$_Tmap_traits@HPAVdtPathCorridor@@U?$less@H@std@@V?$allocator@U?$pair@$$CBHPAVdtPathCorridor@@@std@@@3@$0A@@std@@@std@@AAEPAU?$_Tree_node@U?$pair@$$CBHPAVdtPathCorridor@@@std@@PAX@2@V?$_Tree_unchecked_const_iterator@V?$_Tree_val@U?$_Tree_simple_types@U?$pair@$$CBHPAVdtPathCorridor@@@std@@@std@@@std@@U_Iterator_base0@2@@2@@Z 10041f70 f i NavBridge.obj
 0001:00041050       ?_Extract@?$_Tree_val@U?$_Tree_simple_types@U?$pair@$$CBHPAVdtPathCorridor@@@std@@@std@@@std@@QAEPAU?$_Tree_node@U?$pair@$$CBHPAVdtPathCorridor@@@std@@PAX@2@V?$_Tree_unchecked_const_iterator@V?$_Tree_val@U?$_Tree_simple_types@U?$pair@$$CBHPAVdtPathCorridor@@@std@@@std@@@std@@U_Iterator_base0@2@@2@@Z 10042050 f i NavBridge.obj
 0001:000414b0       ?_Get_first@?$_Compressed_pair@U?$less@H@std@@V?$_Compressed_pair@V?$allocator@U?$_Tree_node@U?$pair@$$CBHPAVdtPathCorridor@@@std@@PAX@std@@@std@@V?$_Tree_val@U?$_Tree_simple_types@U?$pair@$$CBHPAVdtPathCorridor@@@std@@@std@@@2@$00@2@$00@std@@QBEABU?$less@H@2@XZ 100424b0 f i NavBridge.obj
 0001:000414b0       ?_Get_first@?$_Compressed_pair@V?$allocator@U?$_Tree_node@U?$pair@$$CBHPAVdtPathCorridor@@@std@@PAX@std@@@std@@V?$_Tree_val@U?$_Tree_simple_types@U?$pair@$$CBHPAVdtPathCorridor@@@std@@@std@@@2@$00@std@@QAEAAV?$allocator@U?$_Tree_node@U?$pair@$$CBHPAVdtPathCorridor@@@std@@PAX@std@@@2@XZ 100424b0 f i NavBridge.obj
 0001:000414b0       ?_Get_first@?$_Compressed_pair@V?$allocator@U?$_Tree_node@U?$pair@$$CBHPAVdtPathCorridor@@@std@@PAX@std@@@std@@V?$_Tree_val@U?$_Tree_simple_types@U?$pair@$$CBHPAVdtPathCorridor@@@std@@@std@@@2@$00@std@@QBEABV?$allocator@U?$_Tree_node@U?$pair@$$CBHPAVdtPathCorridor@@@std@@PAX@std@@@2@XZ 100424b0 f i NavBridge.obj
 0001:000414e0       ?_Get_scary@?$_Tree@V?$_Tmap_traits@HPAVdtPathCorridor@@U?$less@H@std@@V?$allocator@U?$pair@$$CBHPAVdtPathCorridor@@@std@@@3@$0A@@std@@@std@@IAEPAV?$_Tree_val@U?$_Tree_simple_types@U?$pair@$$CBHPAVdtPathCorridor@@@std@@@std@@@2@XZ 100424e0 f i NavBridge.obj
 0001:000414e0       ?_Get_scary@?$_Tree@V?$_Tmap_traits@HPAVdtPathCorridor@@U?$less@H@std@@V?$allocator@U?$pair@$$CBHPAVdtPathCorridor@@@std@@@3@$0A@@std@@@std@@IBEPBV?$_Tree_val@U?$_Tree_simple_types@U?$pair@$$CBHPAVdtPathCorridor@@@std@@@std@@@2@XZ 100424e0 f i NavBridge.obj
 0001:00041520       ?_Getal@?$_Tree@V?$_Tmap_traits@HPAVdtPathCorridor@@U?$less@H@std@@V?$allocator@U?$pair@$$CBHPAVdtPathCorridor@@@std@@@3@$0A@@std@@@std@@IAEAAV?$allocator@U?$_Tree_node@U?$pair@$$CBHPAVdtPathCorridor@@@std@@PAX@std@@@2@XZ 10042520 f i NavBridge.obj
 0001:00041520       ?_Getal@?$_Tree@V?$_Tmap_traits@HPAVdtPathCorridor@@U?$less@H@std@@V?$allocator@U?$pair@$$CBHPAVdtPathCorridor@@@std@@@3@$0A@@std@@@std@@IBEABV?$allocator@U?$_Tree_node@U?$pair@$$CBHPAVdtPathCorridor@@@std@@PAX@std@@@2@XZ 10042520 f i NavBridge.obj
 0001:00041520       ?_Getcomp@?$_Tree@V?$_Tmap_traits@HPAVdtPathCorridor@@U?$less@H@std@@V?$allocator@U?$pair@$$CBHPAVdtPathCorridor@@@std@@@3@$0A@@std@@@std@@IBEABU?$less@H@2@XZ 10042520 f i NavBridge.obj
 0001:00041550       ?_Insert_node@?$_Tree_val@U?$_Tree_simple_types@U?$pair@$$CBHPAVdtPathCorridor@@@std@@@std@@@std@@QAEPAU?$_Tree_node@U?$pair@$$CBHPAVdtPathCorridor@@@std@@PAX@2@U?$_Tree_id@PAU?$_Tree_node@U?$pair@$$CBHPAVdtPathCorridor@@@std@@PAX@std@@@2@QAU32@@Z 10042550 f i NavBridge.obj
 0001:00041790       ?_Lrotate@?$_Tree_val@U?$_Tree_simple_types@U?$pair@$$CBHPAVdtPathCorridor@@@std@@@std@@@std@@QAEXPAU?$_Tree_node@U?$pair@$$CBHPAVdtPathCorridor@@@std@@PAX@2@@Z 10042790 f i NavBridge.obj
 0001:00041850       ?_Max@?$_Tree_val@U?$_Tree_simple_types@U?$pair@$$CBHPAVdtPathCorridor@@@std@@@std@@@std@@SAPAU?$_Tree_node@U?$pair@$$CBHPAVdtPathCorridor@@@std@@PAX@2@PAU32@@Z 10042850 f i NavBridge.obj
 0001:00041890       ?_Min@?$_Tree_val@U?$_Tree_simple_types@U?$pair@$$CBHPAVdtPathCorridor@@@std@@@std@@@std@@SAPAU?$_Tree_node@U?$pair@$$CBHPAVdtPathCorridor@@@std@@PAX@2@PAU32@@Z 10042890 f i NavBridge.obj
 0001:000418d0       ?_Orphan_ptr@?$_Tree_val@U?$_Tree_simple_types@U?$pair@$$CBHPAVdtPathCorridor@@@std@@@std@@@std@@QAEXQAU?$_Tree_node@U?$pair@$$CBHPAVdtPathCorridor@@@std@@PAX@2@@Z 100428d0 f i NavBridge.obj
 0001:000419e0       ?_Release@?$_Alloc_construct_ptr@V?$allocator@U?$_Tree_node@U?$pair@$$CBHPAVdtPathCorridor@@@std@@PAX@std@@@std@@@std@@QAEPAU?$_Tree_node@U?$pair@$$CBHPAVdtPathCorridor@@@std@@PAX@2@XZ 100429e0 f i NavBridge.obj
 0001:00041a30       ?_Rrotate@?$_Tree_val@U?$_Tree_simple_types@U?$pair@$$CBHPAVdtPathCorridor@@@std@@@std@@@std@@QAEXPAU?$_Tree_node@U?$pair@$$CBHPAVdtPathCorridor@@@std@@PAX@2@@Z 10042a30 f i NavBridge.obj
 0001:00041af0       ?_Unwrapped@?$_Tree_iterator@V?$_Tree_val@U?$_Tree_simple_types@U?$pair@$$CBHPAVdtPathCorridor@@@std@@@std@@@std@@@std@@QBE?AV?$_Tree_unchecked_iterator@V?$_Tree_val@U?$_Tree_simple_types@U?$pair@$$CBHPAVdtPathCorridor@@@std@@@std@@@std@@@2@XZ 10042af0 f i NavBridge.obj
 0001:00041b50       ?allocate@?$allocator@U?$_Tree_node@U?$pair@$$CBHPAVdtPathCorridor@@@std@@PAX@std@@@std@@QAEPAU?$_Tree_node@U?$pair@$$CBHPAVdtPathCorridor@@@std@@PAX@2@I@Z 10042b50 f i NavBridge.obj
 0001:00041b90       ?deallocate@?$_Default_allocator_traits@V?$allocator@U?$_Tree_node@U?$pair@$$CBHPAVdtPathCorridor@@@std@@PAX@std@@@std@@@std@@SAXAAV?$allocator@U?$_Tree_node@U?$pair@$$CBHPAVdtPathCorridor@@@std@@PAX@std@@@2@QAU?$_Tree_node@U?$pair@$$CBHPAVdtPathCorridor@@@std@@PAX@2@I@Z 10042b90 f i NavBridge.obj
 0001:00041be0       ?deallocate@?$allocator@U?$_Tree_node@U?$pair@$$CBHPAVdtPathCorridor@@@std@@PAX@std@@@std@@QAEXQAU?$_Tree_node@U?$pair@$$CBHPAVdtPathCorridor@@@std@@PAX@2@I@Z 10042be0 f i NavBridge.obj
 0001:00041c80       ?end@?$_Tree@V?$_Tmap_traits@HPAVdtPathCorridor@@U?$less@H@std@@V?$allocator@U?$pair@$$CBHPAVdtPathCorridor@@@std@@@3@$0A@@std@@@std@@QAE?AV?$_Tree_iterator@V?$_Tree_val@U?$_Tree_simple_types@U?$pair@$$CBHPAVdtPathCorridor@@@std@@@std@@@std@@@2@XZ 10042c80 f i NavBridge.obj
 0001:00041ce0       ?find@?$_Tree@V?$_Tmap_traits@HPAVdtPathCorridor@@U?$less@H@std@@V?$allocator@U?$pair@$$CBHPAVdtPathCorridor@@@std@@@3@$0A@@std@@@std@@QAE?AV?$_Tree_iterator@V?$_Tree_val@U?$_Tree_simple_types@U?$pair@$$CBHPAVdtPathCorridor@@@std@@@std@@@std@@@2@ABH@Z 10042ce0 f i NavBridge.obj
 0001:00041d60       ?max_size@?$_Default_allocator_traits@V?$allocator@U?$_Tree_node@U?$pair@$$CBHPAVdtPathCorridor@@@std@@PAX@std@@@std@@@std@@SAIABV?$allocator@U?$_Tree_node@U?$pair@$$CBHPAVdtPathCorridor@@@std@@PAX@std@@@2@@Z 10042d60 f i NavBridge.obj
 0001:00041d80       ?max_size@?$_Tree@V?$_Tmap_traits@HPAVdtPathCorridor@@U?$less@H@std@@V?$allocator@U?$pair@$$CBHPAVdtPathCorridor@@@std@@@3@$0A@@std@@@std@@QBEIXZ 10042d80 f i NavBridge.obj
 0001:00041df0       ?pointer_to@?$pointer_traits@PAU?$pair@$$CBHPAVdtPathCorridor@@@std@@@std@@SAPAU?$pair@$$CBHPAVdtPathCorridor@@@2@AAU32@@Z 10042df0 f i NavBridge.obj
 0001:00041e20       ?AddConnection@OffMeshConnectionSet@MMAP@@QAEXABUOffMeshConnectionInfo@2@@Z 10042e20 f   OffMeshManager.obj
 0001:00041e70       ?HasConnectionAt@OffMeshConnectionSet@MMAP@@QBE_NABVVector3@G3D@@M@Z 10042e70 f   OffMeshManager.obj
 0001:00041ed0       ?GetConnectionAt@OffMeshConnectionSet@MMAP@@QBEPBUOffMeshConnectionInfo@2@ABVVector3@G3D@@M@Z 10042ed0 f   OffMeshManager.obj
 0001:00041f90       ?Instance@OffMeshManager@MMAP@@SAAAV12@XZ 10042f90 f   OffMeshManager.obj
 0001:00042050       ?LoadTileOffMeshConnections@OffMeshManager@MMAP@@QAE_NIHH@Z 10043050 f   OffMeshManager.obj
 0001:00042930       ?LoadMapOffMeshConnections@OffMeshManager@MMAP@@QAE_NI@Z 10043930 f   OffMeshManager.obj
 0001:00042a50       ?GetOffMeshAt@OffMeshManager@MMAP@@QBEPBUOffMeshConnectionInfo@2@IABVVector3@G3D@@M@Z 10043a50 f   OffMeshManager.obj
 0001:00042ba0       ?AddOffMeshConnection@OffMeshManager@MMAP@@QAEXIABUOffMeshConnectionInfo@2@@Z 10043ba0 f   OffMeshManager.obj
 0001:00042c00       ?IsOffMeshWaypoint@OffMeshManager@MMAP@@QBE_NIABVVector3@G3D@@MPAUOffMeshConnectionInfo@2@@Z 10043c00 f   OffMeshManager.obj
 0001:00042c70       ?GetMapConnections@OffMeshManager@MMAP@@QBEPBVOffMeshConnectionSet@2@I@Z 10043c70 f   OffMeshManager.obj
 0001:00042d70       ?Clear@OffMeshManager@MMAP@@QAEXXZ 10043d70 f   OffMeshManager.obj
 0001:00042da0       ??$?0$$V@?$_Compressed_pair@V?$allocator@UOffMeshConnectionInfo@MMAP@@@std@@V?$_Vector_val@U?$_Simple_types@UOffMeshConnectionInfo@MMAP@@@std@@@2@$00@std@@QAE@U_Zero_then_variadic_args_t@1@@Z 10043da0 f i OffMeshManager.obj
 0001:00042de0       ??$?0AAPAU?$_List_node@U?$pair@$$CBIVOffMeshConnectionSet@MMAP@@@std@@PAX@std@@_N$0A@@?$pair@PAU?$_List_node@U?$pair@$$CBIVOffMeshConnectionSet@MMAP@@@std@@PAX@std@@_N@std@@QAE@AAPAU?$_List_node@U?$pair@$$CBIVOffMeshConnectionSet@MMAP@@@std@@PAX@1@$$QA_N@Z 10043de0 f i OffMeshManager.obj
 0001:00042de0       ??$?0PAU?$_List_node@U?$pair@$$CBIVOffMeshConnectionSet@MMAP@@@std@@PAX@std@@_N$0A@@?$pair@PAU?$_List_node@U?$pair@$$CBIVOffMeshConnectionSet@MMAP@@@std@@PAX@std@@_N@std@@QAE@$$QAPAU?$_List_node@U?$pair@$$CBIVOffMeshConnectionSet@MMAP@@@std@@PAX@1@$$QA_N@Z 10043de0 f i OffMeshManager.obj
 0001:00042e20       ??$?0AAPAV_Facet_base@std@@@?$_Compressed_pair@U?$default_delete@V_Facet_base@std@@@std@@PAV_Facet_base@2@$00@std@@QAE@U_Zero_then_variadic_args_t@1@AAPAV_Facet_base@1@@Z 10043e20 f i OffMeshManager.obj
 0001:00042e60       ??$?0ABI$$Z$$V@?$pair@$$CBIVOffMeshConnectionSet@MMAP@@@std@@QAE@Upiecewise_construct_t@1@V?$tuple@ABI@1@V?$tuple@$$V@1@@Z 10043e60 f i OffMeshManager.obj
 0001:00042ec0       ??$?0ABUpiecewise_construct_t@std@@V?$tuple@ABI@1@V?$tuple@$$V@1@@?$_List_node_emplace_op2@V?$allocator@U?$_List_node@U?$pair@$$CBIVOffMeshConnectionSet@MMAP@@@std@@PAX@std@@@std@@@std@@QAE@AAV?$allocator@U?$_List_node@U?$pair@$$CBIVOffMeshConnectionSet@MMAP@@@std@@PAX@std@@@1@ABUpiecewise_construct_t@1@$$QAV?$tuple@ABI@1@$$QAV?$tuple@$$V@1@@Z 10043ec0 f i OffMeshManager.obj
 0001:00042f80       ??$?0ABV?$allocator@U?$pair@$$CBIVOffMeshConnectionSet@MMAP@@@std@@@std@@$$V@?$_Compressed_pair@V?$allocator@U?$_List_node@U?$pair@$$CBIVOffMeshConnectionSet@MMAP@@@std@@PAX@std@@@std@@V?$_List_val@U?$_List_simple_types@U?$pair@$$CBIVOffMeshConnectionSet@MMAP@@@std@@@std@@@2@$00@std@@QAE@U_One_then_variadic_args_t@1@ABV?$allocator@U?$pair@$$CBIVOffMeshConnectionSet@MMAP@@@std@@@1@@Z 10043f80 f i OffMeshManager.obj
 0001:00042fc0       ??$?0ABV?$allocator@U?$pair@$$CBIVOffMeshConnectionSet@MMAP@@@std@@@std@@$$V@?$_Compressed_pair@V?$allocator@V?$_List_unchecked_iterator@V?$_List_val@U?$_List_simple_types@U?$pair@$$CBIVOffMeshConnectionSet@MMAP@@@std@@@std@@@std@@@std@@@std@@V?$_Vector_val@U?$_Simple_types@V?$_List_unchecked_iterator@V?$_List_val@U?$_List_simple_types@U?$pair@$$CBIVOffMeshConnectionSet@MMAP@@@std@@@std@@@std@@@std@@@std@@@2@$00@std@@QAE@U_One_then_variadic_args_t@1@ABV?$allocator@U?$pair@$$CBIVOffMeshConnectionSet@MMAP@@@std@@@1@@Z 10043fc0 f i OffMeshManager.obj
 0001:00043000       ??$?0ABV?$allocator@U?$pair@$$CBIVOffMeshConnectionSet@MMAP@@@std@@@std@@$0A@@?$_Hash_vec@V?$allocator@V?$_List_unchecked_iterator@V?$_List_val@U?$_List_simple_types@U?$pair@$$CBIVOffMeshConnectionSet@MMAP@@@std@@@std@@@std@@@std@@@std@@@std@@QAE@ABV?$allocator@U?$pair@$$CBIVOffMeshConnectionSet@MMAP@@@std@@@1@@Z 10044000 f i OffMeshManager.obj
 0001:000430a0       ??$?0U?$_List_node@U?$pair@$$CBIVOffMeshConnectionSet@MMAP@@@std@@PAX@std@@@?$allocator@U_Container_proxy@std@@@std@@QAE@ABV?$allocator@U?$_List_node@U?$pair@$$CBIVOffMeshConnectionSet@MMAP@@@std@@PAX@std@@@1@@Z 100440a0 f i OffMeshManager.obj
 0001:000430a0       ??$?0U?$pair@$$CBIVOffMeshConnectionSet@MMAP@@@std@@@?$allocator@U?$_List_node@U?$pair@$$CBIVOffMeshConnectionSet@MMAP@@@std@@PAX@std@@@std@@QAE@ABV?$allocator@U?$pair@$$CBIVOffMeshConnectionSet@MMAP@@@std@@@1@@Z 100440a0 f i OffMeshManager.obj
 0001:000430a0       ??$?0U?$pair@$$CBIVOffMeshConnectionSet@MMAP@@@std@@@?$allocator@V?$_List_unchecked_iterator@V?$_List_val@U?$_List_simple_types@U?$pair@$$CBIVOffMeshConnectionSet@MMAP@@@std@@@std@@@std@@@std@@@std@@QAE@ABV?$allocator@U?$pair@$$CBIVOffMeshConnectionSet@MMAP@@@std@@@1@@Z 100440a0 f i OffMeshManager.obj
 0001:000430a0       ??$?0UOffMeshConnectionInfo@MMAP@@@?$allocator@U_Container_proxy@std@@@std@@QAE@ABV?$allocator@UOffMeshConnectionInfo@MMAP@@@1@@Z 100440a0 f i OffMeshManager.obj
 0001:000430a0       ??$?0V?$_List_unchecked_iterator@V?$_List_val@U?$_List_simple_types@U?$pair@$$CBIVOffMeshConnectionSet@MMAP@@@std@@@std@@@std@@@std@@@?$allocator@U_Container_proxy@std@@@std@@QAE@ABV?$allocator@V?$_List_unchecked_iterator@V?$_List_val@U?$_List_simple_types@U?$pair@$$CBIVOffMeshConnectionSet@MMAP@@@std@@@std@@@std@@@std@@@1@@Z 100440a0 f i OffMeshManager.obj
 0001:000430d0       ??$?0U?$default_delete@V_Facet_base@std@@@std@@$0A@@?$unique_ptr@V_Facet_base@std@@U?$default_delete@V_Facet_base@std@@@2@@std@@QAE@PAV_Facet_base@1@@Z 100440d0 f i OffMeshManager.obj
 0001:00043130       ??$?0V?$tuple@ABI@std@@V?$tuple@$$V@1@$0A@$$Z$S@?$pair@$$CBIVOffMeshConnectionSet@MMAP@@@std@@AAE@AAV?$tuple@ABI@1@AAV?$tuple@$$V@1@U?$integer_sequence@I$0A@@1@U?$integer_sequence@I$S@1@@Z 10044130 f i OffMeshManager.obj
 0001:00043190       ??$?6U?$char_traits@D@std@@@std@@YAAAV?$basic_ostream@DU?$char_traits@D@std@@@0@AAV10@PBD@Z 10044190 f i OffMeshManager.obj
 0001:000435e0       ??$_Adl_verify_range@PAV?$_List_unchecked_iterator@V?$_List_val@U?$_List_simple_types@U?$pair@$$CBIVOffMeshConnectionSet@MMAP@@@std@@@std@@@std@@@std@@PAV12@@std@@YAXABQAV?$_List_unchecked_iterator@V?$_List_val@U?$_List_simple_types@U?$pair@$$CBIVOffMeshConnectionSet@MMAP@@@std@@@std@@@std@@@0@0@Z 100445e0 f i OffMeshManager.obj
 0001:00043650       ??$_Allocate_at_least_helper@V?$allocator@UOffMeshConnectionInfo@MMAP@@@std@@@std@@YAPAUOffMeshConnectionInfo@MMAP@@AAV?$allocator@UOffMeshConnectionInfo@MMAP@@@0@AAI@Z 10044650 f i OffMeshManager.obj
 0001:00043680       ??$_Construct_in_place@PAU?$_List_node@U?$pair@$$CBIVOffMeshConnectionSet@MMAP@@@std@@PAX@std@@AAPAU12@@std@@YAXAAPAU?$_List_node@U?$pair@$$CBIVOffMeshConnectionSet@MMAP@@@std@@PAX@0@0@Z 10044680 f i OffMeshManager.obj
 0001:00043680       ??$_Construct_in_place@PAU?$_List_node@U?$pair@$$CBIVOffMeshConnectionSet@MMAP@@@std@@PAX@std@@ABQAU12@@std@@YAXAAPAU?$_List_node@U?$pair@$$CBIVOffMeshConnectionSet@MMAP@@@std@@PAX@0@ABQAU10@@Z 10044680 f i OffMeshManager.obj
 0001:000436f0       ??$_Construct_in_place@UOffMeshConnectionInfo@MMAP@@ABU12@@std@@YAXAAUOffMeshConnectionInfo@MMAP@@ABU12@@Z 100446f0 f i OffMeshManager.obj
 0001:00043770       ??$_Construct_in_place@V?$_List_unchecked_iterator@V?$_List_val@U?$_List_simple_types@U?$pair@$$CBIVOffMeshConnectionSet@MMAP@@@std@@@std@@@std@@@std@@ABV12@@std@@YAXAAV?$_List_unchecked_iterator@V?$_List_val@U?$_List_simple_types@U?$pair@$$CBIVOffMeshConnectionSet@MMAP@@@std@@@std@@@std@@@0@ABV10@@Z 10044770 f i OffMeshManager.obj
 0001:000437e0       ??$_Copy_memmove@PAUOffMeshConnectionInfo@MMAP@@PAU12@@std@@YAPAUOffMeshConnectionInfo@MMAP@@PAU12@00@Z 100447e0 f i OffMeshManager.obj
 0001:00043880       ??$_Copy_memmove_tail@PAUOffMeshConnectionInfo@MMAP@@@std@@YAPAUOffMeshConnectionInfo@MMAP@@QBDQAU12@II@Z 10044880 f i OffMeshManager.obj
 0001:000438e0       ??$_Destroy_in_place@PAU?$_List_node@U?$pair@$$CBIVOffMeshConnectionSet@MMAP@@@std@@PAX@std@@@std@@YAXAAPAU?$_List_node@U?$pair@$$CBIVOffMeshConnectionSet@MMAP@@@std@@PAX@0@@Z 100448e0 f i OffMeshManager.obj
 0001:000438e0       ??$_Destroy_range@PAV?$_List_unchecked_iterator@V?$_List_val@U?$_List_simple_types@U?$pair@$$CBIVOffMeshConnectionSet@MMAP@@@std@@@std@@@std@@@std@@PAV12@@std@@YAXPAV?$_List_unchecked_iterator@V?$_List_val@U?$_List_simple_types@U?$pair@$$CBIVOffMeshConnectionSet@MMAP@@@std@@@std@@@std@@@0@QAV10@@Z 100448e0 f i OffMeshManager.obj
 0001:000438e0       ??$_Destroy_range@V?$allocator@UOffMeshConnectionInfo@MMAP@@@std@@@std@@YAXPAUOffMeshConnectionInfo@MMAP@@QAU12@AAV?$allocator@UOffMeshConnectionInfo@MMAP@@@0@@Z 100448e0 f i OffMeshManager.obj
 0001:000438e0       ??$_Pocma@V?$allocator@UOffMeshConnectionInfo@MMAP@@@std@@@std@@YAXAAV?$allocator@UOffMeshConnectionInfo@MMAP@@@0@0@Z 100448e0 f i OffMeshManager.obj
 0001:00043900       ??$_Emplace_back@ABV?$_List_unchecked_iterator@V?$_List_val@U?$_List_simple_types@U?$pair@$$CBIVOffMeshConnectionSet@MMAP@@@std@@@std@@@std@@@std@@@?$_Uninitialized_backout@PAV?$_List_unchecked_iterator@V?$_List_val@U?$_List_simple_types@U?$pair@$$CBIVOffMeshConnectionSet@MMAP@@@std@@@std@@@std@@@std@@@std@@QAEXABV?$_List_unchecked_iterator@V?$_List_val@U?$_List_simple_types@U?$pair@$$CBIVOffMeshConnectionSet@MMAP@@@std@@@std@@@std@@@1@@Z 10044900 f i OffMeshManager.obj
 0001:00043950       ??$_Emplace_back@UOffMeshConnectionInfo@MMAP@@@?$_Uninitialized_backout_al@V?$allocator@UOffMeshConnectionInfo@MMAP@@@std@@@std@@QAEX$$QAUOffMeshConnectionInfo@MMAP@@@Z 10044950 f i OffMeshManager.obj
 0001:000439d0       ??$_Emplace_back_with_unused_capacity@ABUOffMeshConnectionInfo@MMAP@@@?$vector@UOffMeshConnectionInfo@MMAP@@V?$allocator@UOffMeshConnectionInfo@MMAP@@@std@@@std@@AAEAAUOffMeshConnectionInfo@MMAP@@ABU23@@Z 100449d0 f i OffMeshManager.obj
 0001:00043a60       ??$_Emplace_one_at_back@ABUOffMeshConnectionInfo@MMAP@@@?$vector@UOffMeshConnectionInfo@MMAP@@V?$allocator@UOffMeshConnectionInfo@MMAP@@@std@@@std@@AAEAAUOffMeshConnectionInfo@MMAP@@ABU23@@Z 10044a60 f i OffMeshManager.obj
 0001:00043ae0       ??$_Emplace_reallocate@ABUOffMeshConnectionInfo@MMAP@@@?$vector@UOffMeshConnectionInfo@MMAP@@V?$allocator@UOffMeshConnectionInfo@MMAP@@@std@@@std@@AAEPAUOffMeshConnectionInfo@MMAP@@QAU23@ABU23@@Z 10044ae0 f i OffMeshManager.obj
 0001:00043d30       ??$_Fgetc@D@std@@YA_NAADPAU_iobuf@@@Z 10044d30 f i OffMeshManager.obj
 0001:00043d90       ??$_Find@I@?$_Hash@V?$_Umap_traits@IVOffMeshConnectionSet@MMAP@@V?$_Uhash_compare@IU?$hash@I@std@@U?$equal_to@I@2@@std@@V?$allocator@U?$pair@$$CBIVOffMeshConnectionSet@MMAP@@@std@@@4@$0A@@std@@@std@@ABEPAU?$_List_node@U?$pair@$$CBIVOffMeshConnectionSet@MMAP@@@std@@PAX@1@ABII@Z 10044d90 f i OffMeshManager.obj
 0001:00043df0       ??$_Find_last@I@?$_Hash@V?$_Umap_traits@IVOffMeshConnectionSet@MMAP@@V?$_Uhash_compare@IU?$hash@I@std@@U?$equal_to@I@2@@std@@V?$allocator@U?$pair@$$CBIVOffMeshConnectionSet@MMAP@@@std@@@4@$0A@@std@@@std@@IBE?AU?$_Hash_find_last_result@PAU?$_List_node@U?$pair@$$CBIVOffMeshConnectionSet@MMAP@@@std@@PAX@std@@@1@ABII@Z 10044df0 f i OffMeshManager.obj
 0001:00043ef0       ??$_Fputc@D@std@@YA_NDPAU_iobuf@@@Z 10044ef0 f i OffMeshManager.obj
 0001:00043f50       ??$_Free_non_head@V?$allocator@U?$_List_node@U?$pair@$$CBIVOffMeshConnectionSet@MMAP@@@std@@PAX@std@@@std@@@?$_List_node@U?$pair@$$CBIVOffMeshConnectionSet@MMAP@@@std@@PAX@std@@SAXAAV?$allocator@U?$_List_node@U?$pair@$$CBIVOffMeshConnectionSet@MMAP@@@std@@PAX@std@@@1@PAU01@@Z 10044f50 f i OffMeshManager.obj
 0001:00043fc0       ??$_Freenode0@V?$allocator@U?$_List_node@U?$pair@$$CBIVOffMeshConnectionSet@MMAP@@@std@@PAX@std@@@std@@@?$_List_node@U?$pair@$$CBIVOffMeshConnectionSet@MMAP@@@std@@PAX@std@@SAXAAV?$allocator@U?$_List_node@U?$pair@$$CBIVOffMeshConnectionSet@MMAP@@@std@@PAX@std@@@1@PAU01@@Z 10044fc0 f i OffMeshManager.obj
 0001:00044010       ??$_Freenode@V?$allocator@U?$_List_node@U?$pair@$$CBIVOffMeshConnectionSet@MMAP@@@std@@PAX@std@@@std@@@?$_List_node@U?$pair@$$CBIVOffMeshConnectionSet@MMAP@@@std@@PAX@std@@SAXAAV?$allocator@U?$_List_node@U?$pair@$$CBIVOffMeshConnectionSet@MMAP@@@std@@PAX@std@@@1@PAU01@@Z 10045010 f i OffMeshManager.obj
 0001:00044090       ??$_Get_index@$0A@@id@locale@std@@QAEIXZ 10045090 f i OffMeshManager.obj
 0001:00044170       ??$_Get_size_of_n@$0BM@@std@@YAII@Z 10045170 f i OffMeshManager.obj
 0001:000441c0       ??$_Get_size_of_n@$0DE@@std@@YAII@Z 100451c0 f i OffMeshManager.obj
 0001:00044210       ??$_Get_unwrapped@ABQAUOffMeshConnectionInfo@MMAP@@@std@@YA?A_TABQAUOffMeshConnectionInfo@MMAP@@@Z 10045210 f i OffMeshManager.obj
 0001:00044210       ??$_Get_unwrapped@ABQAV?$_List_unchecked_iterator@V?$_List_val@U?$_List_simple_types@U?$pair@$$CBIVOffMeshConnectionSet@MMAP@@@std@@@std@@@std@@@std@@@std@@YA?A_TABQAV?$_List_unchecked_iterator@V?$_List_val@U?$_List_simple_types@U?$pair@$$CBIVOffMeshConnectionSet@MMAP@@@std@@@std@@@std@@@0@@Z 10045210 f i OffMeshManager.obj
 0001:00044230       ??$_Kfn@$$CBIVOffMeshConnectionSet@MMAP@@@?$_Umap_traits@IVOffMeshConnectionSet@MMAP@@V?$_Uhash_compare@IU?$hash@I@std@@U?$equal_to@I@2@@std@@V?$allocator@U?$pair@$$CBIVOffMeshConnectionSet@MMAP@@@std@@@4@$0A@@std@@SAABIABU?$pair@$$CBIVOffMeshConnectionSet@MMAP@@@1@@Z 10045230 f i OffMeshManager.obj
 0001:00044250       ??$_To_address@PAUOffMeshConnectionInfo@MMAP@@@std@@YA?A_PABQAUOffMeshConnectionInfo@MMAP@@@Z 10045250 f i OffMeshManager.obj
 0001:00044280       ??$_Try_emplace@ABI$$V@?$_Hash@V?$_Umap_traits@IVOffMeshConnectionSet@MMAP@@V?$_Uhash_compare@IU?$hash@I@std@@U?$equal_to@I@2@@std@@V?$allocator@U?$pair@$$CBIVOffMeshConnectionSet@MMAP@@@std@@@4@$0A@@std@@@std@@IAE?AU?$pair@PAU?$_List_node@U?$pair@$$CBIVOffMeshConnectionSet@MMAP@@@std@@PAX@std@@_N@1@ABI@Z 10045280 f i OffMeshManager.obj
 0001:00044470       ??$_Unfancy@UOffMeshConnectionInfo@MMAP@@@std@@YAPAUOffMeshConnectionInfo@MMAP@@PAU12@@Z 10045470 f i OffMeshManager.obj
 0001:00044470       ??$_Unfancy_maybe_null@UOffMeshConnectionInfo@MMAP@@@std@@YAPAUOffMeshConnectionInfo@MMAP@@PAU12@@Z 10045470 f i OffMeshManager.obj
 0001:00044490       ??$_Ungetc@D@std@@YA_NABDPAU_iobuf@@@Z 10045490 f i OffMeshManager.obj
 0001:000444f0       ??$_Uninitialized_move@PAUOffMeshConnectionInfo@MMAP@@V?$allocator@UOffMeshConnectionInfo@MMAP@@@std@@@std@@YAPAUOffMeshConnectionInfo@MMAP@@QAU12@0PAU12@AAV?$allocator@UOffMeshConnectionInfo@MMAP@@@0@@Z 100454f0 f i OffMeshManager.obj
 0001:00044660       ??$addressof@$$CBU?$pair@$$CBIVOffMeshConnectionSet@MMAP@@@std@@@std@@YAPBU?$pair@$$CBIVOffMeshConnectionSet@MMAP@@@0@ABU10@@Z 10045660 f i OffMeshManager.obj
 0001:00044660       ??$addressof@$$CBV?$_List_val@U?$_List_simple_types@U?$pair@$$CBIVOffMeshConnectionSet@MMAP@@@std@@@std@@@std@@@std@@YAPBV?$_List_val@U?$_List_simple_types@U?$pair@$$CBIVOffMeshConnectionSet@MMAP@@@std@@@std@@@0@ABV10@@Z 10045660 f i OffMeshManager.obj
 0001:00044660       ??$addressof@$$CBV?$codecvt@DDU_Mbstatet@@@std@@@std@@YAPBV?$codecvt@DDU_Mbstatet@@@0@ABV10@@Z 10045660 f i OffMeshManager.obj
 0001:00044660       ??$addressof@PAU?$_List_node@U?$pair@$$CBIVOffMeshConnectionSet@MMAP@@@std@@PAX@std@@@std@@YAPAPAU?$_List_node@U?$pair@$$CBIVOffMeshConnectionSet@MMAP@@@std@@PAX@0@AAPAU10@@Z 10045660 f i OffMeshManager.obj
 0001:00044660       ??$addressof@U?$pair@$$CBIVOffMeshConnectionSet@MMAP@@@std@@@std@@YAPAU?$pair@$$CBIVOffMeshConnectionSet@MMAP@@@0@AAU10@@Z 10045660 f i OffMeshManager.obj
 0001:00044660       ??$addressof@UOffMeshConnectionInfo@MMAP@@@std@@YAPAUOffMeshConnectionInfo@MMAP@@AAU12@@Z 10045660 f i OffMeshManager.obj
 0001:00044660       ??$addressof@V?$_List_unchecked_iterator@V?$_List_val@U?$_List_simple_types@U?$pair@$$CBIVOffMeshConnectionSet@MMAP@@@std@@@std@@@std@@@std@@@std@@YAPAV?$_List_unchecked_iterator@V?$_List_val@U?$_List_simple_types@U?$pair@$$CBIVOffMeshConnectionSet@MMAP@@@std@@@std@@@std@@@0@AAV10@@Z 10045660 f i OffMeshManager.obj
 0001:00044660       ??$addressof@V?$basic_filebuf@DU?$char_traits@D@std@@@std@@@std@@YAPAV?$basic_filebuf@DU?$char_traits@D@std@@@0@AAV10@@Z 10045660 f i OffMeshManager.obj
 0001:00044660       ??$addressof@V?$basic_ostream@DU?$char_traits@D@std@@@std@@@std@@YAPAV?$basic_ostream@DU?$char_traits@D@std@@@0@AAV10@@Z 10045660 f i OffMeshManager.obj
 0001:00044660       ??$addressof@V?$vector@UOffMeshConnectionInfo@MMAP@@V?$allocator@UOffMeshConnectionInfo@MMAP@@@std@@@std@@@std@@YAPAV?$vector@UOffMeshConnectionInfo@MMAP@@V?$allocator@UOffMeshConnectionInfo@MMAP@@@std@@@0@AAV10@@Z 10045660 f i OffMeshManager.obj
 0001:00044680       ??$construct@U?$pair@$$CBIVOffMeshConnectionSet@MMAP@@@std@@ABUpiecewise_construct_t@2@V?$tuple@ABI@2@V?$tuple@$$V@2@@?$_Default_allocator_traits@V?$allocator@U?$_List_node@U?$pair@$$CBIVOffMeshConnectionSet@MMAP@@@std@@PAX@std@@@std@@@std@@SAXAAV?$allocator@U?$_List_node@U?$pair@$$CBIVOffMeshConnectionSet@MMAP@@@std@@PAX@std@@@1@QAU?$pair@$$CBIVOffMeshConnectionSet@MMAP@@@1@ABUpiecewise_construct_t@1@$$QAV?$tuple@ABI@1@$$QAV?$tuple@$$V@1@@Z 10045680 f i OffMeshManager.obj
 0001:000446b0       ??$construct@UOffMeshConnectionInfo@MMAP@@ABU12@@?$_Default_allocator_traits@V?$allocator@UOffMeshConnectionInfo@MMAP@@@std@@@std@@SAXAAV?$allocator@UOffMeshConnectionInfo@MMAP@@@1@QAUOffMeshConnectionInfo@MMAP@@ABU34@@Z 100456b0 f i OffMeshManager.obj
 0001:000446b0       ??$construct@UOffMeshConnectionInfo@MMAP@@U12@@?$_Default_allocator_traits@V?$allocator@UOffMeshConnectionInfo@MMAP@@@std@@@std@@SAXAAV?$allocator@UOffMeshConnectionInfo@MMAP@@@1@QAUOffMeshConnectionInfo@MMAP@@$$QAU34@@Z 100456b0 f i OffMeshManager.obj
 0001:000446e0       ??$construct_at@PAU?$_List_node@U?$pair@$$CBIVOffMeshConnectionSet@MMAP@@@std@@PAX@std@@AAPAU12@@std@@YAPAPAU?$_List_node@U?$pair@$$CBIVOffMeshConnectionSet@MMAP@@@std@@PAX@0@QAPAU10@AAPAU10@@Z 100456e0 f i OffMeshManager.obj
 0001:000446e0       ??$construct_at@PAU?$_List_node@U?$pair@$$CBIVOffMeshConnectionSet@MMAP@@@std@@PAX@std@@ABQAU12@@std@@YAPAPAU?$_List_node@U?$pair@$$CBIVOffMeshConnectionSet@MMAP@@@std@@PAX@0@QAPAU10@ABQAU10@@Z 100456e0 f i OffMeshManager.obj
 0001:00044730       ??$construct_at@U?$pair@$$CBIVOffMeshConnectionSet@MMAP@@@std@@ABUpiecewise_construct_t@2@V?$tuple@ABI@2@V?$tuple@$$V@2@@std@@YAPAU?$pair@$$CBIVOffMeshConnectionSet@MMAP@@@0@QAU10@ABUpiecewise_construct_t@0@$$QAV?$tuple@ABI@0@$$QAV?$tuple@$$V@0@@Z 10045730 f i OffMeshManager.obj
 0001:000447b0       ??$construct_at@UOffMeshConnectionInfo@MMAP@@ABU12@@std@@YAPAUOffMeshConnectionInfo@MMAP@@QAU12@ABU12@@Z 100457b0 f i OffMeshManager.obj
 0001:000447b0       ??$construct_at@UOffMeshConnectionInfo@MMAP@@U12@@std@@YAPAUOffMeshConnectionInfo@MMAP@@QAU12@$$QAU12@@Z 100457b0 f i OffMeshManager.obj
 0001:00044800       ??$construct_at@V?$_List_unchecked_iterator@V?$_List_val@U?$_List_simple_types@U?$pair@$$CBIVOffMeshConnectionSet@MMAP@@@std@@@std@@@std@@@std@@ABV12@@std@@YAPAV?$_List_unchecked_iterator@V?$_List_val@U?$_List_simple_types@U?$pair@$$CBIVOffMeshConnectionSet@MMAP@@@std@@@std@@@std@@@0@QAV10@ABV10@@Z 10045800 f i OffMeshManager.obj
 0001:00044850       ??$destroy@U?$pair@$$CBIVOffMeshConnectionSet@MMAP@@@std@@@?$_Default_allocator_traits@V?$allocator@U?$_List_node@U?$pair@$$CBIVOffMeshConnectionSet@MMAP@@@std@@PAX@std@@@std@@@std@@SAXAAV?$allocator@U?$_List_node@U?$pair@$$CBIVOffMeshConnectionSet@MMAP@@@std@@PAX@std@@@1@QAU?$pair@$$CBIVOffMeshConnectionSet@MMAP@@@1@@Z 10045850 f i OffMeshManager.obj
 0001:00044880       ??$destroy_at@U?$pair@$$CBIVOffMeshConnectionSet@MMAP@@@std@@@std@@YAXQAU?$pair@$$CBIVOffMeshConnectionSet@MMAP@@@0@@Z 10045880 f i OffMeshManager.obj
 0001:000448b0       ??$endl@DU?$char_traits@D@std@@@std@@YAAAV?$basic_ostream@DU?$char_traits@D@std@@@0@AAV10@@Z 100458b0 f i OffMeshManager.obj
 0001:00044930       ??$exchange@PAU?$_List_node@U?$pair@$$CBIVOffMeshConnectionSet@MMAP@@@std@@PAX@std@@$$T@std@@YAPAU?$_List_node@U?$pair@$$CBIVOffMeshConnectionSet@MMAP@@@std@@PAX@0@AAPAU10@$$QA$$T@Z 10045930 f i OffMeshManager.obj
 0001:00044930       ??$exchange@PAV_Facet_base@std@@$$T@std@@YAPAV_Facet_base@0@AAPAV10@$$QA$$T@Z 10045930 f i OffMeshManager.obj
 0001:00044970       ??$fill@PAV?$_List_unchecked_iterator@V?$_List_val@U?$_List_simple_types@U?$pair@$$CBIVOffMeshConnectionSet@MMAP@@@std@@@std@@@std@@@std@@V12@@std@@YAXQAV?$_List_unchecked_iterator@V?$_List_val@U?$_List_simple_types@U?$pair@$$CBIVOffMeshConnectionSet@MMAP@@@std@@@std@@@std@@@0@0ABV10@@Z 10045970 f i OffMeshManager.obj
 0001:000449f0       ??$to_address@UOffMeshConnectionInfo@MMAP@@@std@@YAPAUOffMeshConnectionInfo@MMAP@@QAU12@@Z 100459f0 f i OffMeshManager.obj
 0001:00044a10       ??$uninitialized_fill@PAV?$_List_unchecked_iterator@V?$_List_val@U?$_List_simple_types@U?$pair@$$CBIVOffMeshConnectionSet@MMAP@@@std@@@std@@@std@@@std@@V12@@std@@YAXQAV?$_List_unchecked_iterator@V?$_List_val@U?$_List_simple_types@U?$pair@$$CBIVOffMeshConnectionSet@MMAP@@@std@@@std@@@std@@@0@0ABV10@@Z 10045a10 f i OffMeshManager.obj
 0001:00044b20       ??$use_facet@V?$codecvt@DDU_Mbstatet@@@std@@@std@@YAABV?$codecvt@DDU_Mbstatet@@@0@ABVlocale@0@@Z 10045b20 f i OffMeshManager.obj
 0001:00044cf0       ??0?$_Alloc_construct_ptr@V?$allocator@U?$_List_node@U?$pair@$$CBIVOffMeshConnectionSet@MMAP@@@std@@PAX@std@@@std@@@std@@QAE@AAV?$allocator@U?$_List_node@U?$pair@$$CBIVOffMeshConnectionSet@MMAP@@@std@@PAX@std@@@1@@Z 10045cf0 f i OffMeshManager.obj
 0001:00044d30       ??0?$_Hash@V?$_Umap_traits@IVOffMeshConnectionSet@MMAP@@V?$_Uhash_compare@IU?$hash@I@std@@U?$equal_to@I@2@@std@@V?$allocator@U?$pair@$$CBIVOffMeshConnectionSet@MMAP@@@std@@@4@$0A@@std@@@std@@IAE@ABV?$_Uhash_compare@IU?$hash@I@std@@U?$equal_to@I@2@@1@ABV?$allocator@U?$pair@$$CBIVOffMeshConnectionSet@MMAP@@@std@@@1@@Z 10045d30 f i OffMeshManager.obj
 0001:00044e40       ??0?$_List_const_iterator@V?$_List_val@U?$_List_simple_types@U?$pair@$$CBIVOffMeshConnectionSet@MMAP@@@std@@@std@@@std@@@std@@QAE@PAU?$_List_node@U?$pair@$$CBIVOffMeshConnectionSet@MMAP@@@std@@PAX@1@PBV?$_List_val@U?$_List_simple_types@U?$pair@$$CBIVOffMeshConnectionSet@MMAP@@@std@@@std@@@1@@Z 10045e40 f i OffMeshManager.obj
 0001:00044e80       ??0?$_List_unchecked_const_iterator@V?$_List_val@U?$_List_simple_types@U?$pair@$$CBIVOffMeshConnectionSet@MMAP@@@std@@@std@@@std@@U_Iterator_base0@2@@std@@QAE@PAU?$_List_node@U?$pair@$$CBIVOffMeshConnectionSet@MMAP@@@std@@PAX@1@PBV?$_List_val@U?$_List_simple_types@U?$pair@$$CBIVOffMeshConnectionSet@MMAP@@@std@@@std@@@1@@Z 10045e80 f i OffMeshManager.obj
 0001:00044ec0       ??0?$_List_unchecked_const_iterator@V?$_List_val@U?$_List_simple_types@U?$pair@$$CBIVOffMeshConnectionSet@MMAP@@@std@@@std@@@std@@U_Iterator_base12@2@@std@@QAE@PAU?$_List_node@U?$pair@$$CBIVOffMeshConnectionSet@MMAP@@@std@@PAX@1@PBV?$_List_val@U?$_List_simple_types@U?$pair@$$CBIVOffMeshConnectionSet@MMAP@@@std@@@std@@@1@@Z 10045ec0 f i OffMeshManager.obj
 0001:00044f10       ??0?$_List_unchecked_iterator@V?$_List_val@U?$_List_simple_types@U?$pair@$$CBIVOffMeshConnectionSet@MMAP@@@std@@@std@@@std@@@std@@QAE@PAU?$_List_node@U?$pair@$$CBIVOffMeshConnectionSet@MMAP@@@std@@PAX@1@PBV?$_List_val@U?$_List_simple_types@U?$pair@$$CBIVOffMeshConnectionSet@MMAP@@@std@@@std@@@1@@Z 10045f10 f i OffMeshManager.obj
 0001:00044f50       ??0?$_List_val@U?$_List_simple_types@U?$pair@$$CBIVOffMeshConnectionSet@MMAP@@@std@@@std@@@std@@QAE@XZ 10045f50 f i OffMeshManager.obj
 0001:00044fa0       ??0?$_Umap_traits@IVOffMeshConnectionSet@MMAP@@V?$_Uhash_compare@IU?$hash@I@std@@U?$equal_to@I@2@@std@@V?$allocator@U?$pair@$$CBIVOffMeshConnectionSet@MMAP@@@std@@@4@$0A@@std@@QAE@ABV?$_Uhash_compare@IU?$hash@I@std@@U?$equal_to@I@2@@1@@Z 10045fa0 f i OffMeshManager.obj
 0001:00044fe0       ??0?$_Uninitialized_backout@PAV?$_List_unchecked_iterator@V?$_List_val@U?$_List_simple_types@U?$pair@$$CBIVOffMeshConnectionSet@MMAP@@@std@@@std@@@std@@@std@@@std@@QAE@PAV?$_List_unchecked_iterator@V?$_List_val@U?$_List_simple_types@U?$pair@$$CBIVOffMeshConnectionSet@MMAP@@@std@@@std@@@std@@@1@@Z 10045fe0 f i OffMeshManager.obj
 0001:00045020       ??0?$_Uninitialized_backout_al@V?$allocator@UOffMeshConnectionInfo@MMAP@@@std@@@std@@QAE@PAUOffMeshConnectionInfo@MMAP@@AAV?$allocator@UOffMeshConnectionInfo@MMAP@@@1@@Z 10046020 f i OffMeshManager.obj
 0001:00045070       ??0?$_Vector_val@U?$_Simple_types@UOffMeshConnectionInfo@MMAP@@@std@@@std@@QAE@XZ 10046070 f i OffMeshManager.obj
 0001:00045070       ??0?$_Vector_val@U?$_Simple_types@V?$_List_unchecked_iterator@V?$_List_val@U?$_List_simple_types@U?$pair@$$CBIVOffMeshConnectionSet@MMAP@@@std@@@std@@@std@@@std@@@std@@@std@@QAE@XZ 10046070 f i OffMeshManager.obj
 0001:000450c0       ??0?$allocator@U?$pair@$$CBIVOffMeshConnectionSet@MMAP@@@std@@@std@@QAE@XZ 100460c0 f i OffMeshManager.obj
 0001:000450c0       ??0?$allocator@UOffMeshConnectionInfo@MMAP@@@std@@QAE@XZ 100460c0 f i OffMeshManager.obj
 0001:000450f0       ??0?$basic_filebuf@DU?$char_traits@D@std@@@std@@QAE@XZ 100460f0 f i OffMeshManager.obj
 0001:00045150       ??0?$basic_ifstream@DU?$char_traits@D@std@@@std@@QAE@PBDHH@Z 10046150 f i OffMeshManager.obj
 0001:000452b0       ??0?$fpos@U_Mbstatet@@@std@@QAE@U_Mbstatet@@_J@Z 100462b0 f i OffMeshManager.obj
 0001:00045310       ??0?$list@U?$pair@$$CBIVOffMeshConnectionSet@MMAP@@@std@@V?$allocator@U?$pair@$$CBIVOffMeshConnectionSet@MMAP@@@std@@@2@@std@@QAE@ABV?$allocator@U?$pair@$$CBIVOffMeshConnectionSet@MMAP@@@std@@@1@@Z 10046310 f i OffMeshManager.obj
 0001:00045370       ??0?$unordered_map@IVOffMeshConnectionSet@MMAP@@U?$hash@I@std@@U?$equal_to@I@4@V?$allocator@U?$pair@$$CBIVOffMeshConnectionSet@MMAP@@@std@@@4@@std@@QAE@XZ 10046370 f i OffMeshManager.obj
 0001:000453d0       ??0?$vector@UOffMeshConnectionInfo@MMAP@@V?$allocator@UOffMeshConnectionInfo@MMAP@@@std@@@std@@QAE@XZ 100463d0 f i OffMeshManager.obj
 0001:00045470       ??0OffMeshConnectionSet@MMAP@@QAE@XZ 10046470 f i OffMeshManager.obj
 0001:000454a0       ??0OffMeshManager@MMAP@@AAE@XZ 100464a0 f i OffMeshManager.obj
 0001:000454e0       ??0_Clear_guard@?$_Hash@V?$_Umap_traits@IVOffMeshConnectionSet@MMAP@@V?$_Uhash_compare@IU?$hash@I@std@@U?$equal_to@I@2@@std@@V?$allocator@U?$pair@$$CBIVOffMeshConnectionSet@MMAP@@@std@@@4@$0A@@std@@@std@@QAE@QAV12@@Z 100464e0 f i OffMeshManager.obj
 0001:00045520       ??0_Range_eraser@?$_Hash@V?$_Umap_traits@IVOffMeshConnectionSet@MMAP@@V?$_Uhash_compare@IU?$hash@I@std@@U?$equal_to@I@2@@std@@V?$allocator@U?$pair@$$CBIVOffMeshConnectionSet@MMAP@@@std@@@4@$0A@@std@@@std@@QAE@AAV?$list@U?$pair@$$CBIVOffMeshConnectionSet@MMAP@@@std@@V?$allocator@U?$pair@$$CBIVOffMeshConnectionSet@MMAP@@@std@@@2@@2@QAU?$_List_node@U?$pair@$$CBIVOffMeshConnectionSet@MMAP@@@std@@PAX@2@@Z 10046520 f i OffMeshManager.obj
 0001:00045570       ??0_Sentry_base@?$basic_ostream@DU?$char_traits@D@std@@@std@@QAE@AAV12@@Z 10046570 f i OffMeshManager.obj
 0001:00045600       ??0bad_cast@std@@QAE@ABV01@@Z 10046600 f i OffMeshManager.obj
 0001:00045640       ??0bad_cast@std@@QAE@XZ    10046640 f i OffMeshManager.obj
 0001:00045690       ??0sentry@?$basic_ostream@DU?$char_traits@D@std@@@std@@QAE@AAV12@@Z 10046690 f i OffMeshManager.obj
 0001:000457b0       ??1?$_Alloc_construct_ptr@V?$allocator@U?$_List_node@U?$pair@$$CBIVOffMeshConnectionSet@MMAP@@@std@@PAX@std@@@std@@@std@@QAE@XZ 100467b0 f i OffMeshManager.obj
 0001:00045810       ??1?$_Hash@V?$_Umap_traits@IVOffMeshConnectionSet@MMAP@@V?$_Uhash_compare@IU?$hash@I@std@@U?$equal_to@I@2@@std@@V?$allocator@U?$pair@$$CBIVOffMeshConnectionSet@MMAP@@@std@@@4@$0A@@std@@@std@@QAE@XZ 10046810 f i OffMeshManager.obj
 0001:00045850       ??1?$_Hash_vec@V?$allocator@V?$_List_unchecked_iterator@V?$_List_val@U?$_List_simple_types@U?$pair@$$CBIVOffMeshConnectionSet@MMAP@@@std@@@std@@@std@@@std@@@std@@@std@@QAE@XZ 10046850 f i OffMeshManager.obj
 0001:00045910       ??1?$_List_node_emplace_op2@V?$allocator@U?$_List_node@U?$pair@$$CBIVOffMeshConnectionSet@MMAP@@@std@@PAX@std@@@std@@@std@@QAE@XZ 10046910 f i OffMeshManager.obj
 0001:000459c0       ??1?$_Uninitialized_backout@PAV?$_List_unchecked_iterator@V?$_List_val@U?$_List_simple_types@U?$pair@$$CBIVOffMeshConnectionSet@MMAP@@@std@@@std@@@std@@@std@@@std@@QAE@XZ 100469c0 f i OffMeshManager.obj
 0001:00045a00       ??1?$_Uninitialized_backout_al@V?$allocator@UOffMeshConnectionInfo@MMAP@@@std@@@std@@QAE@XZ 10046a00 f i OffMeshManager.obj
 0001:00045a50       ??1?$basic_filebuf@DU?$char_traits@D@std@@@std@@UAE@XZ 10046a50 f i OffMeshManager.obj
 0001:00045af0       ??1?$basic_ifstream@DU?$char_traits@D@std@@@std@@UAE@XZ 10046af0 f i OffMeshManager.obj
 0001:00045b70       ??1?$list@U?$pair@$$CBIVOffMeshConnectionSet@MMAP@@@std@@V?$allocator@U?$pair@$$CBIVOffMeshConnectionSet@MMAP@@@std@@@2@@std@@QAE@XZ 10046b70 f i OffMeshManager.obj
 0001:00045c20       ??1?$pair@$$CBIVOffMeshConnectionSet@MMAP@@@std@@QAE@XZ 10046c20 f i OffMeshManager.obj
 0001:00045c50       ??1?$unique_ptr@V_Facet_base@std@@U?$default_delete@V_Facet_base@std@@@2@@std@@QAE@XZ 10046c50 f i OffMeshManager.obj
 0001:00045cb0       ??1?$unordered_map@IVOffMeshConnectionSet@MMAP@@U?$hash@I@std@@U?$equal_to@I@4@V?$allocator@U?$pair@$$CBIVOffMeshConnectionSet@MMAP@@@std@@@4@@std@@QAE@XZ 10046cb0 f i OffMeshManager.obj
 0001:00045ce0       ??1?$vector@UOffMeshConnectionInfo@MMAP@@V?$allocator@UOffMeshConnectionInfo@MMAP@@@std@@@std@@QAE@XZ 10046ce0 f i OffMeshManager.obj
 0001:00045da0       ??1OffMeshConnectionSet@MMAP@@QAE@XZ 10046da0 f i OffMeshManager.obj
 0001:00045dd0       ??1OffMeshManager@MMAP@@AAE@XZ 10046dd0 f i OffMeshManager.obj
 0001:00045e00       ??1_Clear_guard@?$_Hash@V?$_Umap_traits@IVOffMeshConnectionSet@MMAP@@V?$_Uhash_compare@IU?$hash@I@std@@U?$equal_to@I@2@@std@@V?$allocator@U?$pair@$$CBIVOffMeshConnectionSet@MMAP@@@std@@@4@$0A@@std@@@std@@QAE@XZ 10046e00 f i OffMeshManager.obj
 0001:00045e40       ??1_Range_eraser@?$_Hash@V?$_Umap_traits@IVOffMeshConnectionSet@MMAP@@V?$_Uhash_compare@IU?$hash@I@std@@U?$equal_to@I@2@@std@@V?$allocator@U?$pair@$$CBIVOffMeshConnectionSet@MMAP@@@std@@@4@$0A@@std@@@std@@QAE@XZ 10046e40 f i OffMeshManager.obj
 0001:00045e90       ??1_Reallocation_guard@?$vector@UOffMeshConnectionInfo@MMAP@@V?$allocator@UOffMeshConnectionInfo@MMAP@@@std@@@std@@QAE@XZ 10046e90 f i OffMeshManager.obj
 0001:00045f10       ??1_Sentry_base@?$basic_ostream@DU?$char_traits@D@std@@@std@@QAE@XZ 10046f10 f i OffMeshManager.obj
 0001:00045fc0       ??1locale@std@@QAE@XZ      10046fc0 f i OffMeshManager.obj
 0001:00046050       ??1sentry@?$basic_ostream@DU?$char_traits@D@std@@@std@@QAE@XZ 10047050 f i OffMeshManager.obj
 0001:000460c0       ??4?$vector@UOffMeshConnectionInfo@MMAP@@V?$allocator@UOffMeshConnectionInfo@MMAP@@@std@@@std@@QAEAAV01@$$QAV01@@Z 100470c0 f i OffMeshManager.obj
 0001:00046160       ??4OffMeshConnectionInfo@MMAP@@QAEAAU01@ABU01@@Z 10047160 f i OffMeshManager.obj
 0001:00046210       ??4OffMeshConnectionSet@MMAP@@QAEAAV01@$$QAV01@@Z 10047210 f i OffMeshManager.obj
 0001:00046240       ??8?$_List_const_iterator@V?$_List_val@U?$_List_simple_types@U?$pair@$$CBIVOffMeshConnectionSet@MMAP@@@std@@@std@@@std@@@std@@QBE_NABV01@@Z 10047240 f i OffMeshManager.obj
 0001:00046300       ??8?$_List_unchecked_const_iterator@V?$_List_val@U?$_List_simple_types@U?$pair@$$CBIVOffMeshConnectionSet@MMAP@@@std@@@std@@@std@@U_Iterator_base0@2@@std@@QBE_NABV01@@Z 10047300 f i OffMeshManager.obj
 0001:00046360       ??A?$unordered_map@IVOffMeshConnectionSet@MMAP@@U?$hash@I@std@@U?$equal_to@I@4@V?$allocator@U?$pair@$$CBIVOffMeshConnectionSet@MMAP@@@std@@@4@@std@@QAEAAVOffMeshConnectionSet@MMAP@@ABI@Z 10047360 f i OffMeshManager.obj
 0001:000463b0       ??Bsentry@?$basic_ostream@DU?$char_traits@D@std@@@std@@QBE_NXZ 100473b0 f i OffMeshManager.obj
 0001:000463e0       ??C?$_List_const_iterator@V?$_List_val@U?$_List_simple_types@U?$pair@$$CBIVOffMeshConnectionSet@MMAP@@@std@@@std@@@std@@@std@@QBEPBU?$pair@$$CBIVOffMeshConnectionSet@MMAP@@@1@XZ 100473e0 f i OffMeshManager.obj
 0001:00046420       ??D?$_List_const_iterator@V?$_List_val@U?$_List_simple_types@U?$pair@$$CBIVOffMeshConnectionSet@MMAP@@@std@@@std@@@std@@@std@@QBEABU?$pair@$$CBIVOffMeshConnectionSet@MMAP@@@1@XZ 10047420 f i OffMeshManager.obj
 0001:00046510       ??D?$_List_unchecked_const_iterator@V?$_List_val@U?$_List_simple_types@U?$pair@$$CBIVOffMeshConnectionSet@MMAP@@@std@@@std@@@std@@U_Iterator_base0@2@@std@@QBEABU?$pair@$$CBIVOffMeshConnectionSet@MMAP@@@1@XZ 10047510 f i OffMeshManager.obj
 0001:00046540       ??D?$_List_unchecked_iterator@V?$_List_val@U?$_List_simple_types@U?$pair@$$CBIVOffMeshConnectionSet@MMAP@@@std@@@std@@@std@@@std@@QBEAAU?$pair@$$CBIVOffMeshConnectionSet@MMAP@@@1@XZ 10047540 f i OffMeshManager.obj
 0001:00046570       ??E?$_List_unchecked_const_iterator@V?$_List_val@U?$_List_simple_types@U?$pair@$$CBIVOffMeshConnectionSet@MMAP@@@std@@@std@@@std@@U_Iterator_base0@2@@std@@QAEAAV01@XZ 10047570 f i OffMeshManager.obj
 0001:000465b0       ??E?$_List_unchecked_iterator@V?$_List_val@U?$_List_simple_types@U?$pair@$$CBIVOffMeshConnectionSet@MMAP@@@std@@@std@@@std@@@std@@QAEAAV01@XZ 100475b0 f i OffMeshManager.obj
 0001:000465f0       ??F?$_List_unchecked_const_iterator@V?$_List_val@U?$_List_simple_types@U?$pair@$$CBIVOffMeshConnectionSet@MMAP@@@std@@@std@@@std@@U_Iterator_base0@2@@std@@QAEAAV01@XZ 100475f0 f i OffMeshManager.obj
 0001:00046630       ??R?$default_delete@V_Facet_base@std@@@std@@QBEXPAV_Facet_base@1@@Z 10047630 f i OffMeshManager.obj
 0001:000466a0       ??_D?$basic_ifstream@DU?$char_traits@D@std@@@std@@QAEXXZ 100476a0 f i OffMeshManager.obj
 0001:000466df       ??_E?$basic_ifstream@DU?$char_traits@D@std@@@std@@$4PPPPPPPM@A@AEPAXI@Z 100476df f i OffMeshManager.obj
 0001:000466f0       ??_E?$basic_filebuf@DU?$char_traits@D@std@@@std@@UAEPAXI@Z 100476f0 f i OffMeshManager.obj
 0001:000466f0       ??_G?$basic_filebuf@DU?$char_traits@D@std@@@std@@UAEPAXI@Z 100476f0 f i OffMeshManager.obj
 0001:00046730       ??_E?$basic_ifstream@DU?$char_traits@D@std@@@std@@UAEPAXI@Z 10047730 f i OffMeshManager.obj
 0001:00046730       ??_G?$basic_ifstream@DU?$char_traits@D@std@@@std@@UAEPAXI@Z 10047730 f i OffMeshManager.obj
 0001:00046780       ??_G?$pair@$$CBIVOffMeshConnectionSet@MMAP@@@std@@QAEPAXI@Z 10047780 f i OffMeshManager.obj
 0001:000467c0       ?IsNearEnd@OffMeshConnectionInfo@MMAP@@QBE_NABVVector3@G3D@@M@Z 100477c0 f i OffMeshManager.obj
 0001:000468c0       ?IsNearStart@OffMeshConnectionInfo@MMAP@@QBE_NABVVector3@G3D@@M@Z 100478c0 f i OffMeshManager.obj
 0001:000469b0       ?_Alloc_sentinel_and_proxy@?$list@U?$pair@$$CBIVOffMeshConnectionSet@MMAP@@@std@@V?$allocator@U?$pair@$$CBIVOffMeshConnectionSet@MMAP@@@std@@@2@@std@@AAEXXZ 100479b0 f i OffMeshManager.obj
 0001:00046b00       ?_Allocate@?$_Alloc_construct_ptr@V?$allocator@U?$_List_node@U?$pair@$$CBIVOffMeshConnectionSet@MMAP@@@std@@PAX@std@@@std@@@std@@QAEXXZ 10047b00 f i OffMeshManager.obj
 0001:00046b60       ?_Assign_grow@?$_Hash_vec@V?$allocator@V?$_List_unchecked_iterator@V?$_List_val@U?$_List_simple_types@U?$pair@$$CBIVOffMeshConnectionSet@MMAP@@@std@@@std@@@std@@@std@@@std@@@std@@QAEXIV?$_List_unchecked_iterator@V?$_List_val@U?$_List_simple_types@U?$pair@$$CBIVOffMeshConnectionSet@MMAP@@@std@@@std@@@std@@@2@@Z 10047b60 f i OffMeshManager.obj
 0001:00046c60       ?_Bump_erased@_Range_eraser@?$_Hash@V?$_Umap_traits@IVOffMeshConnectionSet@MMAP@@V?$_Uhash_compare@IU?$hash@I@std@@U?$equal_to@I@2@@std@@V?$allocator@U?$pair@$$CBIVOffMeshConnectionSet@MMAP@@@std@@@4@$0A@@std@@@std@@QAEXXZ 10047c60 f i OffMeshManager.obj
 0001:00046ca0       ?_Calculate_growth@?$vector@UOffMeshConnectionInfo@MMAP@@V?$allocator@UOffMeshConnectionInfo@MMAP@@@std@@@std@@ABEII@Z 10047ca0 f i OffMeshManager.obj
 0001:00046d20       ?_Change_array@?$vector@UOffMeshConnectionInfo@MMAP@@V?$allocator@UOffMeshConnectionInfo@MMAP@@@std@@@std@@AAEXQAUOffMeshConnectionInfo@MMAP@@II@Z 10047d20 f i OffMeshManager.obj
 0001:00046e00       ?_Check_max_size@?$_Hash@V?$_Umap_traits@IVOffMeshConnectionSet@MMAP@@V?$_Uhash_compare@IU?$hash@I@std@@U?$equal_to@I@2@@std@@V?$allocator@U?$pair@$$CBIVOffMeshConnectionSet@MMAP@@@std@@@4@$0A@@std@@@std@@IBEXXZ 10047e00 f i OffMeshManager.obj
 0001:00046e60       ?_Check_rehash_required_1@?$_Hash@V?$_Umap_traits@IVOffMeshConnectionSet@MMAP@@V?$_Uhash_compare@IU?$hash@I@std@@U?$equal_to@I@2@@std@@V?$allocator@U?$pair@$$CBIVOffMeshConnectionSet@MMAP@@@std@@@4@$0A@@std@@@std@@IBE_NXZ 10047e60 f i OffMeshManager.obj
 0001:00046f40       ?_Desired_grow_bucket_count@?$_Hash@V?$_Umap_traits@IVOffMeshConnectionSet@MMAP@@V?$_Uhash_compare@IU?$hash@I@std@@U?$equal_to@I@2@@std@@V?$allocator@U?$pair@$$CBIVOffMeshConnectionSet@MMAP@@@std@@@4@$0A@@std@@@std@@IBEII@Z 10047f40 f i OffMeshManager.obj
 0001:00046fd0       ?_Endwrite@?$basic_filebuf@DU?$char_traits@D@std@@@std@@IAE_NXZ 10047fd0 f i OffMeshManager.obj
 0001:00047180       ?_Forced_rehash@?$_Hash@V?$_Umap_traits@IVOffMeshConnectionSet@MMAP@@V?$_Uhash_compare@IU?$hash@I@std@@U?$equal_to@I@2@@std@@V?$allocator@U?$pair@$$CBIVOffMeshConnectionSet@MMAP@@@std@@@4@$0A@@std@@@std@@IAEXI@Z 10048180 f i OffMeshManager.obj
 0001:000474d0       ?_Get_first@?$_Compressed_pair@U?$default_delete@V_Facet_base@std@@@std@@PAV_Facet_base@2@$00@std@@QAEAAU?$default_delete@V_Facet_base@std@@@2@XZ 100484d0 f i OffMeshManager.obj
 0001:000474d0       ?_Get_first@?$_Compressed_pair@V?$allocator@U?$_List_node@U?$pair@$$CBIVOffMeshConnectionSet@MMAP@@@std@@PAX@std@@@std@@V?$_List_val@U?$_List_simple_types@U?$pair@$$CBIVOffMeshConnectionSet@MMAP@@@std@@@std@@@2@$00@std@@QAEAAV?$allocator@U?$_List_node@U?$pair@$$CBIVOffMeshConnectionSet@MMAP@@@std@@PAX@std@@@2@XZ 100484d0 f i OffMeshManager.obj
 0001:000474d0       ?_Get_first@?$_Compressed_pair@V?$allocator@U?$_List_node@U?$pair@$$CBIVOffMeshConnectionSet@MMAP@@@std@@PAX@std@@@std@@V?$_List_val@U?$_List_simple_types@U?$pair@$$CBIVOffMeshConnectionSet@MMAP@@@std@@@std@@@2@$00@std@@QBEABV?$allocator@U?$_List_node@U?$pair@$$CBIVOffMeshConnectionSet@MMAP@@@std@@PAX@std@@@2@XZ 100484d0 f i OffMeshManager.obj
 0001:000474d0       ?_Get_first@?$_Compressed_pair@V?$allocator@UOffMeshConnectionInfo@MMAP@@@std@@V?$_Vector_val@U?$_Simple_types@UOffMeshConnectionInfo@MMAP@@@std@@@2@$00@std@@QAEAAV?$allocator@UOffMeshConnectionInfo@MMAP@@@2@XZ 100484d0 f i OffMeshManager.obj
 0001:000474d0       ?_Get_first@?$_Compressed_pair@V?$allocator@UOffMeshConnectionInfo@MMAP@@@std@@V?$_Vector_val@U?$_Simple_types@UOffMeshConnectionInfo@MMAP@@@std@@@2@$00@std@@QBEABV?$allocator@UOffMeshConnectionInfo@MMAP@@@2@XZ 100484d0 f i OffMeshManager.obj
 0001:000474d0       ?_Get_first@?$_Compressed_pair@V?$allocator@V?$_List_unchecked_iterator@V?$_List_val@U?$_List_simple_types@U?$pair@$$CBIVOffMeshConnectionSet@MMAP@@@std@@@std@@@std@@@std@@@std@@V?$_Vector_val@U?$_Simple_types@V?$_List_unchecked_iterator@V?$_List_val@U?$_List_simple_types@U?$pair@$$CBIVOffMeshConnectionSet@MMAP@@@std@@@std@@@std@@@std@@@std@@@2@$00@std@@QAEAAV?$allocator@V?$_List_unchecked_iterator@V?$_List_val@U?$_List_simple_types@U?$pair@$$CBIVOffMeshConnectionSet@MMAP@@@std@@@std@@@std@@@std@@@2@XZ 100484d0 f i OffMeshManager.obj
 0001:000474d0       ?_Get_first@?$_Compressed_pair@V?$allocator@V?$_List_unchecked_iterator@V?$_List_val@U?$_List_simple_types@U?$pair@$$CBIVOffMeshConnectionSet@MMAP@@@std@@@std@@@std@@@std@@@std@@V?$_Vector_val@U?$_Simple_types@V?$_List_unchecked_iterator@V?$_List_val@U?$_List_simple_types@U?$pair@$$CBIVOffMeshConnectionSet@MMAP@@@std@@@std@@@std@@@std@@@std@@@2@$00@std@@QBEABV?$allocator@V?$_List_unchecked_iterator@V?$_List_val@U?$_List_simple_types@U?$pair@$$CBIVOffMeshConnectionSet@MMAP@@@std@@@std@@@std@@@std@@@2@XZ 100484d0 f i OffMeshManager.obj
 0001:00047500       ?_Getal@?$list@U?$pair@$$CBIVOffMeshConnectionSet@MMAP@@@std@@V?$allocator@U?$pair@$$CBIVOffMeshConnectionSet@MMAP@@@std@@@2@@std@@AAEAAV?$allocator@U?$_List_node@U?$pair@$$CBIVOffMeshConnectionSet@MMAP@@@std@@PAX@std@@@2@XZ 10048500 f i OffMeshManager.obj
 0001:00047500       ?_Getal@?$list@U?$pair@$$CBIVOffMeshConnectionSet@MMAP@@@std@@V?$allocator@U?$pair@$$CBIVOffMeshConnectionSet@MMAP@@@std@@@2@@std@@ABEABV?$allocator@U?$_List_node@U?$pair@$$CBIVOffMeshConnectionSet@MMAP@@@std@@PAX@std@@@2@XZ 10048500 f i OffMeshManager.obj
 0001:00047530       ?_Getal@?$vector@UOffMeshConnectionInfo@MMAP@@V?$allocator@UOffMeshConnectionInfo@MMAP@@@std@@@std@@AAEAAV?$allocator@UOffMeshConnectionInfo@MMAP@@@2@XZ 10048530 f i OffMeshManager.obj
 0001:00047530       ?_Getal@?$vector@UOffMeshConnectionInfo@MMAP@@V?$allocator@UOffMeshConnectionInfo@MMAP@@@std@@@std@@ABEABV?$allocator@UOffMeshConnectionInfo@MMAP@@@2@XZ 10048530 f i OffMeshManager.obj
 0001:00047560       ?_Getfacet@locale@std@@QBEPBVfacet@12@I@Z 10048560 f i OffMeshManager.obj
 0001:00047600       ?_Init@?$basic_filebuf@DU?$char_traits@D@std@@@std@@IAEXPAU_iobuf@@W4_Initfl@12@@Z 10048600 f i OffMeshManager.obj
 0001:00047770       ?_Initcvt@?$basic_filebuf@DU?$char_traits@D@std@@@std@@IAEXABV?$codecvt@DDU_Mbstatet@@@2@@Z 10048770 f i OffMeshManager.obj
 0001:000477f0       ?_Insert_new_node_before@?$_Hash@V?$_Umap_traits@IVOffMeshConnectionSet@MMAP@@V?$_Uhash_compare@IU?$hash@I@std@@U?$equal_to@I@2@@std@@V?$allocator@U?$pair@$$CBIVOffMeshConnectionSet@MMAP@@@std@@@4@$0A@@std@@@std@@IAEPAU?$_List_node@U?$pair@$$CBIVOffMeshConnectionSet@MMAP@@@std@@PAX@2@IQAU32@0@Z 100487f0 f i OffMeshManager.obj
 0001:00047940       ?_Lock@?$basic_filebuf@DU?$char_traits@D@std@@@std@@UAEXXZ 10048940 f i OffMeshManager.obj
 0001:00047990       ?_Make_const_iter@?$list@U?$pair@$$CBIVOffMeshConnectionSet@MMAP@@@std@@V?$allocator@U?$pair@$$CBIVOffMeshConnectionSet@MMAP@@@std@@@2@@std@@QBE?AV?$_List_const_iterator@V?$_List_val@U?$_List_simple_types@U?$pair@$$CBIVOffMeshConnectionSet@MMAP@@@std@@@std@@@std@@@2@PAU?$_List_node@U?$pair@$$CBIVOffMeshConnectionSet@MMAP@@@std@@PAX@2@@Z 10048990 f i OffMeshManager.obj
 0001:000479e0       ?_Max_bucket_size@?$_Hash@V?$_Umap_traits@IVOffMeshConnectionSet@MMAP@@V?$_Uhash_compare@IU?$hash@I@std@@U?$equal_to@I@2@@std@@V?$allocator@U?$pair@$$CBIVOffMeshConnectionSet@MMAP@@@std@@@4@$0A@@std@@@std@@IAEAAMXZ 100489e0 f i OffMeshManager.obj
 0001:000479e0       ?_Max_bucket_size@?$_Hash@V?$_Umap_traits@IVOffMeshConnectionSet@MMAP@@V?$_Uhash_compare@IU?$hash@I@std@@U?$equal_to@I@2@@std@@V?$allocator@U?$pair@$$CBIVOffMeshConnectionSet@MMAP@@@std@@@4@$0A@@std@@@std@@IBEABMXZ 100489e0 f i OffMeshManager.obj
 0001:00047a10       ?_Min_load_factor_buckets@?$_Hash@V?$_Umap_traits@IVOffMeshConnectionSet@MMAP@@V?$_Uhash_compare@IU?$hash@I@std@@U?$equal_to@I@2@@std@@V?$allocator@U?$pair@$$CBIVOffMeshConnectionSet@MMAP@@@std@@@4@$0A@@std@@@std@@IBEII@Z 10048a10 f i OffMeshManager.obj
 0001:00047ab0       ?_Orphan_non_end@?$_List_val@U?$_List_simple_types@U?$pair@$$CBIVOffMeshConnectionSet@MMAP@@@std@@@std@@@std@@QAEXXZ 10048ab0 f i OffMeshManager.obj
 0001:00047bb0       ?_Orphan_range@?$vector@UOffMeshConnectionInfo@MMAP@@V?$allocator@UOffMeshConnectionInfo@MMAP@@@std@@@std@@ABEXPAUOffMeshConnectionInfo@MMAP@@0@Z 10048bb0 f i OffMeshManager.obj
 0001:00047c10       ?_Orphan_range_locked@?$vector@UOffMeshConnectionInfo@MMAP@@V?$allocator@UOffMeshConnectionInfo@MMAP@@@std@@@std@@ABEXPAUOffMeshConnectionInfo@MMAP@@0@Z 10048c10 f i OffMeshManager.obj
 0001:00047d00       ?_Orphan_range_unlocked@?$vector@UOffMeshConnectionInfo@MMAP@@V?$allocator@UOffMeshConnectionInfo@MMAP@@@std@@@std@@ABEXPAUOffMeshConnectionInfo@MMAP@@0@Z 10048d00 f i OffMeshManager.obj
 0001:00047d90       ?_Rehash_for_1@?$_Hash@V?$_Umap_traits@IVOffMeshConnectionSet@MMAP@@V?$_Uhash_compare@IU?$hash@I@std@@U?$equal_to@I@2@@std@@V?$allocator@U?$pair@$$CBIVOffMeshConnectionSet@MMAP@@@std@@@4@$0A@@std@@@std@@IAEXXZ 10048d90 f i OffMeshManager.obj
 0001:00047df0       ?_Release@?$_Alloc_construct_ptr@V?$allocator@U?$_List_node@U?$pair@$$CBIVOffMeshConnectionSet@MMAP@@@std@@PAX@std@@@std@@@std@@QAEPAU?$_List_node@U?$pair@$$CBIVOffMeshConnectionSet@MMAP@@@std@@PAX@2@XZ 10048df0 f i OffMeshManager.obj
 0001:00047e40       ?_Release@?$_Uninitialized_backout@PAV?$_List_unchecked_iterator@V?$_List_val@U?$_List_simple_types@U?$pair@$$CBIVOffMeshConnectionSet@MMAP@@@std@@@std@@@std@@@std@@@std@@QAEPAV?$_List_unchecked_iterator@V?$_List_val@U?$_List_simple_types@U?$pair@$$CBIVOffMeshConnectionSet@MMAP@@@std@@@std@@@std@@@2@XZ 10048e40 f i OffMeshManager.obj
 0001:00047e40       ?_Release@?$_Uninitialized_backout_al@V?$allocator@UOffMeshConnectionInfo@MMAP@@@std@@@std@@QAEPAUOffMeshConnectionInfo@MMAP@@XZ 10048e40 f i OffMeshManager.obj
 0001:00047e80       ?_Reset_back@?$basic_filebuf@DU?$char_traits@D@std@@@std@@AAEXXZ 10048e80 f i OffMeshManager.obj
 0001:00047ef0       ?_Set_back@?$basic_filebuf@DU?$char_traits@D@std@@@std@@AAEXXZ 10048ef0 f i OffMeshManager.obj
 0001:00047f90       ?_Take_contents@?$_Vector_val@U?$_Simple_types@UOffMeshConnectionInfo@MMAP@@@std@@@std@@QAEXAAV12@@Z 10048f90 f i OffMeshManager.obj
 0001:00048010       ?_Throw_bad_cast@std@@YAXXZ 10049010 f i OffMeshManager.obj
 0001:00048060       ?_Tidy@?$_Hash_vec@V?$allocator@V?$_List_unchecked_iterator@V?$_List_val@U?$_List_simple_types@U?$pair@$$CBIVOffMeshConnectionSet@MMAP@@@std@@@std@@@std@@@std@@@std@@@std@@QAEXXZ 10049060 f i OffMeshManager.obj
 0001:00048100       ?_Tidy@?$list@U?$pair@$$CBIVOffMeshConnectionSet@MMAP@@@std@@V?$allocator@U?$pair@$$CBIVOffMeshConnectionSet@MMAP@@@std@@@2@@std@@AAEXXZ 10049100 f i OffMeshManager.obj
 0001:00048180       ?_Tidy@?$vector@UOffMeshConnectionInfo@MMAP@@V?$allocator@UOffMeshConnectionInfo@MMAP@@@std@@@std@@AAEXXZ 10049180 f i OffMeshManager.obj
 0001:00048250       ?_Unchecked_begin@?$_Hash@V?$_Umap_traits@IVOffMeshConnectionSet@MMAP@@V?$_Uhash_compare@IU?$hash@I@std@@U?$equal_to@I@2@@std@@V?$allocator@U?$pair@$$CBIVOffMeshConnectionSet@MMAP@@@std@@@4@$0A@@std@@@std@@QAE?AV?$_List_unchecked_iterator@V?$_List_val@U?$_List_simple_types@U?$pair@$$CBIVOffMeshConnectionSet@MMAP@@@std@@@std@@@std@@@2@XZ 10049250 f i OffMeshManager.obj
 0001:000482a0       ?_Unchecked_begin@?$list@U?$pair@$$CBIVOffMeshConnectionSet@MMAP@@@std@@V?$allocator@U?$pair@$$CBIVOffMeshConnectionSet@MMAP@@@std@@@2@@std@@QAE?AV?$_List_unchecked_iterator@V?$_List_val@U?$_List_simple_types@U?$pair@$$CBIVOffMeshConnectionSet@MMAP@@@std@@@std@@@std@@@2@XZ 100492a0 f i OffMeshManager.obj
 0001:000482e0       ?_Unchecked_begin@?$vector@UOffMeshConnectionInfo@MMAP@@V?$allocator@UOffMeshConnectionInfo@MMAP@@@std@@@std@@QBEPBUOffMeshConnectionInfo@MMAP@@XZ 100492e0 f i OffMeshManager.obj
 0001:00048320       ?_Unchecked_end@?$_Hash@V?$_Umap_traits@IVOffMeshConnectionSet@MMAP@@V?$_Uhash_compare@IU?$hash@I@std@@U?$equal_to@I@2@@std@@V?$allocator@U?$pair@$$CBIVOffMeshConnectionSet@MMAP@@@std@@@4@$0A@@std@@@std@@QAE?AV?$_List_unchecked_iterator@V?$_List_val@U?$_List_simple_types@U?$pair@$$CBIVOffMeshConnectionSet@MMAP@@@std@@@std@@@std@@@2@XZ 10049320 f i OffMeshManager.obj
 0001:00048370       ?_Unchecked_end@?$list@U?$pair@$$CBIVOffMeshConnectionSet@MMAP@@@std@@V?$allocator@U?$pair@$$CBIVOffMeshConnectionSet@MMAP@@@std@@@2@@std@@QAE?AV?$_List_unchecked_iterator@V?$_List_val@U?$_List_simple_types@U?$pair@$$CBIVOffMeshConnectionSet@MMAP@@@std@@@std@@@std@@@2@XZ 10049370 f i OffMeshManager.obj
 0001:000483b0       ?_Unchecked_end@?$vector@UOffMeshConnectionInfo@MMAP@@V?$allocator@UOffMeshConnectionInfo@MMAP@@@std@@@std@@QBEPBUOffMeshConnectionInfo@MMAP@@XZ 100493b0 f i OffMeshManager.obj
 0001:000483f0       ?_Unchecked_erase@?$_Hash@V?$_Umap_traits@IVOffMeshConnectionSet@MMAP@@V?$_Uhash_compare@IU?$hash@I@std@@U?$equal_to@I@2@@std@@V?$allocator@U?$pair@$$CBIVOffMeshConnectionSet@MMAP@@@std@@@4@$0A@@std@@@std@@AAEPAU?$_List_node@U?$pair@$$CBIVOffMeshConnectionSet@MMAP@@@std@@PAX@2@PAU32@QAU32@@Z 100493f0 f i OffMeshManager.obj
 0001:00048640       ?_Unchecked_erase@?$list@U?$pair@$$CBIVOffMeshConnectionSet@MMAP@@@std@@V?$allocator@U?$pair@$$CBIVOffMeshConnectionSet@MMAP@@@std@@@2@@std@@AAEPAU?$_List_node@U?$pair@$$CBIVOffMeshConnectionSet@MMAP@@@std@@PAX@2@PAU32@QAU32@@Z 10049640 f i OffMeshManager.obj
 0001:00048800       ?_Unchecked_splice@?$_List_val@U?$_List_simple_types@U?$pair@$$CBIVOffMeshConnectionSet@MMAP@@@std@@@std@@@std@@SAPAU?$_List_node@U?$pair@$$CBIVOffMeshConnectionSet@MMAP@@@std@@PAX@2@QAU32@00@Z 10049800 f i OffMeshManager.obj
 0001:00048890       ?_Unlock@?$basic_filebuf@DU?$char_traits@D@std@@@std@@UAEXXZ 10049890 f i OffMeshManager.obj
 0001:000488e0       ?_Xlength@?$vector@UOffMeshConnectionInfo@MMAP@@V?$allocator@UOffMeshConnectionInfo@MMAP@@@std@@@std@@CAXXZ 100498e0 f i OffMeshManager.obj
 0001:00048910       ?allocate@?$allocator@U?$_List_node@U?$pair@$$CBIVOffMeshConnectionSet@MMAP@@@std@@PAX@std@@@std@@QAEPAU?$_List_node@U?$pair@$$CBIVOffMeshConnectionSet@MMAP@@@std@@PAX@2@I@Z 10049910 f i OffMeshManager.obj
 0001:00048950       ?allocate@?$allocator@UOffMeshConnectionInfo@MMAP@@@std@@QAEPAUOffMeshConnectionInfo@MMAP@@I@Z 10049950 f i OffMeshManager.obj
 0001:00048990       ?allocate@?$allocator@V?$_List_unchecked_iterator@V?$_List_val@U?$_List_simple_types@U?$pair@$$CBIVOffMeshConnectionSet@MMAP@@@std@@@std@@@std@@@std@@@std@@QAEPAV?$_List_unchecked_iterator@V?$_List_val@U?$_List_simple_types@U?$pair@$$CBIVOffMeshConnectionSet@MMAP@@@std@@@std@@@std@@@2@I@Z 10049990 f i OffMeshManager.obj
 0001:000489d0       ?bucket@?$_Hash@V?$_Umap_traits@IVOffMeshConnectionSet@MMAP@@V?$_Uhash_compare@IU?$hash@I@std@@U?$equal_to@I@2@@std@@V?$allocator@U?$pair@$$CBIVOffMeshConnectionSet@MMAP@@@std@@@4@$0A@@std@@@std@@QBEIABI@Z 100499d0 f i OffMeshManager.obj
 0001:00048a30       ?bucket_count@?$_Hash@V?$_Umap_traits@IVOffMeshConnectionSet@MMAP@@V?$_Uhash_compare@IU?$hash@I@std@@U?$equal_to@I@2@@std@@V?$allocator@U?$pair@$$CBIVOffMeshConnectionSet@MMAP@@@std@@@4@$0A@@std@@@std@@QBEIXZ 10049a30 f i OffMeshManager.obj
 0001:00048a60       ?capacity@?$_Hash_vec@V?$allocator@V?$_List_unchecked_iterator@V?$_List_val@U?$_List_simple_types@U?$pair@$$CBIVOffMeshConnectionSet@MMAP@@@std@@@std@@@std@@@std@@@std@@@std@@QBEIXZ 10049a60 f i OffMeshManager.obj
 0001:00048aa0       ?capacity@?$vector@UOffMeshConnectionInfo@MMAP@@V?$allocator@UOffMeshConnectionInfo@MMAP@@@std@@@std@@QBEIXZ 10049aa0 f i OffMeshManager.obj
 0001:00048af0       ?clear@?$_Hash@V?$_Umap_traits@IVOffMeshConnectionSet@MMAP@@V?$_Uhash_compare@IU?$hash@I@std@@U?$equal_to@I@2@@std@@V?$allocator@U?$pair@$$CBIVOffMeshConnectionSet@MMAP@@@std@@@4@$0A@@std@@@std@@QAEXXZ 10049af0 f i OffMeshManager.obj
 0001:00048be0       ?clear@?$list@U?$pair@$$CBIVOffMeshConnectionSet@MMAP@@@std@@V?$allocator@U?$pair@$$CBIVOffMeshConnectionSet@MMAP@@@std@@@2@@std@@QAEXXZ 10049be0 f i OffMeshManager.obj
 0001:00048c70       ?close@?$basic_filebuf@DU?$char_traits@D@std@@@std@@QAEPAV12@XZ 10049c70 f i OffMeshManager.obj
 0001:00048d10       ?close@?$basic_ifstream@DU?$char_traits@D@std@@@std@@QAEXXZ 10049d10 f i OffMeshManager.obj
 0001:00048d80       ?deallocate@?$_Default_allocator_traits@V?$allocator@U?$_List_node@U?$pair@$$CBIVOffMeshConnectionSet@MMAP@@@std@@PAX@std@@@std@@@std@@SAXAAV?$allocator@U?$_List_node@U?$pair@$$CBIVOffMeshConnectionSet@MMAP@@@std@@PAX@std@@@2@QAU?$_List_node@U?$pair@$$CBIVOffMeshConnectionSet@MMAP@@@std@@PAX@2@I@Z 10049d80 f i OffMeshManager.obj
 0001:00048dd0       ?deallocate@?$allocator@U?$_List_node@U?$pair@$$CBIVOffMeshConnectionSet@MMAP@@@std@@PAX@std@@@std@@QAEXQAU?$_List_node@U?$pair@$$CBIVOffMeshConnectionSet@MMAP@@@std@@PAX@2@I@Z 10049dd0 f i OffMeshManager.obj
 0001:00048e70       ?deallocate@?$allocator@UOffMeshConnectionInfo@MMAP@@@std@@QAEXQAUOffMeshConnectionInfo@MMAP@@I@Z 10049e70 f i OffMeshManager.obj
 0001:00048f10       ?deallocate@?$allocator@V?$_List_unchecked_iterator@V?$_List_val@U?$_List_simple_types@U?$pair@$$CBIVOffMeshConnectionSet@MMAP@@@std@@@std@@@std@@@std@@@std@@QAEXQAV?$_List_unchecked_iterator@V?$_List_val@U?$_List_simple_types@U?$pair@$$CBIVOffMeshConnectionSet@MMAP@@@std@@@std@@@std@@@2@I@Z 10049f10 f i OffMeshManager.obj
 0001:00048fb0       ?end@?$_Hash@V?$_Umap_traits@IVOffMeshConnectionSet@MMAP@@V?$_Uhash_compare@IU?$hash@I@std@@U?$equal_to@I@2@@std@@V?$allocator@U?$pair@$$CBIVOffMeshConnectionSet@MMAP@@@std@@@4@$0A@@std@@@std@@QBE?AV?$_List_const_iterator@V?$_List_val@U?$_List_simple_types@U?$pair@$$CBIVOffMeshConnectionSet@MMAP@@@std@@@std@@@std@@@2@XZ 10049fb0 f i OffMeshManager.obj
 0001:00049000       ?end@?$list@U?$pair@$$CBIVOffMeshConnectionSet@MMAP@@@std@@V?$allocator@U?$pair@$$CBIVOffMeshConnectionSet@MMAP@@@std@@@2@@std@@QBE?AV?$_List_const_iterator@V?$_List_val@U?$_List_simple_types@U?$pair@$$CBIVOffMeshConnectionSet@MMAP@@@std@@@std@@@std@@@2@XZ 1004a000 f i OffMeshManager.obj
 0001:00049070       ?find@?$_Hash@V?$_Umap_traits@IVOffMeshConnectionSet@MMAP@@V?$_Uhash_compare@IU?$hash@I@std@@U?$equal_to@I@2@@std@@V?$allocator@U?$pair@$$CBIVOffMeshConnectionSet@MMAP@@@std@@@4@$0A@@std@@@std@@QBE?AV?$_List_const_iterator@V?$_List_val@U?$_List_simple_types@U?$pair@$$CBIVOffMeshConnectionSet@MMAP@@@std@@@std@@@std@@@2@ABI@Z 1004a070 f i OffMeshManager.obj
 0001:000490f0       ?front@?$basic_string@DU?$char_traits@D@std@@V?$allocator@D@2@@std@@QAEAADXZ 1004a0f0 f i OffMeshManager.obj
 0001:00049180       ?imbue@?$basic_filebuf@DU?$char_traits@D@std@@@std@@MAEXABVlocale@2@@Z 1004a180 f i OffMeshManager.obj
 0001:000491c0       ?is_open@?$basic_filebuf@DU?$char_traits@D@std@@@std@@QBE_NXZ 1004a1c0 f i OffMeshManager.obj
 0001:00049210       ?is_open@?$basic_ifstream@DU?$char_traits@D@std@@@std@@QBE_NXZ 1004a210 f i OffMeshManager.obj
 0001:00049250       ?max_load_factor@?$_Hash@V?$_Umap_traits@IVOffMeshConnectionSet@MMAP@@V?$_Uhash_compare@IU?$hash@I@std@@U?$equal_to@I@2@@std@@V?$allocator@U?$pair@$$CBIVOffMeshConnectionSet@MMAP@@@std@@@4@$0A@@std@@@std@@QBEMXZ 1004a250 f i OffMeshManager.obj
 0001:00049280       ?max_size@?$_Default_allocator_traits@V?$allocator@U?$_List_node@U?$pair@$$CBIVOffMeshConnectionSet@MMAP@@@std@@PAX@std@@@std@@@std@@SAIABV?$allocator@U?$_List_node@U?$pair@$$CBIVOffMeshConnectionSet@MMAP@@@std@@PAX@std@@@2@@Z 1004a280 f i OffMeshManager.obj
 0001:000492a0       ?max_size@?$_Default_allocator_traits@V?$allocator@UOffMeshConnectionInfo@MMAP@@@std@@@std@@SAIABV?$allocator@UOffMeshConnectionInfo@MMAP@@@2@@Z 1004a2a0 f i OffMeshManager.obj
 0001:000492c0       ?max_size@?$_Default_allocator_traits@V?$allocator@V?$_List_unchecked_iterator@V?$_List_val@U?$_List_simple_types@U?$pair@$$CBIVOffMeshConnectionSet@MMAP@@@std@@@std@@@std@@@std@@@std@@@std@@SAIABV?$allocator@V?$_List_unchecked_iterator@V?$_List_val@U?$_List_simple_types@U?$pair@$$CBIVOffMeshConnectionSet@MMAP@@@std@@@std@@@std@@@std@@@2@@Z 1004a2c0 f i OffMeshManager.obj
 0001:000492e0       ?max_size@?$_Hash_vec@V?$allocator@V?$_List_unchecked_iterator@V?$_List_val@U?$_List_simple_types@U?$pair@$$CBIVOffMeshConnectionSet@MMAP@@@std@@@std@@@std@@@std@@@std@@@std@@QBEIXZ 1004a2e0 f i OffMeshManager.obj
 0001:00049350       ?max_size@?$list@U?$pair@$$CBIVOffMeshConnectionSet@MMAP@@@std@@V?$allocator@U?$pair@$$CBIVOffMeshConnectionSet@MMAP@@@std@@@2@@std@@QBEIXZ 1004a350 f i OffMeshManager.obj
 0001:000493c0       ?max_size@?$vector@UOffMeshConnectionInfo@MMAP@@V?$allocator@UOffMeshConnectionInfo@MMAP@@@std@@@std@@QBEIXZ 1004a3c0 f i OffMeshManager.obj
 0001:00049430       ?open@?$basic_filebuf@DU?$char_traits@D@std@@@std@@QAEPAV12@PBDHH@Z 1004a430 f i OffMeshManager.obj
 0001:00049530       ?overflow@?$basic_filebuf@DU?$char_traits@D@std@@@std@@MAEHH@Z 1004a530 f i OffMeshManager.obj
 0001:000497e0       ?pbackfail@?$basic_filebuf@DU?$char_traits@D@std@@@std@@MAEHH@Z 1004a7e0 f i OffMeshManager.obj
 0001:000499a0       ?pointer_to@?$pointer_traits@PBU?$pair@$$CBIVOffMeshConnectionSet@MMAP@@@std@@@std@@SAPBU?$pair@$$CBIVOffMeshConnectionSet@MMAP@@@2@ABU32@@Z 1004a9a0 f i OffMeshManager.obj
 0001:000499d0       ?push_back@?$vector@UOffMeshConnectionInfo@MMAP@@V?$allocator@UOffMeshConnectionInfo@MMAP@@@std@@@std@@QAEXABUOffMeshConnectionInfo@MMAP@@@Z 1004a9d0 f i OffMeshManager.obj
 0001:00049a10       ?release@?$unique_ptr@V_Facet_base@std@@U?$default_delete@V_Facet_base@std@@@2@@std@@QAEPAV_Facet_base@2@XZ 1004aa10 f i OffMeshManager.obj
 0001:00049a60       ?seekoff@?$basic_filebuf@DU?$char_traits@D@std@@@std@@MAE?AV?$fpos@U_Mbstatet@@@2@_JHH@Z 1004aa60 f i OffMeshManager.obj
 0001:00049bd0       ?seekpos@?$basic_filebuf@DU?$char_traits@D@std@@@std@@MAE?AV?$fpos@U_Mbstatet@@@2@V32@H@Z 1004abd0 f i OffMeshManager.obj
 0001:00049cf0       ?setbuf@?$basic_filebuf@DU?$char_traits@D@std@@@std@@MAEPAV?$basic_streambuf@DU?$char_traits@D@std@@@2@PAD_J@Z 1004acf0 f i OffMeshManager.obj
 0001:00049da0       ?size@?$_Hash_vec@V?$allocator@V?$_List_unchecked_iterator@V?$_List_val@U?$_List_simple_types@U?$pair@$$CBIVOffMeshConnectionSet@MMAP@@@std@@@std@@@std@@@std@@@std@@@std@@QBEIXZ 1004ada0 f i OffMeshManager.obj
 0001:00049de0       ?state@?$fpos@U_Mbstatet@@@std@@QBE?AU_Mbstatet@@XZ 1004ade0 f i OffMeshManager.obj
 0001:00049e20       ?sync@?$basic_filebuf@DU?$char_traits@D@std@@@std@@MAEHXZ 1004ae20 f i OffMeshManager.obj
 0001:00049ed0       ?uflow@?$basic_filebuf@DU?$char_traits@D@std@@@std@@MAEHXZ 1004aed0 f i OffMeshManager.obj
 0001:0004a270       ?underflow@?$basic_filebuf@DU?$char_traits@D@std@@@std@@MAEHXZ 1004b270 f i OffMeshManager.obj
 0001:0004a380       ?xsgetn@?$basic_filebuf@DU?$char_traits@D@std@@@std@@MAE_JPAD_J@Z 1004b380 f i OffMeshManager.obj
 0001:0004a5b0       ?xsputn@?$basic_filebuf@DU?$char_traits@D@std@@@std@@MAE_JPBD_J@Z 1004b5b0 f i OffMeshManager.obj
 0001:0004a730       ___local_stdio_printf_options 1004b730 f i OffMeshManager.obj
 0001:0004a750       __vsprintf_s_l             1004b750 f i OffMeshManager.obj
 0001:0004a7d0       _sprintf_s                 1004b7d0 f i OffMeshManager.obj
 0001:0004a840       ??0PathFinder@@QAE@II@Z    1004b840 f   PathFinder.obj
 0001:0004aa90       ??1PathFinder@@QAE@XZ      1004ba90 f   PathFinder.obj
 0001:0004ab50       ?calculate@PathFinder@@QAE_NMMMMMM_N0@Z 1004bb50 f   PathFinder.obj
 0001:0004ad10       ?UpdateFollowing@PathFinder@@QAEHABVVector3@G3D@@H@Z 1004bd10 f   PathFinder.obj
 0001:0004b110       ?IsStuck@PathFinder@@QAE_NABVVector3@G3D@@MM@Z 1004c110 f   PathFinder.obj
 0001:0004b380       ?GetRecoveryNudge@PathFinder@@QAE?AVVector3@G3D@@ABV23@0_N@Z 1004c380 f   PathFinder.obj
 0001:0004b580       ?setIncludeFlags@PathFinder@@QAEXG@Z 1004c580 f   PathFinder.obj
 0001:0004b5e0       ?setExcludeFlags@PathFinder@@QAEXG@Z 1004c5e0 f   PathFinder.obj
 0001:0004b640       ?InitializeCorridor@PathFinder@@QAEXPBM0@Z 1004c640 f   PathFinder.obj
 0001:0004b720       ?PatchCorridor@PathFinder@@QAEX_K0PBM1@Z 1004c720 f   PathFinder.obj
 0001:0004b7a0       ?IsOffMeshWaypoint@PathFinder@@QBE_NH@Z 1004c7a0 f   PathFinder.obj
 0001:0004b850       ?GetOffMeshConnectionAt@PathFinder@@QBE_NABVVector3@G3D@@PAV23@PAEPAI@Z 1004c850 f   PathFinder.obj
 0001:0004b950       ?inRange@PathFinder@@ABE_NABVVector3@G3D@@0MM@Z 1004c950 f   PathFinder.obj
 0001:0004ba40       ?dist3DSqr@PathFinder@@ABEMABVVector3@G3D@@0@Z 1004ca40 f   PathFinder.obj
 0001:0004ba90       ?inRangeYZX@PathFinder@@ABE_NPBM0MM@Z 1004ca90 f   PathFinder.obj
 0001:0004bba0       ?getPathPolyByPosition@PathFinder@@ABE_KPB_KIPBMPAM@Z 1004cba0 f   PathFinder.obj
 0001:0004bd60       ?getPolyByLocation@PathFinder@@ABE_KPBMPAM@Z 1004cd60 f   PathFinder.obj
 0001:0004bf20       ?HaveTile@PathFinder@@ABE_NABVVector3@G3D@@@Z 1004cf20 f   PathFinder.obj
 0001:0004c1b0       ?BuildPolyPath@PathFinder@@AAEXABVVector3@G3D@@0@Z 1004d1b0 f   PathFinder.obj
 0001:0004cb20       ?BuildPointPath@PathFinder@@AAEXPBM0@Z 1004db20 f   PathFinder.obj
 0001:0004d3d0       ?BuildError@PathFinder@@AAEXXZ 1004e3d0 f   PathFinder.obj
 0001:0004d430       ?BuildShortcut@PathFinder@@AAEXXZ 1004e430 f   PathFinder.obj
 0001:0004d510       ?getNavTerrain@PathFinder@@AAE?AW4NavTerrain@@MMM@Z 1004e510 f   PathFinder.obj
 0001:0004d5e0       ?createFilter@PathFinder@@AAEXXZ 1004e5e0 f   PathFinder.obj
 0001:0004d710       ?updateFilter@PathFinder@@AAEX_NMMM@Z 1004e710 f   PathFinder.obj
 0001:0004d7b0       ?ResolveAreaType@PathFinder@@ABEE_K@Z 1004e7b0 f   PathFinder.obj
 0001:0004d8c0       ?ResolveAbilityFlags@PathFinder@@ABEE_K@Z 1004e8c0 f   PathFinder.obj
 0001:0004d9c0       ?fixupCorridor@PathFinder@@AAEIPA_KIIPB_KI@Z 1004e9c0 f   PathFinder.obj
 0001:0004db90       ?getSteerTarget@PathFinder@@AAE_NPBM0MPB_KIPAMAAEAA_K@Z 1004eb90 f   PathFinder.obj
 0001:0004dd80       ?findSmoothPath@PathFinder@@AAEIPBM0PB_KIPAMPAHI@Z 1004ed80 f   PathFinder.obj
 0001:0004e630       ?SetFailureStatus@PathFinder@@AAEXW4NavPathFindStep@@I@Z 1004f630 f   PathFinder.obj
 0001:0004e6b0       ?ApplyDtStatus@PathFinder@@AAEXIW4NavPathFindStep@@@Z 1004f6b0 f   PathFinder.obj
 0001:0004e740       ??$?0$$V@?$_Compressed_pair@V?$allocator@E@std@@V?$_Vector_val@U?$_Simple_types@E@std@@@2@$00@std@@QAE@U_Zero_then_variadic_args_t@1@@Z 1004f740 f i PathFinder.obj
 0001:0004e740       ??$?0$$V@?$_Compressed_pair@V?$allocator@W4StraightPathFlags@@@std@@V?$_Vector_val@U?$_Simple_types@W4StraightPathFlags@@@std@@@2@$00@std@@QAE@U_Zero_then_variadic_args_t@1@@Z 1004f740 f i PathFinder.obj
 0001:0004e780       ??$?0$$V@?$_Compressed_pair@V?$allocator@VVector3@G3D@@@std@@V?$_Vector_val@U?$_Simple_types@VVector3@G3D@@@std@@@2@$00@std@@QAE@U_Zero_then_variadic_args_t@1@@Z 1004f780 f i PathFinder.obj
 0001:0004e7c0       ??$?0$$V@?$_Compressed_pair@V?$allocator@_K@std@@V?$_Vector_val@U?$_Simple_types@_K@std@@@2@$00@std@@QAE@U_Zero_then_variadic_args_t@1@@Z 1004f7c0 f i PathFinder.obj
 0001:0004e800       ??$?0ABV?$allocator@E@std@@$$V@?$_Compressed_pair@V?$allocator@E@std@@V?$_Vector_val@U?$_Simple_types@E@std@@@2@$00@std@@QAE@U_One_then_variadic_args_t@1@ABV?$allocator@E@1@@Z 1004f800 f i PathFinder.obj
 0001:0004e840       ??$?0E@?$allocator@U_Container_proxy@std@@@std@@QAE@ABV?$allocator@E@1@@Z 1004f840 f i PathFinder.obj
 0001:0004e840       ??$?0W4StraightPathFlags@@@?$allocator@U_Container_proxy@std@@@std@@QAE@ABV?$allocator@W4StraightPathFlags@@@1@@Z 1004f840 f i PathFinder.obj
 0001:0004e870       ??$_Adl_verify_range@V?$_Vector_iterator@V?$_Vector_val@U?$_Simple_types@_K@std@@@std@@@std@@V12@@std@@YAXABV?$_Vector_iterator@V?$_Vector_val@U?$_Simple_types@_K@std@@@std@@@0@0@Z 1004f870 f i PathFinder.obj
 0001:0004e8a0       ??$_Allocate_at_least_helper@V?$allocator@E@std@@@std@@YAPAEAAV?$allocator@E@0@AAI@Z 1004f8a0 f i PathFinder.obj
 0001:0004e8a0       ??$_Allocate_at_least_helper@V?$allocator@W4StraightPathFlags@@@std@@@std@@YAPAW4StraightPathFlags@@AAV?$allocator@W4StraightPathFlags@@@0@AAI@Z 1004f8a0 f i PathFinder.obj
 0001:0004e8d0       ??$_Assign_counted_range@PA_K@?$vector@_KV?$allocator@_K@std@@@std@@AAEXPA_KI@Z 1004f8d0 f i PathFinder.obj
 0001:0004ea80       ??$_Construct_n@$$V@?$vector@EV?$allocator@E@std@@@std@@AAEXI@Z 1004fa80 f i PathFinder.obj
 0001:0004ebe0       ??$_Construct_n@$$V@?$vector@MV?$allocator@M@std@@@std@@AAEXI@Z 1004fbe0 f i PathFinder.obj
 0001:0004ed40       ??$_Construct_n@$$V@?$vector@_KV?$allocator@_K@std@@@std@@AAEXI@Z 1004fd40 f i PathFinder.obj
 0001:0004eea0       ??$_Copy_memmove@PAEPAE@std@@YAPAEPAE00@Z 1004fea0 f i PathFinder.obj
 0001:0004eea0       ??$_Copy_memmove@PAW4StraightPathFlags@@PAW41@@std@@YAPAW4StraightPathFlags@@PAW41@00@Z 1004fea0 f i PathFinder.obj
 0001:0004ef30       ??$_Copy_memmove_n@PA_KPA_K@std@@YAPA_KPA_KI0@Z 1004ff30 f i PathFinder.obj
 0001:0004efa0       ??$_Copy_memmove_tail@PAE@std@@YAPAEQBDQAEII@Z 1004ffa0 f i PathFinder.obj
 0001:0004efa0       ??$_Copy_memmove_tail@PAW4StraightPathFlags@@@std@@YAPAW4StraightPathFlags@@QBDQAW41@II@Z 1004ffa0 f i PathFinder.obj
 0001:0004f000       ??$_Copy_memmove_tail@PA_K@std@@YAPA_KQBDQA_KII@Z 10050000 f i PathFinder.obj
 0001:0004f060       ??$_Copy_n_unchecked4@PA_KIPA_K@std@@YAPA_KPA_KI0@Z 10050060 f i PathFinder.obj
 0001:0004f0e0       ??$_Destroy_range@V?$allocator@E@std@@@std@@YAXPAEQAEAAV?$allocator@E@0@@Z 100500e0 f i PathFinder.obj
 0001:0004f0e0       ??$_Destroy_range@V?$allocator@W4StraightPathFlags@@@std@@@std@@YAXPAW4StraightPathFlags@@QAW41@AAV?$allocator@W4StraightPathFlags@@@0@@Z 100500e0 f i PathFinder.obj
 0001:0004f0e0       ??$destroy_at@VVector3@G3D@@@std@@YAXQAVVector3@G3D@@@Z 100500e0 f i PathFinder.obj
 0001:0004f100       ??$_Emplace_back@$$V@?$_Uninitialized_backout_al@V?$allocator@E@std@@@std@@QAEXXZ 10050100 f i PathFinder.obj
 0001:0004f100       ??$_Emplace_back@$$V@?$_Uninitialized_backout_al@V?$allocator@W4StraightPathFlags@@@std@@@std@@QAEXXZ 10050100 f i PathFinder.obj
 0001:0004f170       ??$_Emplace_back@$$V@?$_Uninitialized_backout_al@V?$allocator@M@std@@@std@@QAEXXZ 10050170 f i PathFinder.obj
 0001:0004f1e0       ??$_Emplace_back@$$V@?$_Uninitialized_backout_al@V?$allocator@VVector3@G3D@@@std@@@std@@QAEXXZ 100501e0 f i PathFinder.obj
 0001:0004f250       ??$_Emplace_back@$$V@?$_Uninitialized_backout_al@V?$allocator@_K@std@@@std@@QAEXXZ 10050250 f i PathFinder.obj
 0001:0004f2c0       ??$_Emplace_back@AA_K@?$_Uninitialized_backout_al@V?$allocator@_K@std@@@std@@QAEXAA_K@Z 100502c0 f i PathFinder.obj
 0001:0004f340       ??$_Emplace_back@E@?$_Uninitialized_backout_al@V?$allocator@E@std@@@std@@QAEX$$QAE@Z 10050340 f i PathFinder.obj
 0001:0004f340       ??$_Emplace_back@W4StraightPathFlags@@@?$_Uninitialized_backout_al@V?$allocator@W4StraightPathFlags@@@std@@@std@@QAEX$$QAW4StraightPathFlags@@@Z 10050340 f i PathFinder.obj
 0001:0004f3c0       ??$_Emplace_back@VVector3@G3D@@@?$_Uninitialized_backout_al@V?$allocator@VVector3@G3D@@@std@@@std@@QAEX$$QAVVector3@G3D@@@Z 100503c0 f i PathFinder.obj
 0001:0004f440       ??$_Get_unwrapped@AAV?$_Vector_iterator@V?$_Vector_val@U?$_Simple_types@_K@std@@@std@@@std@@@std@@YA?A_TAAV?$_Vector_iterator@V?$_Vector_val@U?$_Simple_types@_K@std@@@std@@@0@@Z 10050440 f i PathFinder.obj
 0001:0004f460       ??$_Get_unwrapped@ABQAE@std@@YA?A_TABQAE@Z 10050460 f i PathFinder.obj
 0001:0004f460       ??$_Get_unwrapped@ABQAVVector3@G3D@@@std@@YA?A_TABQAVVector3@G3D@@@Z 10050460 f i PathFinder.obj
 0001:0004f460       ??$_Get_unwrapped@ABQAW4StraightPathFlags@@@std@@YA?A_TABQAW4StraightPathFlags@@@Z 10050460 f i PathFinder.obj
 0001:0004f460       ??$_Get_unwrapped@PA_K@std@@YA?A_T$$QAPA_K@Z 10050460 f i PathFinder.obj
 0001:0004f480       ??$_Move_unchecked@PAVVector3@G3D@@PAV12@@std@@YAPAVVector3@G3D@@PAV12@00@Z 10050480 f i PathFinder.obj
 0001:0004f4d0       ??$_Resize@U_Value_init_tag@std@@@?$vector@EV?$allocator@E@std@@@std@@AAEXIABU_Value_init_tag@1@@Z 100504d0 f i PathFinder.obj
 0001:0004f4d0       ??$_Resize@U_Value_init_tag@std@@@?$vector@W4StraightPathFlags@@V?$allocator@W4StraightPathFlags@@@std@@@std@@AAEXIABU_Value_init_tag@1@@Z 100504d0 f i PathFinder.obj
 0001:0004f5f0       ??$_Resize@U_Value_init_tag@std@@@?$vector@VVector3@G3D@@V?$allocator@VVector3@G3D@@@std@@@std@@AAEXIABU_Value_init_tag@1@@Z 100505f0 f i PathFinder.obj
 0001:0004f720       ??$_Resize_reallocate@U_Value_init_tag@std@@@?$vector@EV?$allocator@E@std@@@std@@AAEXIABU_Value_init_tag@1@@Z 10050720 f i PathFinder.obj
 0001:0004f720       ??$_Resize_reallocate@U_Value_init_tag@std@@@?$vector@W4StraightPathFlags@@V?$allocator@W4StraightPathFlags@@@std@@@std@@AAEXIABU_Value_init_tag@1@@Z 10050720 f i PathFinder.obj
 0001:0004f8d0       ??$_Resize_reallocate@U_Value_init_tag@std@@@?$vector@VVector3@G3D@@V?$allocator@VVector3@G3D@@@std@@@std@@AAEXIABU_Value_init_tag@1@@Z 100508d0 f i PathFinder.obj
 0001:0004fa90       ??$_To_address@PAE@std@@YA?A_PABQAE@Z 10050a90 f i PathFinder.obj
 0001:0004fa90       ??$_To_address@PAW4StraightPathFlags@@@std@@YA?A_PABQAW4StraightPathFlags@@@Z 10050a90 f i PathFinder.obj
 0001:0004fac0       ??$_Unfancy@E@std@@YAPAEPAE@Z 10050ac0 f i PathFinder.obj
 0001:0004fac0       ??$_Unfancy@W4StraightPathFlags@@@std@@YAPAW4StraightPathFlags@@PAW41@@Z 10050ac0 f i PathFinder.obj
 0001:0004fac0       ??$_Unfancy_maybe_null@E@std@@YAPAEPAE@Z 10050ac0 f i PathFinder.obj
 0001:0004fae0       ??$_Uninitialized_copy_n@PA_KV?$allocator@_K@std@@@std@@YAPA_KPA_KI0AAV?$allocator@_K@0@@Z 10050ae0 f i PathFinder.obj
 0001:0004fc40       ??$_Uninitialized_move@PAEV?$allocator@E@std@@@std@@YAPAEQAE0PAEAAV?$allocator@E@0@@Z 10050c40 f i PathFinder.obj
 0001:0004fc40       ??$_Uninitialized_move@PAW4StraightPathFlags@@V?$allocator@W4StraightPathFlags@@@std@@@std@@YAPAW4StraightPathFlags@@QAW41@0PAW41@AAV?$allocator@W4StraightPathFlags@@@0@@Z 10050c40 f i PathFinder.obj
 0001:0004fda0       ??$_Uninitialized_move@PAVVector3@G3D@@V?$allocator@VVector3@G3D@@@std@@@std@@YAPAVVector3@G3D@@QAV12@0PAV12@AAV?$allocator@VVector3@G3D@@@0@@Z 10050da0 f i PathFinder.obj
 0001:0004ff10       ??$_Uninitialized_value_construct_n@V?$allocator@E@std@@@std@@YAPAEPAEIAAV?$allocator@E@0@@Z 10050f10 f i PathFinder.obj
 0001:0004ff10       ??$_Uninitialized_value_construct_n@V?$allocator@W4StraightPathFlags@@@std@@@std@@YAPAW4StraightPathFlags@@PAW41@IAAV?$allocator@W4StraightPathFlags@@@0@@Z 10050f10 f i PathFinder.obj
 0001:00050050       ??$_Uninitialized_value_construct_n@V?$allocator@M@std@@@std@@YAPAMPAMIAAV?$allocator@M@0@@Z 10051050 f i PathFinder.obj
 0001:00050190       ??$_Uninitialized_value_construct_n@V?$allocator@VVector3@G3D@@@std@@@std@@YAPAVVector3@G3D@@PAV12@IAAV?$allocator@VVector3@G3D@@@0@@Z 10051190 f i PathFinder.obj
 0001:00050290       ??$_Uninitialized_value_construct_n@V?$allocator@_K@std@@@std@@YAPA_KPA_KIAAV?$allocator@_K@0@@Z 10051290 f i PathFinder.obj
 0001:000503d0       ??$_Zero_range@PAE@std@@YAPAEQAE0@Z 100513d0 f i PathFinder.obj
 0001:000503d0       ??$_Zero_range@PAW4StraightPathFlags@@@std@@YAPAW4StraightPathFlags@@QAW41@0@Z 100513d0 f i PathFinder.obj
 0001:00050440       ??$_Zero_range@PAM@std@@YAPAMQAM0@Z 10051440 f i PathFinder.obj
 0001:000504b0       ??$_Zero_range@PA_K@std@@YAPA_KQA_K0@Z 100514b0 f i PathFinder.obj
 0001:00050520       ??$addressof@V?$_Vector_val@U?$_Simple_types@VVector3@G3D@@@std@@@std@@@std@@YAPAV?$_Vector_val@U?$_Simple_types@VVector3@G3D@@@std@@@0@AAV10@@Z 10051520 f i PathFinder.obj
 0001:00050520       ??$addressof@V?$_Vector_val@U?$_Simple_types@_K@std@@@std@@@std@@YAPAV?$_Vector_val@U?$_Simple_types@_K@std@@@0@AAV10@@Z 10051520 f i PathFinder.obj
 0001:00050540       ??$assign@V?$_Vector_iterator@V?$_Vector_val@U?$_Simple_types@_K@std@@@std@@@std@@$0A@@?$vector@_KV?$allocator@_K@std@@@std@@QAEXV?$_Vector_iterator@V?$_Vector_val@U?$_Simple_types@_K@std@@@std@@@1@0@Z 10051540 f i PathFinder.obj
 0001:00050630       ??$construct@E$$V@?$_Default_allocator_traits@V?$allocator@E@std@@@std@@SAXAAV?$allocator@E@1@QAE@Z 10051630 f i PathFinder.obj
 0001:00050630       ??$construct@W4StraightPathFlags@@$$V@?$_Default_allocator_traits@V?$allocator@W4StraightPathFlags@@@std@@@std@@SAXAAV?$allocator@W4StraightPathFlags@@@1@QAW4StraightPathFlags@@@Z 10051630 f i PathFinder.obj
 0001:00050660       ??$construct@EE@?$_Default_allocator_traits@V?$allocator@E@std@@@std@@SAXAAV?$allocator@E@1@QAE$$QAE@Z 10051660 f i PathFinder.obj
 0001:00050660       ??$construct@W4StraightPathFlags@@W41@@?$_Default_allocator_traits@V?$allocator@W4StraightPathFlags@@@std@@@std@@SAXAAV?$allocator@W4StraightPathFlags@@@1@QAW4StraightPathFlags@@$$QAW43@@Z 10051660 f i PathFinder.obj
 0001:00050690       ??$construct@M$$V@?$_Default_allocator_traits@V?$allocator@M@std@@@std@@SAXAAV?$allocator@M@1@QAM@Z 10051690 f i PathFinder.obj
 0001:000506c0       ??$construct@VVector3@G3D@@$$V@?$_Default_allocator_traits@V?$allocator@VVector3@G3D@@@std@@@std@@SAXAAV?$allocator@VVector3@G3D@@@1@QAVVector3@G3D@@@Z 100516c0 f i PathFinder.obj
 0001:000506f0       ??$construct@VVector3@G3D@@V12@@?$_Default_allocator_traits@V?$allocator@VVector3@G3D@@@std@@@std@@SAXAAV?$allocator@VVector3@G3D@@@1@QAVVector3@G3D@@$$QAV34@@Z 100516f0 f i PathFinder.obj
 0001:00050720       ??$construct@_K$$V@?$_Default_allocator_traits@V?$allocator@_K@std@@@std@@SAXAAV?$allocator@_K@1@QA_K@Z 10051720 f i PathFinder.obj
 0001:00050750       ??$construct@_KAA_K@?$_Default_allocator_traits@V?$allocator@_K@std@@@std@@SAXAAV?$allocator@_K@1@QA_KAA_K@Z 10051750 f i PathFinder.obj
 0001:00050780       ??$construct_at@E$$V@std@@YAPAEQAE@Z 10051780 f i PathFinder.obj
 0001:00050780       ??$construct_at@W4StraightPathFlags@@$$V@std@@YAPAW4StraightPathFlags@@QAW41@@Z 10051780 f i PathFinder.obj
 0001:000507e0       ??$construct_at@EE@std@@YAPAEQAE$$QAE@Z 100517e0 f i PathFinder.obj
 0001:000507e0       ??$construct_at@W4StraightPathFlags@@W41@@std@@YAPAW4StraightPathFlags@@QAW41@$$QAW41@@Z 100517e0 f i PathFinder.obj
 0001:00050830       ??$construct_at@M$$V@std@@YAPAMQAM@Z 10051830 f i PathFinder.obj
 0001:00050890       ??$construct_at@VVector3@G3D@@$$V@std@@YAPAVVector3@G3D@@QAV12@@Z 10051890 f i PathFinder.obj
 0001:000508d0       ??$construct_at@VVector3@G3D@@V12@@std@@YAPAVVector3@G3D@@QAV12@$$QAV12@@Z 100518d0 f i PathFinder.obj
 0001:00050920       ??$construct_at@_K$$V@std@@YAPA_KQA_K@Z 10051920 f i PathFinder.obj
 0001:00050980       ??$construct_at@_KAA_K@std@@YAPA_KQA_KAA_K@Z 10051980 f i PathFinder.obj
 0001:000509d0       ??$destroy@VVector3@G3D@@@?$_Default_allocator_traits@V?$allocator@VVector3@G3D@@@std@@@std@@SAXAAV?$allocator@VVector3@G3D@@@1@QAVVector3@G3D@@@Z 100519d0 f i PathFinder.obj
 0001:00050a00       ??$distance@PA_K@std@@YAHPA_K0@Z 10051a00 f i PathFinder.obj
 0001:00050a20       ??$to_address@E@std@@YAPAEQAE@Z 10051a20 f i PathFinder.obj
 0001:00050a20       ??$to_address@W4StraightPathFlags@@@std@@YAPAW4StraightPathFlags@@QAW41@@Z 10051a20 f i PathFinder.obj
 0001:00050a40       ??0?$_Uninitialized_backout_al@V?$allocator@E@std@@@std@@QAE@PAEAAV?$allocator@E@1@@Z 10051a40 f i PathFinder.obj
 0001:00050a40       ??0?$_Uninitialized_backout_al@V?$allocator@W4StraightPathFlags@@@std@@@std@@QAE@PAW4StraightPathFlags@@AAV?$allocator@W4StraightPathFlags@@@1@@Z 10051a40 f i PathFinder.obj
 0001:00050a90       ??0?$_Vector_const_iterator@V?$_Vector_val@U?$_Simple_types@VVector3@G3D@@@std@@@std@@@std@@QAE@PAVVector3@G3D@@PBU_Container_base12@1@@Z 10051a90 f i PathFinder.obj
 0001:00050a90       ??0?$_Vector_const_iterator@V?$_Vector_val@U?$_Simple_types@_K@std@@@std@@@std@@QAE@PA_KPBU_Container_base12@1@@Z 10051a90 f i PathFinder.obj
 0001:00050ae0       ??0?$_Vector_iterator@V?$_Vector_val@U?$_Simple_types@VVector3@G3D@@@std@@@std@@@std@@QAE@PAVVector3@G3D@@PBU_Container_base12@1@@Z 10051ae0 f i PathFinder.obj
 0001:00050ae0       ??0?$_Vector_iterator@V?$_Vector_val@U?$_Simple_types@_K@std@@@std@@@std@@QAE@PA_KPBU_Container_base12@1@@Z 10051ae0 f i PathFinder.obj
 0001:00050b20       ??0?$_Vector_val@U?$_Simple_types@E@std@@@std@@QAE@XZ 10051b20 f i PathFinder.obj
 0001:00050b20       ??0?$_Vector_val@U?$_Simple_types@W4StraightPathFlags@@@std@@@std@@QAE@XZ 10051b20 f i PathFinder.obj
 0001:00050b70       ??0?$allocator@E@std@@QAE@XZ 10051b70 f i PathFinder.obj
 0001:00050b70       ??0?$allocator@VVector3@G3D@@@std@@QAE@XZ 10051b70 f i PathFinder.obj
 0001:00050b70       ??0?$allocator@W4StraightPathFlags@@@std@@QAE@XZ 10051b70 f i PathFinder.obj
 0001:00050ba0       ??0?$basic_ofstream@DU?$char_traits@D@std@@@std@@QAE@XZ 10051ba0 f i PathFinder.obj
 0001:00050cb0       ??0?$vector@EV?$allocator@E@std@@@std@@QAE@IABV?$allocator@E@1@@Z 10051cb0 f i PathFinder.obj
 0001:00050d20       ??0?$vector@EV?$allocator@E@std@@@std@@QAE@XZ 10051d20 f i PathFinder.obj
 0001:00050d20       ??0?$vector@W4StraightPathFlags@@V?$allocator@W4StraightPathFlags@@@std@@@std@@QAE@XZ 10051d20 f i PathFinder.obj
 0001:00050dc0       ??0?$vector@MV?$allocator@M@std@@@std@@QAE@IABV?$allocator@M@1@@Z 10051dc0 f i PathFinder.obj
 0001:00050e30       ??0?$vector@VVector3@G3D@@V?$allocator@VVector3@G3D@@@std@@@std@@QAE@XZ 10051e30 f i PathFinder.obj
 0001:00050ed0       ??0?$vector@_KV?$allocator@_K@std@@@std@@QAE@IABV?$allocator@_K@1@@Z 10051ed0 f i PathFinder.obj
 0001:00050f40       ??0?$vector@_KV?$allocator@_K@std@@@std@@QAE@XZ 10051f40 f i PathFinder.obj
 0001:00050fe0       ??1?$_Tidy_guard@V?$vector@EV?$allocator@E@std@@@std@@@std@@QAE@XZ 10051fe0 f i PathFinder.obj
 0001:00051020       ??1?$_Uninitialized_backout_al@V?$allocator@E@std@@@std@@QAE@XZ 10052020 f i PathFinder.obj
 0001:00051020       ??1?$_Uninitialized_backout_al@V?$allocator@W4StraightPathFlags@@@std@@@std@@QAE@XZ 10052020 f i PathFinder.obj
 0001:00051070       ??1?$basic_ofstream@DU?$char_traits@D@std@@@std@@UAE@XZ 10052070 f i PathFinder.obj
 0001:000510f0       ??1?$vector@EV?$allocator@E@std@@@std@@QAE@XZ 100520f0 f i PathFinder.obj
 0001:000511b0       ??1?$vector@W4StraightPathFlags@@V?$allocator@W4StraightPathFlags@@@std@@@std@@QAE@XZ 100521b0 f i PathFinder.obj
 0001:00051270       ??1_Reallocation_guard@?$vector@EV?$allocator@E@std@@@std@@QAE@XZ 10052270 f i PathFinder.obj
 0001:00051270       ??1_Reallocation_guard@?$vector@W4StraightPathFlags@@V?$allocator@W4StraightPathFlags@@@std@@@std@@QAE@XZ 10052270 f i PathFinder.obj
 0001:000512f0       ??1_Reallocation_guard@?$vector@VVector3@G3D@@V?$allocator@VVector3@G3D@@@std@@@std@@QAE@XZ 100522f0 f i PathFinder.obj
 0001:00051370       ??A?$vector@EV?$allocator@E@std@@@std@@QAEAAEI@Z 10052370 f i PathFinder.obj
 0001:00051370       ??A?$vector@W4StraightPathFlags@@V?$allocator@W4StraightPathFlags@@@std@@@std@@QAEAAW4StraightPathFlags@@I@Z 10052370 f i PathFinder.obj
 0001:00051410       ??GVector3@G3D@@QBI?AV01@ABV01@@Z 10052410 f i PathFinder.obj
 0001:00051490       ??H?$_Vector_iterator@V?$_Vector_val@U?$_Simple_types@VVector3@G3D@@@std@@@std@@@std@@QBE?AV01@H@Z 10052490 f i PathFinder.obj
 0001:00051530       ??H?$_Vector_iterator@V?$_Vector_val@U?$_Simple_types@_K@std@@@std@@@std@@QBE?AV01@H@Z 10052530 f i PathFinder.obj
 0001:000515d0       ??Y?$_Vector_const_iterator@V?$_Vector_val@U?$_Simple_types@VVector3@G3D@@@std@@@std@@@std@@QAEAAV01@H@Z 100525d0 f i PathFinder.obj
 0001:00051620       ??Y?$_Vector_const_iterator@V?$_Vector_val@U?$_Simple_types@_K@std@@@std@@@std@@QAEAAV01@H@Z 10052620 f i PathFinder.obj
 0001:00051670       ??Y?$_Vector_iterator@V?$_Vector_val@U?$_Simple_types@VVector3@G3D@@@std@@@std@@@std@@QAEAAV01@H@Z 10052670 f i PathFinder.obj
 0001:000516b0       ??Y?$_Vector_iterator@V?$_Vector_val@U?$_Simple_types@_K@std@@@std@@@std@@QAEAAV01@H@Z 100526b0 f i PathFinder.obj
 0001:000516f0       ??_D?$basic_ofstream@DU?$char_traits@D@std@@@std@@QAEXXZ 100526f0 f i PathFinder.obj
 0001:0005172f       ??_E?$basic_ofstream@DU?$char_traits@D@std@@@std@@$4PPPPPPPM@A@AEPAXI@Z 1005272f f i PathFinder.obj
 0001:00051740       ??_E?$basic_ofstream@DU?$char_traits@D@std@@@std@@UAEPAXI@Z 10052740 f i PathFinder.obj
 0001:00051740       ??_G?$basic_ofstream@DU?$char_traits@D@std@@@std@@UAEPAXI@Z 10052740 f i PathFinder.obj
 0001:00051790       ?_Buy_nonzero@?$vector@EV?$allocator@E@std@@@std@@AAEXI@Z 10052790 f i PathFinder.obj
 0001:000517e0       ?_Buy_raw@?$vector@EV?$allocator@E@std@@@std@@AAEXI@Z 100527e0 f i PathFinder.obj
 0001:00051870       ?_Calculate_growth@?$vector@EV?$allocator@E@std@@@std@@ABEII@Z 10052870 f i PathFinder.obj
 0001:00051870       ?_Calculate_growth@?$vector@W4StraightPathFlags@@V?$allocator@W4StraightPathFlags@@@std@@@std@@ABEII@Z 10052870 f i PathFinder.obj
 0001:000518f0       ?_Calculate_growth@?$vector@VVector3@G3D@@V?$allocator@VVector3@G3D@@@std@@@std@@ABEII@Z 100528f0 f i PathFinder.obj
 0001:00051970       ?_Calculate_growth@?$vector@_KV?$allocator@_K@std@@@std@@ABEII@Z 10052970 f i PathFinder.obj
 0001:000519f0       ?_Change_array@?$vector@EV?$allocator@E@std@@@std@@AAEXQAEII@Z 100529f0 f i PathFinder.obj
 0001:000519f0       ?_Change_array@?$vector@W4StraightPathFlags@@V?$allocator@W4StraightPathFlags@@@std@@@std@@AAEXQAW4StraightPathFlags@@II@Z 100529f0 f i PathFinder.obj
 0001:00051ac0       ?_Change_array@?$vector@VVector3@G3D@@V?$allocator@VVector3@G3D@@@std@@@std@@AAEXQAVVector3@G3D@@II@Z 10052ac0 f i PathFinder.obj
 0001:00051ba0       ?_Clear_and_reserve_geometric@?$vector@_KV?$allocator@_K@std@@@std@@AAEXI@Z 10052ba0 f i PathFinder.obj
 0001:00051c90       ?_Get_first@?$_Compressed_pair@V?$allocator@E@std@@V?$_Vector_val@U?$_Simple_types@E@std@@@2@$00@std@@QAEAAV?$allocator@E@2@XZ 10052c90 f i PathFinder.obj
 0001:00051c90       ?_Get_first@?$_Compressed_pair@V?$allocator@E@std@@V?$_Vector_val@U?$_Simple_types@E@std@@@2@$00@std@@QBEABV?$allocator@E@2@XZ 10052c90 f i PathFinder.obj
 0001:00051c90       ?_Get_first@?$_Compressed_pair@V?$allocator@W4StraightPathFlags@@@std@@V?$_Vector_val@U?$_Simple_types@W4StraightPathFlags@@@std@@@2@$00@std@@QAEAAV?$allocator@W4StraightPathFlags@@@2@XZ 10052c90 f i PathFinder.obj
 0001:00051c90       ?_Get_first@?$_Compressed_pair@V?$allocator@W4StraightPathFlags@@@std@@V?$_Vector_val@U?$_Simple_types@W4StraightPathFlags@@@std@@@2@$00@std@@QBEABV?$allocator@W4StraightPathFlags@@@2@XZ 10052c90 f i PathFinder.obj
 0001:00051cc0       ?_Getal@?$vector@EV?$allocator@E@std@@@std@@AAEAAV?$allocator@E@2@XZ 10052cc0 f i PathFinder.obj
 0001:00051cc0       ?_Getal@?$vector@EV?$allocator@E@std@@@std@@ABEABV?$allocator@E@2@XZ 10052cc0 f i PathFinder.obj
 0001:00051cc0       ?_Getal@?$vector@W4StraightPathFlags@@V?$allocator@W4StraightPathFlags@@@std@@@std@@AAEAAV?$allocator@W4StraightPathFlags@@@2@XZ 10052cc0 f i PathFinder.obj
 0001:00051cc0       ?_Getal@?$vector@W4StraightPathFlags@@V?$allocator@W4StraightPathFlags@@@std@@@std@@ABEABV?$allocator@W4StraightPathFlags@@@2@XZ 10052cc0 f i PathFinder.obj
 0001:00051cf0       ?_Orphan_range@?$vector@EV?$allocator@E@std@@@std@@ABEXPAE0@Z 10052cf0 f i PathFinder.obj
 0001:00051cf0       ?_Orphan_range@?$vector@VVector3@G3D@@V?$allocator@VVector3@G3D@@@std@@@std@@ABEXPAVVector3@G3D@@0@Z 10052cf0 f i PathFinder.obj
 0001:00051cf0       ?_Orphan_range@?$vector@W4StraightPathFlags@@V?$allocator@W4StraightPathFlags@@@std@@@std@@ABEXPAW4StraightPathFlags@@0@Z 10052cf0 f i PathFinder.obj
 0001:00051d50       ?_Orphan_range_locked@?$vector@EV?$allocator@E@std@@@std@@ABEXPAE0@Z 10052d50 f i PathFinder.obj
 0001:00051d50       ?_Orphan_range_locked@?$vector@VVector3@G3D@@V?$allocator@VVector3@G3D@@@std@@@std@@ABEXPAVVector3@G3D@@0@Z 10052d50 f i PathFinder.obj
 0001:00051d50       ?_Orphan_range_locked@?$vector@W4StraightPathFlags@@V?$allocator@W4StraightPathFlags@@@std@@@std@@ABEXPAW4StraightPathFlags@@0@Z 10052d50 f i PathFinder.obj
 0001:00051e40       ?_Orphan_range_unlocked@?$vector@EV?$allocator@E@std@@@std@@ABEXPAE0@Z 10052e40 f i PathFinder.obj
 0001:00051e40       ?_Orphan_range_unlocked@?$vector@VVector3@G3D@@V?$allocator@VVector3@G3D@@@std@@@std@@ABEXPAVVector3@G3D@@0@Z 10052e40 f i PathFinder.obj
 0001:00051e40       ?_Orphan_range_unlocked@?$vector@W4StraightPathFlags@@V?$allocator@W4StraightPathFlags@@@std@@@std@@ABEXPAW4StraightPathFlags@@0@Z 10052e40 f i PathFinder.obj
 0001:00051ed0       ?_Release@?$_Uninitialized_backout_al@V?$allocator@E@std@@@std@@QAEPAEXZ 10052ed0 f i PathFinder.obj
 0001:00051ed0       ?_Release@?$_Uninitialized_backout_al@V?$allocator@W4StraightPathFlags@@@std@@@std@@QAEPAW4StraightPathFlags@@XZ 10052ed0 f i PathFinder.obj
 0001:00051f10       ?_Tidy@?$vector@EV?$allocator@E@std@@@std@@AAEXXZ 10052f10 f i PathFinder.obj
 0001:00051f10       ?_Tidy@?$vector@W4StraightPathFlags@@V?$allocator@W4StraightPathFlags@@@std@@@std@@AAEXXZ 10052f10 f i PathFinder.obj
 0001:00051fe0       ?_Unwrapped@?$_Vector_iterator@V?$_Vector_val@U?$_Simple_types@_K@std@@@std@@@std@@QBEPA_KXZ 10052fe0 f i PathFinder.obj
 0001:00052020       ?_Verify_offset@?$_Vector_const_iterator@V?$_Vector_val@U?$_Simple_types@VVector3@G3D@@@std@@@std@@@std@@QBEXH@Z 10053020 f i PathFinder.obj
 0001:000521e0       ?_Verify_offset@?$_Vector_const_iterator@V?$_Vector_val@U?$_Simple_types@_K@std@@@std@@@std@@QBEXH@Z 100531e0 f i PathFinder.obj
 0001:00052390       ?_Verify_range@std@@YAXABV?$_Vector_const_iterator@V?$_Vector_val@U?$_Simple_types@_K@std@@@std@@@1@0@Z 10053390 f i PathFinder.obj
 0001:00052470       ?_Xlength@?$vector@EV?$allocator@E@std@@@std@@CAXXZ 10053470 f i PathFinder.obj
 0001:00052470       ?_Xlength@?$vector@W4StraightPathFlags@@V?$allocator@W4StraightPathFlags@@@std@@@std@@CAXXZ 10053470 f i PathFinder.obj
 0001:000524a0       ?allocate@?$allocator@E@std@@QAEPAEI@Z 100534a0 f i PathFinder.obj
 0001:000524a0       ?allocate@?$allocator@W4StraightPathFlags@@@std@@QAEPAW4StraightPathFlags@@I@Z 100534a0 f i PathFinder.obj
 0001:000524e0       ?begin@?$vector@VVector3@G3D@@V?$allocator@VVector3@G3D@@@std@@@std@@QAE?AV?$_Vector_iterator@V?$_Vector_val@U?$_Simple_types@VVector3@G3D@@@std@@@std@@@2@XZ 100534e0 f i PathFinder.obj
 0001:000524e0       ?begin@?$vector@_KV?$allocator@_K@std@@@std@@QAE?AV?$_Vector_iterator@V?$_Vector_val@U?$_Simple_types@_K@std@@@std@@@2@XZ 100534e0 f i PathFinder.obj
 0001:00052550       ?capacity@?$vector@EV?$allocator@E@std@@@std@@QBEIXZ 10053550 f i PathFinder.obj
 0001:00052550       ?capacity@?$vector@W4StraightPathFlags@@V?$allocator@W4StraightPathFlags@@@std@@@std@@QBEIXZ 10053550 f i PathFinder.obj
 0001:000525a0       ?capacity@?$vector@VVector3@G3D@@V?$allocator@VVector3@G3D@@@std@@@std@@QBEIXZ 100535a0 f i PathFinder.obj
 0001:000525f0       ?capacity@?$vector@_KV?$allocator@_K@std@@@std@@QBEIXZ 100535f0 f i PathFinder.obj
 0001:00052640       ?clear@?$vector@VVector3@G3D@@V?$allocator@VVector3@G3D@@@std@@@std@@QAEXXZ 10053640 f i PathFinder.obj
 0001:000526f0       ?clear@PathFinder@@AAEXXZ  100536f0 f i PathFinder.obj
 0001:00052740       ?close@?$basic_ofstream@DU?$char_traits@D@std@@@std@@QAEXXZ 10053740 f i PathFinder.obj
 0001:000527b0       ?data@?$vector@EV?$allocator@E@std@@@std@@QAEPAEXZ 100537b0 f i PathFinder.obj
 0001:000527f0       ?deallocate@?$allocator@E@std@@QAEXQAEI@Z 100537f0 f i PathFinder.obj
 0001:000527f0       ?deallocate@?$allocator@W4StraightPathFlags@@@std@@QAEXQAW4StraightPathFlags@@I@Z 100537f0 f i PathFinder.obj
 0001:00052890       ?dtVdist2DSqr@@YAMPBM0@Z   10053890 f i PathFinder.obj
 0001:00052930       ?erase@?$vector@VVector3@G3D@@V?$allocator@VVector3@G3D@@@std@@@std@@QAE?AV?$_Vector_iterator@V?$_Vector_val@U?$_Simple_types@VVector3@G3D@@@std@@@std@@@2@V?$_Vector_const_iterator@V?$_Vector_val@U?$_Simple_types@VVector3@G3D@@@std@@@std@@@2@@Z 10053930 f i PathFinder.obj
 0001:00052ad0       ?getActualEndPosition@PathFinder@@QBE?AVVector3@G3D@@XZ 10053ad0 f i PathFinder.obj
 0001:00052b20       ?getEndPosition@PathFinder@@QBE?AVVector3@G3D@@XZ 10053b20 f i PathFinder.obj
 0001:00052b70       ?getIncludeFlags@dtQueryFilter@@QBEGXZ 10053b70 f i PathFinder.obj
 0001:00052ba0       ?getStartPosition@PathFinder@@QBE?AVVector3@G3D@@XZ 10053ba0 f i PathFinder.obj
 0001:00052bf0       ?max_size@?$_Default_allocator_traits@V?$allocator@E@std@@@std@@SAIABV?$allocator@E@2@@Z 10053bf0 f i PathFinder.obj
 0001:00052bf0       ?max_size@?$_Default_allocator_traits@V?$allocator@W4StraightPathFlags@@@std@@@std@@SAIABV?$allocator@W4StraightPathFlags@@@2@@Z 10053bf0 f i PathFinder.obj
 0001:00052c10       ?max_size@?$vector@EV?$allocator@E@std@@@std@@QBEIXZ 10053c10 f i PathFinder.obj
 0001:00052c10       ?max_size@?$vector@W4StraightPathFlags@@V?$allocator@W4StraightPathFlags@@@std@@@std@@QBEIXZ 10053c10 f i PathFinder.obj
 0001:00052c80       ?open@?$basic_ofstream@DU?$char_traits@D@std@@@std@@QAEXPBDHH@Z 10053c80 f i PathFinder.obj
 0001:00052d30       ?resize@?$vector@EV?$allocator@E@std@@@std@@QAEXI@Z 10053d30 f i PathFinder.obj
 0001:00052d30       ?resize@?$vector@W4StraightPathFlags@@V?$allocator@W4StraightPathFlags@@@std@@@std@@QAEXI@Z 10053d30 f i PathFinder.obj
 0001:00052d80       ?resize@?$vector@VVector3@G3D@@V?$allocator@VVector3@G3D@@@std@@@std@@QAEXI@Z 10053d80 f i PathFinder.obj
 0001:00052dd0       ?setActualEndPosition@PathFinder@@AAEXABVVector3@G3D@@@Z 10053dd0 f i PathFinder.obj
 0001:00052e10       ?setEndPosition@PathFinder@@AAEXABVVector3@G3D@@@Z 10053e10 f i PathFinder.obj
 0001:00052e60       ?setStartPosition@PathFinder@@AAEXABVVector3@G3D@@@Z 10053e60 f i PathFinder.obj
 0001:00052ea0       ?squaredLength@Vector3@G3D@@QBEMXZ 10053ea0 f i PathFinder.obj
 0001:00052ed0       ?squaredMagnitude@Vector3@G3D@@QBEMXZ 10053ed0 f i PathFinder.obj
 0001:00052f40       ??0PathResult@@QAE@XZ      10053f40 f   PathResult.obj
 0001:00052fb0       ??0dtPathCorridor@@QAE@XZ  10053fb0 f   DetourPathCorridor.obj
 0001:00053000       ??1dtPathCorridor@@QAE@XZ  10054000 f   DetourPathCorridor.obj
 0001:00053070       ?init@dtPathCorridor@@QAE_NH@Z 10054070 f   DetourPathCorridor.obj
 0001:00053130       ?reset@dtPathCorridor@@QAEX_KPBM@Z 10054130 f   DetourPathCorridor.obj
 0001:00053200       ?findCorners@dtPathCorridor@@QAEHPAMPAEPA_KHPAVdtNavMeshQuery@@PBVdtQueryFilter@@@Z 10054200 f   DetourPathCorridor.obj
 0001:00053440       ?optimizePathVisibility@dtPathCorridor@@QAEXPBMMPAVdtNavMeshQuery@@PBVdtQueryFilter@@@Z 10054440 f   DetourPathCorridor.obj
 0001:00053690       ?optimizePathTopology@dtPathCorridor@@QAE_NPAVdtNavMeshQuery@@PBVdtQueryFilter@@@Z 10054690 f   DetourPathCorridor.obj
 0001:000538e0       ?moveOverOffmeshConnection@dtPathCorridor@@QAE_N_KPA_KPAM2PAVdtNavMeshQuery@@@Z 100548e0 f   DetourPathCorridor.obj
 0001:00053b80       ?fixPathStart@dtPathCorridor@@QAE_N_KPBM@Z 10054b80 f   DetourPathCorridor.obj
 0001:00053cc0       ?trimInvalidPath@dtPathCorridor@@QAE_N_KPBMPAVdtNavMeshQuery@@PBVdtQueryFilter@@@Z 10054cc0 f   DetourPathCorridor.obj
 0001:00053ed0       ?isValid@dtPathCorridor@@QAE_NHPAVdtNavMeshQuery@@PBVdtQueryFilter@@@Z 10054ed0 f   DetourPathCorridor.obj
 0001:00053f70       ?movePosition@dtPathCorridor@@QAE_NPBMPAVdtNavMeshQuery@@PBVdtQueryFilter@@@Z 10054f70 f   DetourPathCorridor.obj
 0001:000541c0       ?moveTargetPosition@dtPathCorridor@@QAE_NPBMPAVdtNavMeshQuery@@PBVdtQueryFilter@@@Z 100551c0 f   DetourPathCorridor.obj
 0001:000543b0       ?setCorridor@dtPathCorridor@@QAEXPBMPB_KH@Z 100553b0 f   DetourPathCorridor.obj
 0001:000544e0       ?dtMergeCorridorStartMoved@@YAHPA_KHHPB_KH@Z 100554e0 f   DetourPathCorridor.obj
 0001:000546a0       ?dtMergeCorridorEndMoved@@YAHPA_KHHPB_KH@Z 100556a0 f   DetourPathCorridor.obj
 0001:00054830       ?dtMergeCorridorStartShortcut@@YAHPA_KHHPB_KH@Z 10055830 f   DetourPathCorridor.obj
 0001:000549d0       ??$dtMax@H@@YAHHH@Z        100559d0 f i DetourPathCorridor.obj
 0001:00054a10       ?dtVdist2D@@YAMPBM0@Z      10055a10 f i DetourPathCorridor.obj
 0001:00054ab0       ?getAttachedNavMesh@dtNavMeshQuery@@QBEPBVdtNavMesh@@XZ 10055ab0 f i DetourPathCorridor.obj
 0001:00054ae0       @__CheckForDebuggerJustMyCode@4 10055ae0 f   MSVCRTD:debugger_jmc.obj
 0001:00054b20       @_RTC_CheckStackVars@8     10055b20 f   MSVCRTD:stack.obj
 0001:00054b80       __RTC_CheckEsp             10055b80 f   MSVCRTD:stack.obj
 0001:00054bb0       @__security_check_cookie@4 10055bb0 f   MSVCRTD:secchk.obj
 0001:00054bc0       ??3@YAXPAXI@Z              10055bc0 f   MSVCRTD:delete_scalar_size.obj
 0001:00054bc0       ??_V@YAXPAX@Z              10055bc0 f   MSVCRTD:delete_array.obj
 0001:00054be0       __allshl                   10055be0 f   MSVCRTD:llshl.obj
 0001:00054c00       __aullshr                  10055c00 f   MSVCRTD:ullshr.obj
 0001:00054c20       __ftol2_sse                10055c20 f   MSVCRTD:ftol2.obj
 0001:00054c30       __ftoi2                    10055c30 f   MSVCRTD:ftol2.obj
 0001:00054cb0       __ftol2                    10055cb0 f   MSVCRTD:ftol2.obj
 0001:00054d60       __Init_thread_abort        10055d60 f   MSVCRTD:thread_safe_statics.obj
 0001:00054d80       __Init_thread_footer       10055d80 f   MSVCRTD:thread_safe_statics.obj
 0001:00054dd0       __Init_thread_header       10055dd0 f   MSVCRTD:thread_safe_statics.obj
 0001:00054e40       __Init_thread_lock         10055e40 f   MSVCRTD:thread_safe_statics.obj
 0001:00054e60       __Init_thread_notify       10055e60 f   MSVCRTD:thread_safe_statics.obj
 0001:00054e80       __Init_thread_unlock       10055e80 f   MSVCRTD:thread_safe_statics.obj
 0001:00054ea0       __Init_thread_wait_v2      10055ea0 f   MSVCRTD:thread_safe_statics.obj
 0001:00054ec0       ??1type_info@@UAE@XZ       10055ec0 f   MSVCRTD:std_type_info_static.obj
 0001:00054ee0       ??_Etype_info@@UAEPAXI@Z   10055ee0 f i MSVCRTD:std_type_info_static.obj
 0001:00054ee0       ??_Gtype_info@@UAEPAXI@Z   10055ee0 f i MSVCRTD:std_type_info_static.obj
 0001:00054f10       __allmul                   10055f10 f   MSVCRTD:llmul.obj
 0001:00054f50       ??2@YAPAXI@Z               10055f50 f   MSVCRTD:new_scalar.obj
 0001:00054fa0       ??3@YAXPAX@Z               10055fa0 f   MSVCRTD:delete_scalar.obj
 0001:00054fc0       __ftol3                    10055fc0 f   MSVCRTD:ftol3.obj
 0001:00055030       __ltof3                    10056030 f   MSVCRTD:ftol3.obj
 0001:00055080       ??_U@YAPAXI@Z              10056080 f   MSVCRTD:new_array.obj
 0001:000550a0       ??_V@YAXPAXI@Z             100560a0 f   MSVCRTD:delete_array_size.obj
 0001:000550c0       __alldiv                   100560c0 f   MSVCRTD:lldiv.obj
 0001:00055170       __allrem                   10056170 f   MSVCRTD:llrem.obj
 0001:00055230       __alloca_probe             10056230 f   MSVCRTD:chkstk.obj
 0001:00055230       __chkstk                   10056230 f   MSVCRTD:chkstk.obj
 0001:00055260       ?configure_argv@__scrt_narrow_argv_policy@@SAHXZ 10056260 f i MSVCRTD:utility.obj
 0001:00055310       ?initialize_environment@__scrt_narrow_environment_policy@@SAHXZ 10056310 f i MSVCRTD:utility.obj
 0001:00055390       _NtCurrentTeb              10056390 f i MSVCRTD:utility.obj
 0001:000553a0       ___scrt_acquire_startup_lock 100563a0 f   MSVCRTD:utility.obj
 0001:000553f0       ___scrt_dllmain_after_initialize_c 100563f0 f   MSVCRTD:utility.obj
 0001:00055420       ___scrt_dllmain_before_initialize_c 10056420 f   MSVCRTD:utility.obj
 0001:00055440       ___scrt_dllmain_crt_thread_attach 10056440 f   MSVCRTD:utility.obj
 0001:00055470       ___scrt_dllmain_crt_thread_detach 10056470 f   MSVCRTD:utility.obj
 0001:00055490       ___scrt_dllmain_exception_filter 10056490 f   MSVCRTD:utility.obj
 0001:000554e0       ___scrt_dllmain_uninitialize_c 100564e0 f   MSVCRTD:utility.obj
 0001:00055510       ___scrt_dllmain_uninitialize_critical 10056510 f   MSVCRTD:utility.obj
 0001:00055530       ___scrt_initialize_crt     10056530 f   MSVCRTD:utility.obj
 0001:00055580       ___scrt_initialize_onexit_tables 10056580 f   MSVCRTD:utility.obj
 0001:00055660       ___scrt_is_nonwritable_in_current_image 10056660 f   MSVCRTD:utility.obj
 0001:00055790       ___scrt_release_startup_lock 10056790 f   MSVCRTD:utility.obj
 0001:000557c0       ___scrt_uninitialize_crt   100567c0 f   MSVCRTD:utility.obj
 0001:00055800       __onexit                   10056800 f   MSVCRTD:utility.obj
 0001:00055870       _atexit                    10056870 f   MSVCRTD:utility.obj
 0001:00055930       ?_RTC_Failure@@YAXPAXH@Z   10056930 f   MSVCRTD:error.obj
 0001:00055980       ?_RTC_StackFailure@@YAXPAXPBD@Z 10056980 f   MSVCRTD:error.obj
 0001:00055cf0       __RTC_UninitUse            10056cf0 f   MSVCRTD:error.obj
 0001:00056270       __DllMainCRTStartup@12     10057270 f   MSVCRTD:dll_dllmain.obj
 0001:000562a0       ?_RTC_GetErrorFunc@@YAP6AHHPBDH00ZZPBX@Z 100572a0 f   MSVCRTD:userapi.obj
 0001:000562b0       ?_RTC_GetErrorFuncW@@YAP6AHHPB_WH00ZZPBX@Z 100572b0 f   MSVCRTD:userapi.obj
 0001:000562c0       ___raise_securityfailure   100572c0 f   MSVCRTD:gs_report.obj
 0001:000562f0       ___report_gsfailure        100572f0 f   MSVCRTD:gs_report.obj
 0001:00056400       ___isa_available_init      10057400 f   MSVCRTD:cpu_disp.obj
 0001:000568a0       ??0bad_alloc@std@@QAE@XZ   100578a0 f i MSVCRTD:throw_bad_alloc.obj
 0001:000568d0       ?__scrt_throw_std_bad_alloc@@YAXXZ 100578d0 f   MSVCRTD:throw_bad_alloc.obj
 0001:00056900       ?__scrt_throw_std_bad_array_new_length@@YAXXZ 10057900 f   MSVCRTD:throw_bad_alloc.obj
 0001:00056930       __get_startup_argv_mode    10057930 f   MSVCRTD:argv_mode.obj
 0001:00056940       ___scrt_is_ucrt_dll_in_use 10057940 f   MSVCRTD:ucrt_detection.obj
 0001:00056970       ___scrt_fastfail           10057970 f   MSVCRTD:utility_desktop.obj
 0001:00056ab0       __crt_debugger_hook        10057ab0 f   MSVCRTD:utility_desktop.obj
 0001:00056ac0       __except_handler4          10057ac0 f   MSVCRTD:chandler4gs.obj
 0001:00056b00       @_guard_check_icall_nop@4  10057b00 f i MSVCRTD:guard_support.obj
 0001:00056f60       ?_RTC_GetSrcLine@@YAHPAEPA_WKPAH1K@Z 10057f60 f   MSVCRTD:pdblkup.obj
 0001:000572e0       __except_handler4_noexcept 100582e0 f   MSVCRTD:chandler4_noexcept.obj
 0001:000573b0       ___security_init_cookie    100583b0 f   MSVCRTD:gs_support.obj
 0001:00057430       ?__scrt_initialize_type_info@@YAXXZ 10058430 f   MSVCRTD:tncleanup.obj
 0001:00057450       ?__scrt_uninitialize_type_info@@YAXXZ 10058450 f   MSVCRTD:tncleanup.obj
 0001:00057470       ___local_stdio_scanf_options 10058470 f i MSVCRTD:default_local_stdio_options.obj
 0001:00057480       ___scrt_initialize_default_local_stdio_options 10058480 f   MSVCRTD:default_local_stdio_options.obj
 0001:000574c0       ___scrt_get_dyn_tls_init_callback 100584c0 f   MSVCRTD:dyn_tls_init.obj
 0001:000574d0       __RTC_Initialize           100584d0 f   MSVCRTD:initsect.obj
 0001:00057500       __RTC_Terminate            10058500 f   MSVCRTD:initsect.obj
 0001:0005752e       ?_Xlength_error@std@@YAXPBD@Z 1005852e f   msvcprtd:MSVCP140D.dll
 0001:000575f0       ___acrt_initialize         100585f0 f   MSVCRTD:ucrt_stubs.obj
 0001:000575f0       ___acrt_thread_attach      100585f0 f   MSVCRTD:ucrt_stubs.obj
 0001:000575f0       ___acrt_thread_detach      100585f0 f   MSVCRTD:ucrt_stubs.obj
 0001:000575f0       ___acrt_uninitialize       100585f0 f   MSVCRTD:ucrt_stubs.obj
 0001:000575f0       ___acrt_uninitialize_critical 100585f0 f   MSVCRTD:ucrt_stubs.obj
 0001:000575f0       ___scrt_stub_for_acrt_initialize 100585f0 f   MSVCRTD:ucrt_stubs.obj
 0001:000575f0       ___scrt_stub_for_acrt_thread_attach 100585f0 f   MSVCRTD:ucrt_stubs.obj
 0001:000575f0       ___scrt_stub_for_acrt_thread_detach 100585f0 f   MSVCRTD:ucrt_stubs.obj
 0001:000575f0       ___scrt_stub_for_acrt_uninitialize 100585f0 f   MSVCRTD:ucrt_stubs.obj
 0001:000575f0       ___scrt_stub_for_acrt_uninitialize_critical 100585f0 f   MSVCRTD:ucrt_stubs.obj
 0001:000575f0       ___vcrt_initialize         100585f0 f   MSVCRTD:ucrt_stubs.obj
 0001:000575f0       ___vcrt_thread_attach      100585f0 f   MSVCRTD:ucrt_stubs.obj
 0001:000575f0       ___vcrt_thread_detach      100585f0 f   MSVCRTD:ucrt_stubs.obj
 0001:000575f0       ___vcrt_uninitialize       100585f0 f   MSVCRTD:ucrt_stubs.obj
 0001:000575f0       ___vcrt_uninitialize_critical 100585f0 f   MSVCRTD:ucrt_stubs.obj
 0001:00058ff0       ___std_find_last_of_trivial_pos_1@16 10059ff0 f   msvcprtd:vector_algorithms.obj
 0001:00059010       ___std_search_1@16         1005a010 f   msvcprtd:vector_algorithms.obj
 0001:0005902c       ?_Xbad_alloc@std@@YAXXZ    1005a02c f   msvcprtd:MSVCP140D.dll
 0001:00059032       ?_Xout_of_range@std@@YAXPBD@Z 1005a032 f   msvcprtd:MSVCP140D.dll
 0001:00059038       ?imbue@?$basic_streambuf@DU?$char_traits@D@std@@@std@@MAEXABVlocale@2@@Z 1005a038 f   msvcprtd:MSVCP140D.dll
 0001:0005903e       ?sync@?$basic_streambuf@DU?$char_traits@D@std@@@std@@MAEHXZ 1005a03e f   msvcprtd:MSVCP140D.dll
 0001:00059044       ?setbuf@?$basic_streambuf@DU?$char_traits@D@std@@@std@@MAEPAV12@PAD_J@Z 1005a044 f   msvcprtd:MSVCP140D.dll
 0001:0005904a       ?xsputn@?$basic_streambuf@DU?$char_traits@D@std@@@std@@MAE_JPBD_J@Z 1005a04a f   msvcprtd:MSVCP140D.dll
 0001:00059050       ?xsgetn@?$basic_streambuf@DU?$char_traits@D@std@@@std@@MAE_JPAD_J@Z 1005a050 f   msvcprtd:MSVCP140D.dll
 0001:00059056       ?uflow@?$basic_streambuf@DU?$char_traits@D@std@@@std@@MAEHXZ 1005a056 f   msvcprtd:MSVCP140D.dll
 0001:0005905c       ?showmanyc@?$basic_streambuf@DU?$char_traits@D@std@@@std@@MAE_JXZ 1005a05c f   msvcprtd:MSVCP140D.dll
 0001:00059062       ?_Unlock@?$basic_streambuf@DU?$char_traits@D@std@@@std@@UAEXXZ 1005a062 f   msvcprtd:MSVCP140D.dll
 0001:00059068       ?_Lock@?$basic_streambuf@DU?$char_traits@D@std@@@std@@UAEXXZ 1005a068 f   msvcprtd:MSVCP140D.dll
 0001:00059090       ___std_get_string_size_without_trailing_whitespace@8 1005a090 f   msvcprtd:syserror_import_lib.obj
 0001:000590d0       ___std_system_error_allocate_message@8 1005a0d0 f   msvcprtd:syserror_import_lib.obj
 0001:00059180       ___std_system_error_deallocate_message@4 1005a180 f   msvcprtd:syserror_import_lib.obj
 0001:00059192       __Query_perf_counter       1005a192 f   msvcprtd:MSVCP140D.dll
 0001:00059198       __Query_perf_frequency     1005a198 f   msvcprtd:MSVCP140D.dll
 0001:0005919e       ?_Syserror_map@std@@YAPBDH@Z 1005a19e f   msvcprtd:MSVCP140D.dll
 0001:000591a4       ?_Winerror_map@std@@YAHH@Z 1005a1a4 f   msvcprtd:MSVCP140D.dll
 0001:000591b0       ??$_Bitmask_includes_any@W4__std_fs_stats_flags@@@std@@YA_NW4__std_fs_stats_flags@@0@Z 1005a1b0 f i msvcprtd:filesystem.obj
 0001:000591e0       ??0_Fs_file@std@@QAE@QB_WW4__std_access_rights@@W4__std_fs_file_flags@@QAW4__std_win_error@@@Z 1005a1e0 f i msvcprtd:filesystem.obj
 0001:00059210       ??1_Fs_file@std@@QAE@XZ    1005a210 f i msvcprtd:filesystem.obj
 0001:00059230       ??I@YA?AW4__std_fs_stats_flags@@W40@0@Z 1005a230 f i msvcprtd:filesystem.obj
 0001:00059240       ??S@YA?AW4__std_fs_stats_flags@@W40@@Z 1005a240 f i msvcprtd:filesystem.obj
 0001:00059250       ??U@YA?AW4__std_fs_file_flags@@W40@0@Z 1005a250 f i msvcprtd:filesystem.obj
 0001:00059260       ??_4@YAAAW4__std_fs_stats_flags@@AAW40@W40@@Z 1005a260 f i msvcprtd:filesystem.obj
 0001:00059280       ?_Get@_Fs_file@std@@QBEPAXXZ 1005a280 f i msvcprtd:filesystem.obj
 0001:000592d0       ___std_fs_close_handle@4   1005a2d0 f   msvcprtd:filesystem.obj
 0001:00059300       ___std_fs_code_page@0      1005a300 f   msvcprtd:filesystem.obj
 0001:00059330       ___std_fs_convert_narrow_to_wide@20 1005a330 f   msvcprtd:filesystem.obj
 0001:00059390       ___std_fs_convert_wide_to_narrow@20 1005a390 f   msvcprtd:filesystem.obj
 0001:00059490       ___std_fs_convert_wide_to_narrow_replace_chars@20 1005a490 f   msvcprtd:filesystem.obj
 0001:00059530       ___std_fs_directory_iterator_advance@8 1005a530 f   msvcprtd:filesystem.obj
 0001:00059560       ___std_fs_directory_iterator_close@4 1005a560 f   msvcprtd:filesystem.obj
 0001:00059590       ___std_fs_directory_iterator_open@12 1005a590 f   msvcprtd:filesystem.obj
 0001:000595d0       ___std_fs_get_stats@16     1005a5d0 f   msvcprtd:filesystem.obj
 0001:00059b50       ___std_fs_open_handle@16   1005ab50 f   msvcprtd:filesystem.obj
 0001:00059bb7       ?uncaught_exceptions@std@@YAHXZ 1005abb7 f   msvcprtd:MSVCP140D.dll
 0001:00059bc0       ??0_Fac_node@std@@QAE@PAU01@PAV_Facet_base@1@@Z 1005abc0 f i msvcprtd:locale0_implib.obj
 0001:00059bf0       ??1_Fac_node@std@@QAE@XZ   1005abf0 f i msvcprtd:locale0_implib.obj
 0001:00059c60       ??1_Fac_tidy_reg_t@std@@QAE@XZ 1005ac60 f i msvcprtd:locale0_implib.obj
 0001:00059cb0       ??2_Fac_node@std@@SAPAXI@Z 1005acb0 f i msvcprtd:locale0_implib.obj
 0001:00059d00       ??3_Fac_node@std@@SAXPAX@Z 1005ad00 f i msvcprtd:locale0_implib.obj
 0001:00059d20       ??_G_Fac_node@std@@QAEPAXI@Z 1005ad20 f i msvcprtd:locale0_implib.obj
 0001:00059d70       ?_Facet_Register@std@@YAXPAV_Facet_base@1@@Z 1005ad70 f   msvcprtd:locale0_implib.obj
 0001:00059df2       ?_Getgloballocale@locale@std@@CAPAV_Locimp@12@XZ 1005adf2 f   msvcprtd:MSVCP140D.dll
 0001:00059df8       ?_Fiopen@std@@YAPAU_iobuf@@PBDHH@Z 1005adf8 f   msvcprtd:MSVCP140D.dll
 0001:00059dfe       _memcpy                    1005adfe f   vcruntimed:VCRUNTIME140D.dll
 0001:00059e04       _memset                    1005ae04 f   vcruntimed:VCRUNTIME140D.dll
 0001:00059e0a       ___CxxFrameHandler3        1005ae0a f   vcruntimed:VCRUNTIME140D.dll
 0001:00059e10       __purecall                 1005ae10 f   vcruntimed:VCRUNTIME140D.dll
 0001:00059e16       _memmove                   1005ae16 f   vcruntimed:VCRUNTIME140D.dll
 0001:00059e1c       _memcmp                    1005ae1c f   vcruntimed:VCRUNTIME140D.dll
 0001:00059e22       ___std_exception_copy      1005ae22 f   vcruntimed:VCRUNTIME140D.dll
 0001:00059e28       ___std_exception_destroy   1005ae28 f   vcruntimed:VCRUNTIME140D.dll
 0001:00059e2e       __CxxThrowException@8      1005ae2e f   vcruntimed:VCRUNTIME140D.dll
 0001:00059e34       _memchr                    1005ae34 f   vcruntimed:VCRUNTIME140D.dll
 0001:00059e3a       ___current_exception       1005ae3a f   vcruntimed:VCRUNTIME140D.dll
 0001:00059e40       ___current_exception_context 1005ae40 f   vcruntimed:VCRUNTIME140D.dll
 0001:00059e46       __except_handler4_common   1005ae46 f   vcruntimed:VCRUNTIME140D.dll
 0001:00059e4c       ___vcrt_GetModuleFileNameW 1005ae4c f   vcruntimed:VCRUNTIME140D.dll
 0001:00059e52       ___vcrt_GetModuleHandleW   1005ae52 f   vcruntimed:VCRUNTIME140D.dll
 0001:00059e58       ___vcrt_LoadLibraryExW     1005ae58 f   vcruntimed:VCRUNTIME140D.dll
 0001:00059e5e       ___std_type_info_destroy_list 1005ae5e f   vcruntimed:VCRUNTIME140D.dll
 0001:00059e64       _malloc                    1005ae64 f   ucrtd:ucrtbased.dll
 0001:00059e6a       _fabs                      1005ae6a f   ucrtd:ucrtbased.dll
 0001:00059e70       _sqrt                      1005ae70 f   ucrtd:ucrtbased.dll
 0001:00059e76       _strlen                    1005ae76 f   ucrtd:ucrtbased.dll
 0001:00059e7c       __callnewh                 1005ae7c f   ucrtd:ucrtbased.dll
 0001:00059e82       __free_dbg                 1005ae82 f   ucrtd:ucrtbased.dll
 0001:00059e88       __seh_filter_dll           1005ae88 f   ucrtd:ucrtbased.dll
 0001:00059e8e       __configure_narrow_argv    1005ae8e f   ucrtd:ucrtbased.dll
 0001:00059e94       __initialize_narrow_environment 1005ae94 f   ucrtd:ucrtbased.dll
 0001:00059e9a       __initialize_onexit_table  1005ae9a f   ucrtd:ucrtbased.dll
 0001:00059ea0       __register_onexit_function 1005aea0 f   ucrtd:ucrtbased.dll
 0001:00059ea6       __execute_onexit_table     1005aea6 f   ucrtd:ucrtbased.dll
 0001:00059eac       __crt_atexit               1005aeac f   ucrtd:ucrtbased.dll
 0001:00059eb2       __cexit                    1005aeb2 f   ucrtd:ucrtbased.dll
 0001:00059eb8       _strcpy_s                  1005aeb8 f   ucrtd:ucrtbased.dll
 0001:00059ebe       _strcat_s                  1005aebe f   ucrtd:ucrtbased.dll
 0001:00059ec4       __initterm                 1005aec4 f   ucrtd:ucrtbased.dll
 0001:00059eca       __initterm_e               1005aeca f   ucrtd:ucrtbased.dll
 0001:00059ed0       _terminate                 1005aed0 f   ucrtd:ucrtbased.dll
 0001:00059ed6       __wmakepath_s              1005aed6 f   ucrtd:ucrtbased.dll
 0001:00059edc       __wsplitpath_s             1005aedc f   ucrtd:ucrtbased.dll
 0001:00059ee2       _wcscpy_s                  1005aee2 f   ucrtd:ucrtbased.dll
 0001:00059ef0       ___scrt_stub_for_is_c_termination_complete 1005aef0 f   MSVCRTD:ucrt_stubs.obj
 0001:00059ef0       __is_c_termination_complete 1005aef0 f   MSVCRTD:ucrt_stubs.obj
 0001:00059f00       __filter_x86_sse2_floating_point_exception 1005af00 f   MSVCRTD:x86_exception_filter.obj
 0001:00059f00       __filter_x86_sse2_floating_point_exception_default 1005af00 f   MSVCRTD:x86_exception_filter.obj
 0002:00000000       __imp__GetModuleFileNameW@12 1005d000     kernel32:KERNEL32.dll
 0002:00000004       __imp__GetFileInformationByHandleEx@16 1005d004     kernel32:KERNEL32.dll
 0002:00000008       __imp__CloseHandle@4       1005d008     kernel32:KERNEL32.dll
 0002:0000000c       __imp__AreFileApisANSI@0   1005d00c     kernel32:KERNEL32.dll
 0002:00000010       __imp__GetFileAttributesExW@12 1005d010     kernel32:KERNEL32.dll
 0002:00000014       __imp__FindNextFileW@8     1005d014     kernel32:KERNEL32.dll
 0002:00000018       __imp__FindFirstFileExW@24 1005d018     kernel32:KERNEL32.dll
 0002:0000001c       __imp__FindFirstFileW@8    1005d01c     kernel32:KERNEL32.dll
 0002:00000020       __imp__FindClose@4         1005d020     kernel32:KERNEL32.dll
 0002:00000024       __imp__CreateFileW@28      1005d024     kernel32:KERNEL32.dll
 0002:00000028       __imp__GetLocaleInfoEx@16  1005d028     kernel32:KERNEL32.dll
 0002:0000002c       __imp__FormatMessageA@28   1005d02c     kernel32:KERNEL32.dll
 0002:00000030       __imp__LocalFree@4         1005d030     kernel32:KERNEL32.dll
 0002:00000034       __imp__InitializeSListHead@4 1005d034     kernel32:KERNEL32.dll
 0002:00000038       __imp__GetSystemTimeAsFileTime@4 1005d038     kernel32:KERNEL32.dll
 0002:0000003c       __imp__GetCurrentProcessId@0 1005d03c     kernel32:KERNEL32.dll
 0002:00000040       __imp__QueryPerformanceCounter@4 1005d040     kernel32:KERNEL32.dll
 0002:00000044       __imp__GetProcAddress@8    1005d044     kernel32:KERNEL32.dll
 0002:00000048       __imp__FreeLibrary@4       1005d048     kernel32:KERNEL32.dll
 0002:0000004c       __imp__VirtualQuery@12     1005d04c     kernel32:KERNEL32.dll
 0002:00000050       __imp__GetProcessHeap@0    1005d050     kernel32:KERNEL32.dll
 0002:00000054       __imp__HeapFree@12         1005d054     kernel32:KERNEL32.dll
 0002:00000058       __imp__HeapAlloc@12        1005d058     kernel32:KERNEL32.dll
 0002:0000005c       __imp__GetLastError@0      1005d05c     kernel32:KERNEL32.dll
 0002:00000060       __imp__IsProcessorFeaturePresent@4 1005d060     kernel32:KERNEL32.dll
 0002:00000064       __imp__TerminateProcess@8  1005d064     kernel32:KERNEL32.dll
 0002:00000068       __imp__GetCurrentProcess@0 1005d068     kernel32:KERNEL32.dll
 0002:0000006c       __imp__SetUnhandledExceptionFilter@4 1005d06c     kernel32:KERNEL32.dll
 0002:00000070       __imp__UnhandledExceptionFilter@4 1005d070     kernel32:KERNEL32.dll
 0002:00000074       __imp__WideCharToMultiByte@32 1005d074     kernel32:KERNEL32.dll
 0002:00000078       __imp__MultiByteToWideChar@24 1005d078     kernel32:KERNEL32.dll
 0002:0000007c       __imp__RaiseException@16   1005d07c     kernel32:KERNEL32.dll
 0002:00000080       __imp__IsDebuggerPresent@0 1005d080     kernel32:KERNEL32.dll
 0002:00000084       __imp__SleepConditionVariableSRW@16 1005d084     kernel32:KERNEL32.dll
 0002:00000088       __imp__WakeAllConditionVariable@4 1005d088     kernel32:KERNEL32.dll
 0002:0000008c       __imp__AcquireSRWLockExclusive@4 1005d08c     kernel32:KERNEL32.dll
 0002:00000090       __imp__ReleaseSRWLockExclusive@4 1005d090     kernel32:KERNEL32.dll
 0002:00000094       __imp__GetCurrentThreadId@0 1005d094     kernel32:KERNEL32.dll
 0002:00000098       \177KERNEL32_NULL_THUNK_DATA 1005d098     kernel32:KERNEL32.dll
 0002:0000009c       __imp_?pbump@?$basic_streambuf@DU?$char_traits@D@std@@@std@@IAEXH@Z 1005d09c     msvcprtd:MSVCP140D.dll
 0002:000000a0       __imp_?_Pnavail@?$basic_streambuf@DU?$char_traits@D@std@@@std@@IBE_JXZ 1005d0a0     msvcprtd:MSVCP140D.dll
 0002:000000a4       __imp_?_Init@?$basic_streambuf@DU?$char_traits@D@std@@@std@@IAEXXZ 1005d0a4     msvcprtd:MSVCP140D.dll
 0002:000000a8       __imp_?_Init@?$basic_streambuf@DU?$char_traits@D@std@@@std@@IAEXPAPAD0PAH001@Z 1005d0a8     msvcprtd:MSVCP140D.dll
 0002:000000ac       __imp_?setstate@?$basic_ios@DU?$char_traits@D@std@@@std@@QAEXH_N@Z 1005d0ac     msvcprtd:MSVCP140D.dll
 0002:000000b0       __imp_?tie@?$basic_ios@DU?$char_traits@D@std@@@std@@QBEPAV?$basic_ostream@DU?$char_traits@D@std@@@2@XZ 1005d0b0     msvcprtd:MSVCP140D.dll
 0002:000000b4       __imp_?rdbuf@?$basic_ios@DU?$char_traits@D@std@@@std@@QBEPAV?$basic_streambuf@DU?$char_traits@D@std@@@2@XZ 1005d0b4     msvcprtd:MSVCP140D.dll
 0002:000000b8       __imp_?fill@?$basic_ios@DU?$char_traits@D@std@@@std@@QBEDXZ 1005d0b8     msvcprtd:MSVCP140D.dll
 0002:000000bc       __imp_?widen@?$basic_ios@DU?$char_traits@D@std@@@std@@QBEDD@Z 1005d0bc     msvcprtd:MSVCP140D.dll
 0002:000000c0       __imp_?_Osfx@?$basic_ostream@DU?$char_traits@D@std@@@std@@QAEXXZ 1005d0c0     msvcprtd:MSVCP140D.dll
 0002:000000c4       __imp_??6?$basic_ostream@DU?$char_traits@D@std@@@std@@QAEAAV01@P6AAAV01@AAV01@@Z@Z 1005d0c4     msvcprtd:MSVCP140D.dll
 0002:000000c8       __imp_?put@?$basic_ostream@DU?$char_traits@D@std@@@std@@QAEAAV12@D@Z 1005d0c8     msvcprtd:MSVCP140D.dll
 0002:000000cc       __imp_?flush@?$basic_ostream@DU?$char_traits@D@std@@@std@@QAEAAV12@XZ 1005d0cc     msvcprtd:MSVCP140D.dll
 0002:000000d0       __imp_??0?$basic_istream@DU?$char_traits@D@std@@@std@@QAE@PAV?$basic_streambuf@DU?$char_traits@D@std@@@1@_N@Z 1005d0d0     msvcprtd:MSVCP140D.dll
 0002:000000d4       __imp_??1?$basic_istream@DU?$char_traits@D@std@@@std@@UAE@XZ 1005d0d4     msvcprtd:MSVCP140D.dll
 0002:000000d8       __imp_?read@?$basic_istream@DU?$char_traits@D@std@@@std@@QAEAAV12@PAD_J@Z 1005d0d8     msvcprtd:MSVCP140D.dll
 0002:000000dc       __imp_?_Fiopen@std@@YAPAU_iobuf@@PBDHH@Z 1005d0dc     msvcprtd:MSVCP140D.dll
 0002:000000e0       __imp_?_Id_cnt@id@locale@std@@0HA 1005d0e0     msvcprtd:MSVCP140D.dll
 0002:000000e4       __imp_?id@?$codecvt@DDU_Mbstatet@@@std@@2V0locale@2@A 1005d0e4     msvcprtd:MSVCP140D.dll
 0002:000000e8       __imp_?cout@std@@3V?$basic_ostream@DU?$char_traits@D@std@@@1@A 1005d0e8     msvcprtd:MSVCP140D.dll
 0002:000000ec       __imp_?cerr@std@@3V?$basic_ostream@DU?$char_traits@D@std@@@1@A 1005d0ec     msvcprtd:MSVCP140D.dll
 0002:000000f0       __imp_?clear@?$basic_ios@DU?$char_traits@D@std@@@std@@QAEXH_N@Z 1005d0f0     msvcprtd:MSVCP140D.dll
 0002:000000f4       __imp_??1_Lockit@std@@QAE@XZ 1005d0f4     msvcprtd:MSVCP140D.dll
 0002:000000f8       __imp_?_Xlength_error@std@@YAXPBD@Z 1005d0f8     msvcprtd:MSVCP140D.dll
 0002:000000fc       __imp_?_Xbad_alloc@std@@YAXXZ 1005d0fc     msvcprtd:MSVCP140D.dll
 0002:00000100       __imp_?_Xout_of_range@std@@YAXPBD@Z 1005d100     msvcprtd:MSVCP140D.dll
 0002:00000104       __imp_??0?$basic_streambuf@DU?$char_traits@D@std@@@std@@IAE@XZ 1005d104     msvcprtd:MSVCP140D.dll
 0002:00000108       __imp_??1?$basic_streambuf@DU?$char_traits@D@std@@@std@@UAE@XZ 1005d108     msvcprtd:MSVCP140D.dll
 0002:0000010c       __imp_?eback@?$basic_streambuf@DU?$char_traits@D@std@@@std@@IBEPADXZ 1005d10c     msvcprtd:MSVCP140D.dll
 0002:00000110       __imp_?gptr@?$basic_streambuf@DU?$char_traits@D@std@@@std@@IBEPADXZ 1005d110     msvcprtd:MSVCP140D.dll
 0002:00000114       __imp_?pbase@?$basic_streambuf@DU?$char_traits@D@std@@@std@@IBEPADXZ 1005d114     msvcprtd:MSVCP140D.dll
 0002:00000118       __imp_?pptr@?$basic_streambuf@DU?$char_traits@D@std@@@std@@IBEPADXZ 1005d118     msvcprtd:MSVCP140D.dll
 0002:0000011c       __imp_?egptr@?$basic_streambuf@DU?$char_traits@D@std@@@std@@IBEPADXZ 1005d11c     msvcprtd:MSVCP140D.dll
 0002:00000120       __imp_?gbump@?$basic_streambuf@DU?$char_traits@D@std@@@std@@IAEXH@Z 1005d120     msvcprtd:MSVCP140D.dll
 0002:00000124       __imp_?setg@?$basic_streambuf@DU?$char_traits@D@std@@@std@@IAEXPAD00@Z 1005d124     msvcprtd:MSVCP140D.dll
 0002:00000128       __imp_?epptr@?$basic_streambuf@DU?$char_traits@D@std@@@std@@IBEPADXZ 1005d128     msvcprtd:MSVCP140D.dll
 0002:0000012c       __imp_?setp@?$basic_streambuf@DU?$char_traits@D@std@@@std@@IAEXPAD0@Z 1005d12c     msvcprtd:MSVCP140D.dll
 0002:00000130       __imp_?setp@?$basic_streambuf@DU?$char_traits@D@std@@@std@@IAEXPAD00@Z 1005d130     msvcprtd:MSVCP140D.dll
 0002:00000134       __imp_?_Pninc@?$basic_streambuf@DU?$char_traits@D@std@@@std@@IAEPADXZ 1005d134     msvcprtd:MSVCP140D.dll
 0002:00000138       __imp_??1?$basic_ios@DU?$char_traits@D@std@@@std@@UAE@XZ 1005d138     msvcprtd:MSVCP140D.dll
 0002:0000013c       __imp_??0?$basic_ios@DU?$char_traits@D@std@@@std@@IAE@XZ 1005d13c     msvcprtd:MSVCP140D.dll
 0002:00000140       __imp_??0?$basic_ostream@DU?$char_traits@D@std@@@std@@QAE@PAV?$basic_streambuf@DU?$char_traits@D@std@@@1@_N@Z 1005d140     msvcprtd:MSVCP140D.dll
 0002:00000144       __imp_??1?$basic_ostream@DU?$char_traits@D@std@@@std@@UAE@XZ 1005d144     msvcprtd:MSVCP140D.dll
 0002:00000148       __imp_??6?$basic_ostream@DU?$char_traits@D@std@@@std@@QAEAAV01@H@Z 1005d148     msvcprtd:MSVCP140D.dll
 0002:0000014c       __imp_??6?$basic_ostream@DU?$char_traits@D@std@@@std@@QAEAAV01@I@Z 1005d14c     msvcprtd:MSVCP140D.dll
 0002:00000150       __imp_?_Gninc@?$basic_streambuf@DU?$char_traits@D@std@@@std@@IAEPADXZ 1005d150     msvcprtd:MSVCP140D.dll
 0002:00000154       __imp_?imbue@?$basic_streambuf@DU?$char_traits@D@std@@@std@@MAEXABVlocale@2@@Z 1005d154     msvcprtd:MSVCP140D.dll
 0002:00000158       __imp_?sync@?$basic_streambuf@DU?$char_traits@D@std@@@std@@MAEHXZ 1005d158     msvcprtd:MSVCP140D.dll
 0002:0000015c       __imp_?setbuf@?$basic_streambuf@DU?$char_traits@D@std@@@std@@MAEPAV12@PAD_J@Z 1005d15c     msvcprtd:MSVCP140D.dll
 0002:00000160       __imp_?xsputn@?$basic_streambuf@DU?$char_traits@D@std@@@std@@MAE_JPBD_J@Z 1005d160     msvcprtd:MSVCP140D.dll
 0002:00000164       __imp_?xsgetn@?$basic_streambuf@DU?$char_traits@D@std@@@std@@MAE_JPAD_J@Z 1005d164     msvcprtd:MSVCP140D.dll
 0002:00000168       __imp_?uflow@?$basic_streambuf@DU?$char_traits@D@std@@@std@@MAEHXZ 1005d168     msvcprtd:MSVCP140D.dll
 0002:0000016c       __imp_?showmanyc@?$basic_streambuf@DU?$char_traits@D@std@@@std@@MAE_JXZ 1005d16c     msvcprtd:MSVCP140D.dll
 0002:00000170       __imp_?_Unlock@?$basic_streambuf@DU?$char_traits@D@std@@@std@@UAEXXZ 1005d170     msvcprtd:MSVCP140D.dll
 0002:00000174       __imp_?_Lock@?$basic_streambuf@DU?$char_traits@D@std@@@std@@UAEXXZ 1005d174     msvcprtd:MSVCP140D.dll
 0002:00000178       __imp___Query_perf_counter 1005d178     msvcprtd:MSVCP140D.dll
 0002:0000017c       __imp___Query_perf_frequency 1005d17c     msvcprtd:MSVCP140D.dll
 0002:00000180       __imp_?_Syserror_map@std@@YAPBDH@Z 1005d180     msvcprtd:MSVCP140D.dll
 0002:00000184       __imp_?_Winerror_map@std@@YAHH@Z 1005d184     msvcprtd:MSVCP140D.dll
 0002:00000188       __imp_?uncaught_exceptions@std@@YAHXZ 1005d188     msvcprtd:MSVCP140D.dll
 0002:0000018c       __imp_?_Getgloballocale@locale@std@@CAPAV_Locimp@12@XZ 1005d18c     msvcprtd:MSVCP140D.dll
 0002:00000190       __imp_?always_noconv@codecvt_base@std@@QBE_NXZ 1005d190     msvcprtd:MSVCP140D.dll
 0002:00000194       __imp_?in@?$codecvt@DDU_Mbstatet@@@std@@QBEHAAU_Mbstatet@@PBD1AAPBDPAD3AAPAD@Z 1005d194     msvcprtd:MSVCP140D.dll
 0002:00000198       __imp_?out@?$codecvt@DDU_Mbstatet@@@std@@QBEHAAU_Mbstatet@@PBD1AAPBDPAD3AAPAD@Z 1005d198     msvcprtd:MSVCP140D.dll
 0002:0000019c       __imp_?unshift@?$codecvt@DDU_Mbstatet@@@std@@QBEHAAU_Mbstatet@@PAD1AAPAD@Z 1005d19c     msvcprtd:MSVCP140D.dll
 0002:000001a0       __imp_?_Getcat@?$codecvt@DDU_Mbstatet@@@std@@SAIPAPBVfacet@locale@2@PBV42@@Z 1005d1a0     msvcprtd:MSVCP140D.dll
 0002:000001a4       __imp_?good@ios_base@std@@QBE_NXZ 1005d1a4     msvcprtd:MSVCP140D.dll
 0002:000001a8       __imp_?flags@ios_base@std@@QBEHXZ 1005d1a8     msvcprtd:MSVCP140D.dll
 0002:000001ac       __imp_?width@ios_base@std@@QBE_JXZ 1005d1ac     msvcprtd:MSVCP140D.dll
 0002:000001b0       __imp_?width@ios_base@std@@QAE_J_J@Z 1005d1b0     msvcprtd:MSVCP140D.dll
 0002:000001b4       __imp_?getloc@?$basic_streambuf@DU?$char_traits@D@std@@@std@@QBE?AVlocale@2@XZ 1005d1b4     msvcprtd:MSVCP140D.dll
 0002:000001b8       __imp_?sputc@?$basic_streambuf@DU?$char_traits@D@std@@@std@@QAEHD@Z 1005d1b8     msvcprtd:MSVCP140D.dll
 0002:000001bc       __imp_?sputn@?$basic_streambuf@DU?$char_traits@D@std@@@std@@QAE_JPBD_J@Z 1005d1bc     msvcprtd:MSVCP140D.dll
 0002:000001c0       __imp_??0_Lockit@std@@QAE@H@Z 1005d1c0     msvcprtd:MSVCP140D.dll
 0002:000001c4       __imp_?_Gndec@?$basic_streambuf@DU?$char_traits@D@std@@@std@@IAEPADXZ 1005d1c4     msvcprtd:MSVCP140D.dll
 0002:000001c8       __imp_?_Gnavail@?$basic_streambuf@DU?$char_traits@D@std@@@std@@IBE_JXZ 1005d1c8     msvcprtd:MSVCP140D.dll
 0002:000001cc       \177MSVCP140D_NULL_THUNK_DATA 1005d1cc     msvcprtd:MSVCP140D.dll
 0002:000001d0       __imp__memset              1005d1d0     vcruntimed:VCRUNTIME140D.dll
 0002:000001d4       __imp____CxxFrameHandler3  1005d1d4     vcruntimed:VCRUNTIME140D.dll
 0002:000001d8       __imp___purecall           1005d1d8     vcruntimed:VCRUNTIME140D.dll
 0002:000001dc       __imp__memmove             1005d1dc     vcruntimed:VCRUNTIME140D.dll
 0002:000001e0       __imp__memcmp              1005d1e0     vcruntimed:VCRUNTIME140D.dll
 0002:000001e4       __imp____std_exception_copy 1005d1e4     vcruntimed:VCRUNTIME140D.dll
 0002:000001e8       __imp____std_exception_destroy 1005d1e8     vcruntimed:VCRUNTIME140D.dll
 0002:000001ec       __imp___CxxThrowException@8 1005d1ec     vcruntimed:VCRUNTIME140D.dll
 0002:000001f0       __imp__memchr              1005d1f0     vcruntimed:VCRUNTIME140D.dll
 0002:000001f4       __imp____current_exception 1005d1f4     vcruntimed:VCRUNTIME140D.dll
 0002:000001f8       __imp____current_exception_context 1005d1f8     vcruntimed:VCRUNTIME140D.dll
 0002:000001fc       __imp___except_handler4_common 1005d1fc     vcruntimed:VCRUNTIME140D.dll
 0002:00000200       __imp____vcrt_GetModuleFileNameW 1005d200     vcruntimed:VCRUNTIME140D.dll
 0002:00000204       __imp____vcrt_GetModuleHandleW 1005d204     vcruntimed:VCRUNTIME140D.dll
 0002:00000208       __imp____vcrt_LoadLibraryExW 1005d208     vcruntimed:VCRUNTIME140D.dll
 0002:0000020c       __imp____std_type_info_destroy_list 1005d20c     vcruntimed:VCRUNTIME140D.dll
 0002:00000210       __imp__memcpy              1005d210     vcruntimed:VCRUNTIME140D.dll
 0002:00000214       \177VCRUNTIME140D_NULL_THUNK_DATA 1005d214     vcruntimed:VCRUNTIME140D.dll
 0002:00000218       __imp___configure_narrow_argv 1005d218     ucrtd:ucrtbased.dll
 0002:0000021c       __imp___free_dbg           1005d21c     ucrtd:ucrtbased.dll
 0002:00000220       __imp___callnewh           1005d220     ucrtd:ucrtbased.dll
 0002:00000224       __imp____stdio_common_vsprintf_s 1005d224     ucrtd:ucrtbased.dll
 0002:00000228       __imp___unlock_file        1005d228     ucrtd:ucrtbased.dll
 0002:0000022c       __imp___lock_file          1005d22c     ucrtd:ucrtbased.dll
 0002:00000230       __imp__ungetc              1005d230     ucrtd:ucrtbased.dll
 0002:00000234       __imp__setvbuf             1005d234     ucrtd:ucrtbased.dll
 0002:00000238       __imp__fwrite              1005d238     ucrtd:ucrtbased.dll
 0002:0000023c       __imp___fseeki64           1005d23c     ucrtd:ucrtbased.dll
 0002:00000240       __imp__fsetpos             1005d240     ucrtd:ucrtbased.dll
 0002:00000244       __imp__fputc               1005d244     ucrtd:ucrtbased.dll
 0002:00000248       __imp__fgetpos             1005d248     ucrtd:ucrtbased.dll
 0002:0000024c       __imp__fgetc               1005d24c     ucrtd:ucrtbased.dll
 0002:00000250       __imp__fflush              1005d250     ucrtd:ucrtbased.dll
 0002:00000254       __imp___malloc_dbg         1005d254     ucrtd:ucrtbased.dll
 0002:00000258       __imp__fread               1005d258     ucrtd:ucrtbased.dll
 0002:0000025c       __imp__fopen               1005d25c     ucrtd:ucrtbased.dll
 0002:00000260       __imp__fclose              1005d260     ucrtd:ucrtbased.dll
 0002:00000264       __imp__strlen              1005d264     ucrtd:ucrtbased.dll
 0002:00000268       __imp__wcslen              1005d268     ucrtd:ucrtbased.dll
 0002:0000026c       __imp___CrtDbgReport       1005d26c     ucrtd:ucrtbased.dll
 0002:00000270       __imp___invoke_watson      1005d270     ucrtd:ucrtbased.dll
 0002:00000274       __imp__rand                1005d274     ucrtd:ucrtbased.dll
 0002:00000278       __imp___fdtest             1005d278     ucrtd:ucrtbased.dll
 0002:0000027c       __imp__qsort               1005d27c     ucrtd:ucrtbased.dll
 0002:00000280       __imp__roundf              1005d280     ucrtd:ucrtbased.dll
 0002:00000284       __imp__floor               1005d284     ucrtd:ucrtbased.dll
 0002:00000288       __imp__sqrt                1005d288     ucrtd:ucrtbased.dll
 0002:0000028c       __imp__fabs                1005d28c     ucrtd:ucrtbased.dll
 0002:00000290       __imp__malloc              1005d290     ucrtd:ucrtbased.dll
 0002:00000294       __imp__free                1005d294     ucrtd:ucrtbased.dll
 0002:00000298       __imp___initialize_narrow_environment 1005d298     ucrtd:ucrtbased.dll
 0002:0000029c       __imp__abort               1005d29c     ucrtd:ucrtbased.dll
 0002:000002a0       __imp_____lc_codepage_func 1005d2a0     ucrtd:ucrtbased.dll
 0002:000002a4       __imp__wcscpy_s            1005d2a4     ucrtd:ucrtbased.dll
 0002:000002a8       __imp___wsplitpath_s       1005d2a8     ucrtd:ucrtbased.dll
 0002:000002ac       __imp___wmakepath_s        1005d2ac     ucrtd:ucrtbased.dll
 0002:000002b0       __imp__terminate           1005d2b0     ucrtd:ucrtbased.dll
 0002:000002b4       __imp___initterm_e         1005d2b4     ucrtd:ucrtbased.dll
 0002:000002b8       __imp___initterm           1005d2b8     ucrtd:ucrtbased.dll
 0002:000002bc       __imp__strcat_s            1005d2bc     ucrtd:ucrtbased.dll
 0002:000002c0       __imp__strcpy_s            1005d2c0     ucrtd:ucrtbased.dll
 0002:000002c4       __imp___cexit              1005d2c4     ucrtd:ucrtbased.dll
 0002:000002c8       __imp___crt_atexit         1005d2c8     ucrtd:ucrtbased.dll
 0002:000002cc       __imp___execute_onexit_table 1005d2cc     ucrtd:ucrtbased.dll
 0002:000002d0       __imp___register_onexit_function 1005d2d0     ucrtd:ucrtbased.dll
 0002:000002d4       __imp___get_stream_buffer_pointers 1005d2d4     ucrtd:ucrtbased.dll
 0002:000002d8       __imp___initialize_onexit_table 1005d2d8     ucrtd:ucrtbased.dll
 0002:000002dc       __imp___seh_filter_dll     1005d2dc     ucrtd:ucrtbased.dll
 0002:000002e0       __imp__ceil                1005d2e0     ucrtd:ucrtbased.dll
 0002:000002e4       \177ucrtbased_NULL_THUNK_DATA 1005d2e4     ucrtd:ucrtbased.dll
 0002:000002e8       ___guard_check_icall_fptr  1005d2e8     MSVCRTD:guard_support.obj
 0002:000002ec       ___castguard_check_failure_os_handled_fptr 1005d2ec     MSVCRTD:guard_support.obj
 0002:000002f0       ___xc_a                    1005d2f0     MSVCRTD:initializers.obj
 0002:000002fc       ___xc_z                    1005d2fc     MSVCRTD:initializers.obj
 0002:00000300       ___xi_a                    1005d300     MSVCRTD:initializers.obj
 0002:00000304       ___xi_z                    1005d304     MSVCRTD:initializers.obj
 0002:00000308       ___xl_a                    1005d308     MSVCRTD:tlssup.obj
 0002:0000030c       ___xl_z                    1005d30c     MSVCRTD:tlssup.obj
 0002:00000310       ___xp_a                    1005d310     MSVCRTD:initializers.obj
 0002:00000314       ___xp_z                    1005d314     MSVCRTD:initializers.obj
 0002:00000318       ___xt_a                    1005d318     MSVCRTD:initializers.obj
 0002:0000031c       ___xt_z                    1005d31c     MSVCRTD:initializers.obj
 0002:00000320       __real@00000000            1005d320     DetourCommon.obj
 0002:00000324       __real@358637bd            1005d324     DetourCommon.obj
 0002:00000328       __real@38d1b717            1005d328     DetourCommon.obj
 0002:0000032c       __real@3a83126f            1005d32c     DetourCommon.obj
 0002:00000330       __real@3f800000            1005d330     DetourCommon.obj
 0002:00000340       __xmm@80000000800000008000000080000000 1005d340     DetourCommon.obj
 0002:000003e0       __real@3c23d70a            1005d3e0     DetourNavMesh.obj
 0002:000003e4       __real@40000000            1005d3e4     DetourNavMesh.obj
 0002:000003e8       __real@437f0000            1005d3e8     DetourNavMesh.obj
 0002:000003ec       __real@7f7fffff            1005d3ec     DetourNavMesh.obj
 0002:000003f0       __real@ff7fffff            1005d3f0     DetourNavMeshBuilder.obj
 0002:000014cc       ??_7dtPolyQuery@@6B@       1005e4cc     DetourNavMeshQuery.obj
 0002:000014d8       ??_7dtFindNearestPolyQuery@@6B@ 1005e4d8     DetourNavMeshQuery.obj
 0002:000014e4       ??_7dtCollectPolysQuery@@6B@ 1005e4e4     DetourNavMeshQuery.obj
 0002:000014ec       __real@38800000            1005e4ec     DetourNavMeshQuery.obj
 0002:000014f0       __real@3b808081            1005e4f0     DetourNavMeshQuery.obj
 0002:000014f4       __real@3dcccccd            1005e4f4     DetourNavMeshQuery.obj
 0002:000014f8       __real@3f000000            1005e4f8     DetourNavMeshQuery.obj
 0002:000014fc       __real@3f7fbe77            1005e4fc     DetourNavMeshQuery.obj
 0002:00001500       __real@42480000            1005e500     DetourNavMeshQuery.obj
 0002:00001504       __real@46fffe00            1005e504     DetourNavMeshQuery.obj
 0002:000018e8       ??_7exception@std@@6B@     1005e8e8     DllMain.obj
 0002:000018f0       ??_C@_0BC@EOODALEL@Unknown?5exception@ 1005e8f0     DllMain.obj
 0002:00001908       ??_7bad_alloc@std@@6B@     1005e908     DllMain.obj
 0002:00001914       ??_7bad_array_new_length@std@@6B@ 1005e914     DllMain.obj
 0002:0000191c       ??_C@_0BF@KINCDENJ@bad?5array?5new?5length@ 1005e91c     DllMain.obj
 0002:00001934       ??_C@_0BB@FCMFBGOM@invalid?5argument@ 1005e934     DllMain.obj
 0002:00001948       ??_C@_02DKCKIIND@?$CFs@    1005e948     DllMain.obj
 0002:00001950       ??_C@_0GC@KLECFGLI@C?3?2Program?5Files?2Microsoft?5Visu@ 1005e950     DllMain.obj
 0002:000019b4       ??_C@_0BO@PFKOHNJC@vector?5subscript?5out?5of?5range@ 1005e9b4     DllMain.obj
 0002:000019d8       ??_C@_0GB@KEIPDMDC@C?3?2Program?5Files?2Microsoft?5Visu@ 1005e9d8     DllMain.obj
 0002:00001a3c       ??_C@_0DG@KGHKKGBC@null?5pointer?5cannot?5point?5to?5a?5@ 1005ea3c     DllMain.obj
 0002:00001a74       ??_C@_0BA@FOIKENOD@vector?5too?5long@ 1005ea74     DllMain.obj
 0002:0000200a       ?piecewise_construct@std@@3Upiecewise_construct_t@1@B 1005f00a     MoveMap.obj
 0002:0000200c       ??_C@_0BJ@LFDBABJJ@ITERATOR?5LIST?5CORRUPTED?$CB@ 1005f00c     MoveMap.obj
 0002:00002028       ?_Min_buckets@?$_Hash@V?$_Umap_traits@IPAVdtNavMeshQuery@@V?$_Uhash_compare@IU?$hash@I@std@@U?$equal_to@I@2@@std@@V?$allocator@U?$pair@$$CBIPAVdtNavMeshQuery@@@std@@@3@$0A@@std@@@std@@2IB 1005f028     MoveMap.obj
 0002:0000202c       ?_Min_buckets@?$_Hash@V?$_Umap_traits@I_KV?$_Uhash_compare@IU?$hash@I@std@@U?$equal_to@I@2@@std@@V?$allocator@U?$pair@$$CBI_K@std@@@2@$0A@@std@@@std@@2IB 1005f02c     MoveMap.obj
 0002:00002030       ?_Min_buckets@?$_Hash@V?$_Umap_traits@IPAUMMapData@MMAP@@V?$_Uhash_compare@IU?$hash@I@std@@U?$equal_to@I@2@@std@@V?$allocator@U?$pair@$$CBIPAUMMapData@MMAP@@@std@@@4@$0A@@std@@@std@@2IB 1005f030     MoveMap.obj
 0002:00002034       ??_C@_0BA@JFNIOLAK@string?5too?5long@ 1005f034     MoveMap.obj
 0002:00002044       ??_C@_0BJ@HAJGEHKO@transposed?5pointer?5range@ 1005f044     MoveMap.obj
 0002:00002060       ??_C@_0GD@GOKHNLI@C?3?2Program?5Files?2Microsoft?5Visu@ 1005f060     MoveMap.obj
 0002:000020c8       ??_7?$basic_stringbuf@DU?$char_traits@D@std@@V?$allocator@D@2@@std@@6B@ 1005f0c8     MoveMap.obj
 0002:00002108       ??_7?$basic_ostringstream@DU?$char_traits@D@std@@V?$allocator@D@2@@std@@6B@ 1005f108     MoveMap.obj
 0002:0000210c       ??_8?$basic_ostringstream@DU?$char_traits@D@std@@V?$allocator@D@2@@std@@7B@ 1005f10c     MoveMap.obj
 0002:00002118       ??_C@_0GC@FCIPFKFB@C?3?2Program?5Files?2Microsoft?5Visu@ 1005f118     MoveMap.obj
 0002:0000217c       ??_C@_0BM@BALDKKHE@list?5iterators?5incompatible@ 1005f17c     MoveMap.obj
 0002:00002198       ??_C@_0FP@IHALIHCI@C?3?2Program?5Files?2Microsoft?5Visu@ 1005f198     MoveMap.obj
 0002:000021f8       ??_C@_0DB@ENBCPNKO@cannot?5increment?5value?9initiali@ 1005f1f8     MoveMap.obj
 0002:0000222c       ??_C@_0CD@PMFMCEG@cannot?5increment?5end?5list?5itera@ 1005f22c     MoveMap.obj
 0002:00002250       ??_C@_0DI@FIGNHEDK@string?5iterators?5in?5range?5are?5f@ 1005f250     MoveMap.obj
 0002:00002288       ??_C@_0CB@KDGGCAAF@string?5iterator?5range?5transpose@ 1005f288     MoveMap.obj
 0002:000022ac       ??_C@_0BI@CFPLBAOH@invalid?5string?5position@ 1005f2ac     MoveMap.obj
 0002:000022c4       ??_C@_0DD@MBIHGLJE@cannot?5dereference?5value?9initia@ 1005f2c4     MoveMap.obj
 0002:000022f8       ??_C@_0CF@JCBFHMPL@cannot?5dereference?5end?5list?5ite@ 1005f2f8     MoveMap.obj
 0002:00002320       ??_C@_0BL@GOIGLPKN@unordered_map?1set?5too?5long@ 1005f320     MoveMap.obj
 0002:0000233c       ??_C@_0BK@OGNNAFAB@invalid?5hash?5bucket?5count@ 1005f33c     MoveMap.obj
 0002:00002360       __xmm@41f00000000000000000000000000000 1005f360     MoveMap.obj
 0002:00002924       ??_C@_0BB@GCADKGJO@map?1set?5too?5long@ 1005f924     Navigation.obj
 0002:00002938       ?MAX_POLYS_BUFFER@Navigation@@0HB 1005f938     Navigation.obj
 0002:00002940       ??_7runtime_error@std@@6B@ 1005f940     Navigation.obj
 0002:0000294c       ??_7_System_error@std@@6B@ 1005f94c     Navigation.obj
 0002:00002954       ??_C@_02LMMGGCAJ@?3?5@     1005f954     Navigation.obj
 0002:0000295c       ??_7system_error@std@@6B@  1005f95c     Navigation.obj
 0002:00002968       ??_7_Generic_error_category@std@@6B@ 1005f968     Navigation.obj
 0002:00002980       ??_C@_07DCLBNMLN@generic@  1005f980     Navigation.obj
 0002:0000298c       ??_7_System_error_category@std@@6B@ 1005f98c     Navigation.obj
 0002:000029a4       ??_C@_06FHFOAHML@system@   1005f9a4     Navigation.obj
 0002:000029ac       ?_Unknown_error@?6??message@_System_error_category@std@@UBE?AV?$basic_string@DU?$char_traits@D@std@@V?$allocator@D@2@@3@H@Z@4QBDB 1005f9ac     Navigation.obj
 0002:000029ba       ?_Is_slash@filesystem@std@@3U_Is_slash_oper@12@B 1005f9ba     Navigation.obj
 0002:000029c0       ??_C@_0EH@GHDJIGCA@cannot?5construct?5a?5string_view?5@ 1005f9c0     Navigation.obj
 0002:00002a08       ??_C@_0HB@BEHJHCCF@C?3?2Program?5Files?2Microsoft?5Visu@ 1005fa08     Navigation.obj
 0002:00002a80       ??_7filesystem_error@filesystem@std@@6B@ 1005fa80     Navigation.obj
 0002:00002a88       ??_C@_03NONCDIOG@?3?5?$CC@ 1005fa88     Navigation.obj
 0002:00002a8c       ??_C@_04PHMHGEMA@?$CC?0?5?$CC@ 1005fa8c     Navigation.obj
 0002:00002a94       ??_C@_13BBDEGPLJ@?$AA?$CK@ 1005fa94     Navigation.obj
 0002:00002a98       ??_C@_0CH@GANCNKKD@directory_iterator?3?3directory_i@ 1005fa98     Navigation.obj
 0002:00002ac0       ??_C@_0BP@DPMCMHCK@directory_iterator?3?3operator?$CL?$CL@ 1005fac0     Navigation.obj
 0002:00002ae0       ??_C@_0DA@GGPHOHEL@map?1set?5erase?5iterator?5from?5inc@ 1005fae0     Navigation.obj
 0002:00002b10       ??_C@_0GA@IINHIBAD@C?3?2Program?5Files?2Microsoft?5Visu@ 1005fb10     Navigation.obj
 0002:00002b70       ??_C@_0CE@JAJNKOFK@cannot?5erase?5map?1set?5end?$CI?$CJ?5iter@ 1005fb70     Navigation.obj
 0002:00002b94       ??_C@_0BO@LFGPDMIB@string?5subscript?5out?5of?5range@ 1005fb94     Navigation.obj
 0002:00002bb4       ??_C@_0BP@OLDKBHLM@map?1set?5iterators?5incompatible@ 1005fbb4     Navigation.obj
 0002:00002bd8       ??_7?$_Ref_count_obj2@U_Dir_enum_impl@filesystem@std@@@std@@6B@ 1005fbd8     Navigation.obj
 0002:00002be8       ??_C@_0DE@DMNPKCGM@cannot?5increment?5value?9initiali@ 1005fbe8     Navigation.obj
 0002:00002c1c       ??_C@_0CG@NLEHEOHN@cannot?5increment?5end?5map?1set?5it@ 1005fc1c     Navigation.obj
 0002:00002c44       ??_C@_0DG@LCFNIIPB@cannot?5dereference?5value?9initia@ 1005fc44     Navigation.obj
 0002:00002c7c       ??_C@_0CI@OKFEHCEB@cannot?5dereference?5end?5map?1set?5@ 1005fc7c     Navigation.obj
 0002:00002ca4       ??_C@_0BD@FEEMDEPI@invalid?5comparator@ 1005fca4     Navigation.obj
 0002:00002cb8       __real@3f666666            1005fcb8     Navigation.obj
 0002:00002cbc       __real@40400000            1005fcbc     Navigation.obj
 0002:00002cc0       __real@41a00000            1005fcc0     Navigation.obj
 0002:00002cc4       __real@42200000            1005fcc4     Navigation.obj
 0002:00002cc8       __real@42700000            1005fcc8     Navigation.obj
 0002:00002ccc       __real@42c80000            1005fccc     Navigation.obj
 0002:00002cd0       __real@43960000            1005fcd0     Navigation.obj
 0002:00002cd4       __real@44055555            1005fcd4     Navigation.obj
 0002:00002cd8       __real@44fa0000            1005fcd8     Navigation.obj
 0002:00002cdc       __real@46855555            1005fcdc     Navigation.obj
 0002:00002ce0       __real@471c4000            1005fce0     Navigation.obj
 0002:00002ce4       __real@49742400            1005fce4     Navigation.obj
 0002:00002ce8       __real@bf800000            1005fce8     Navigation.obj
 0002:00003224       __real@40800000            10060224     NavBridge.obj
 0002:00003898       ??_7bad_cast@std@@6B@      10060898     OffMeshManager.obj
 0002:000038a0       ??_C@_08EPJLHIJG@bad?5cast@ 100608a0     OffMeshManager.obj
 0002:000038ac       ?_Min_buckets@?$_Hash@V?$_Umap_traits@IVOffMeshConnectionSet@MMAP@@V?$_Uhash_compare@IU?$hash@I@std@@U?$equal_to@I@2@@std@@V?$allocator@U?$pair@$$CBIVOffMeshConnectionSet@MMAP@@@std@@@4@$0A@@std@@@std@@2IB 100608ac     OffMeshManager.obj
 0002:000038b4       ??_7?$basic_filebuf@DU?$char_traits@D@std@@@std@@6B@ 100608b4     OffMeshManager.obj
 0002:000038f4       ??_7?$basic_ifstream@DU?$char_traits@D@std@@@std@@6B@ 100608f4     OffMeshManager.obj
 0002:000038f8       ??_8?$basic_ifstream@DU?$char_traits@D@std@@@std@@7B@ 100608f8     OffMeshManager.obj
 0002:00003900       ??_C@_0BP@PFIPNLNI@front?$CI?$CJ?5called?5on?5empty?5string@ 10060900     OffMeshManager.obj
 0002:00003eb8       ??_7?$basic_ofstream@DU?$char_traits@D@std@@@std@@6B@ 10060eb8     PathFinder.obj
 0002:00003ebc       ??_8?$basic_ofstream@DU?$char_traits@D@std@@@std@@7B@ 10060ebc     PathFinder.obj
 0002:00003ec4       ??_C@_0CE@EAMOGAIE@vector?5erase?5iterator?5outside?5r@ 10060ec4     PathFinder.obj
 0002:00003ee8       ??_C@_0DI@PBEELKIF@vector?5iterators?5in?5range?5are?5f@ 10060ee8     PathFinder.obj
 0002:00003f20       ??_C@_0CB@LIAHLBAO@vector?5iterator?5range?5transpose@ 10060f20     PathFinder.obj
 0002:00003f44       ??_C@_0CO@LHPFLLJB@cannot?5seek?5value?9initialized?5v@ 10060f44     PathFinder.obj
 0002:00003f74       ??_C@_0CI@OOHCOPKB@cannot?5seek?5invalidated?5vector?5@ 10060f74     PathFinder.obj
 0002:00003f9c       ??_C@_0CJ@DIFMEJBE@cannot?5seek?5vector?5iterator?5bef@ 10060f9c     PathFinder.obj
 0002:00003fc8       ??_C@_0CG@JDIOCKHH@cannot?5seek?5vector?5iterator?5aft@ 10060fc8     PathFinder.obj
 0002:00003ff0       __real@3e99999a            10060ff0     PathFinder.obj
 0002:00003ff4       __real@3f4ccccd            10060ff4     PathFinder.obj
 0002:00003ff8       __real@3fc00000            10060ff8     PathFinder.obj
 0002:00003ffc       __real@40a00000            10060ffc     PathFinder.obj
 0002:00004000       __real@40e00000            10061000     PathFinder.obj
 0002:00004004       __real@447a0000            10061004     PathFinder.obj
 0002:00004ac8       __real@3f7d70a4            10061ac8     DetourPathCorridor.obj
 0002:00004ae0       ??_7type_info@@6B@         10061ae0     MSVCRTD:std_type_info_static.obj
 0002:00004bc0       ??_C@_0NN@JMPELKLB@The?5value?5of?5ESP?5was?5not?5proper@ 10061bc0     MSVCRTD:error.obj
 0002:00004ca0       ??_C@_0BBN@ELNNILBE@A?5cast?5to?5a?5smaller?5data?5type?5h@ 10061ca0     MSVCRTD:error.obj
 0002:00004dc0       ??_C@_0BN@BPOGFMJL@Stack?5memory?5was?5corrupted?$AN?6@ 10061dc0     MSVCRTD:error.obj
 0002:00004de0       ??_C@_0DG@DAJCDLPN@A?5local?5variable?5was?5used?5befor@ 10061de0     MSVCRTD:error.obj
 0002:00004e18       ??_C@_0CM@JMIDGKLA@Stack?5memory?5around?5_alloca?5was@ 10061e18     MSVCRTD:error.obj
 0002:00004e44       ??_C@_0BO@CHIONIOI@Unknown?5Runtime?5Check?5Error?$AN?6@ 10061e44     MSVCRTD:error.obj
 0002:00004e68       ??_C@_1GM@CNOOJIHC@?$AAR?$AAu?$AAn?$AAt?$AAi?$AAm?$AAe?$AA?5?$AAC?$AAh?$AAe?$AAc?$AAk?$AA?5?$AAE@ 10061e68     MSVCRTD:error.obj
 0002:00004ed8       ??_C@_1EA@NFKNIFJP@?$AAR?$AAu?$AAn?$AA?9?$AAT?$AAi?$AAm?$AAe?$AA?5?$AAC?$AAh?$AAe?$AAc?$AAk?$AA?5@ 10061ed8     MSVCRTD:error.obj
 0002:00004f18       ??_C@_0BB@PFFGGCJP@Unknown?5Filename@ 10061f18     MSVCRTD:error.obj
 0002:00004f2c       ??_C@_0BE@GNBOBNCK@Unknown?5Module?5Name@ 10061f2c     MSVCRTD:error.obj
 0002:00004f40       ??_C@_0CA@IODNCDPG@Run?9Time?5Check?5Failure?5?$CD?$CFd?5?9?5?$CFs@ 10061f40     MSVCRTD:error.obj
 0002:00004f60       ??_C@_0CG@IAFNJNEE@Stack?5corrupted?5near?5unknown?5va@ 10061f60     MSVCRTD:error.obj
 0002:00004f88       ??_C@_0DE@OHJBPMBP@A?5variable?5is?5being?5used?5withou@ 10061f88     MSVCRTD:error.obj
 0002:00004fbc       __pDefaultRawDllMain       10061fbc     MSVCRTD:dll_dllmain.obj
 0002:00004fbc       __pRawDllMain              10061fbc     MSVCRTD:dll_dllmain.obj
 0002:00004fd4       ??_C@_0BJ@HEGAHDFO@Stack?5pointer?5corruption@ 10061fd4     MSVCRTD:userapi.obj
 0002:00004ff0       ??_C@_0CK@FEGOIOPB@Cast?5to?5smaller?5type?5causing?5lo@ 10061ff0     MSVCRTD:userapi.obj
 0002:0000501c       ??_C@_0BI@CIGMDCBH@Stack?5memory?5corruption@ 1006201c     MSVCRTD:userapi.obj
 0002:00005034       ??_C@_0CK@CNLNOEPB@Local?5variable?5used?5before?5init@ 10062034     MSVCRTD:userapi.obj
 0002:00005060       ??_C@_0BP@OGBCLIBO@Stack?5around?5_alloca?5corrupted@ 10062060     MSVCRTD:userapi.obj
 0002:00005088       ??_C@_0P@GHFPNOJB@bad?5allocation@ 10062088     MSVCRTD:throw_bad_alloc.obj
 0002:000050e0       ??_C@_1EI@MLPKHBGE@?$AAa?$AAp?$AAi?$AA?9?$AAm?$AAs?$AA?9?$AAw?$AAi?$AAn?$AA?9?$AAc?$AAo?$AAr?$AAe@ 100620e0     MSVCRTD:pdblkup.obj
 0002:00005128       ??_C@_1BK@JHLNAEJL@?$AAa?$AAd?$AAv?$AAa?$AAp?$AAi?$AA3?$AA2?$AA?4?$AAd?$AAl?$AAl@ 10062128     MSVCRTD:pdblkup.obj
 0002:00005144       ??_C@_0O@COHOBMLB@RegOpenKeyExW@ 10062144     MSVCRTD:pdblkup.obj
 0002:00005154       ??_C@_0BB@GLNAEDBD@RegQueryValueExW@ 10062154     MSVCRTD:pdblkup.obj
 0002:00005168       ??_C@_0M@HLOHPNFA@RegCloseKey@ 10062168     MSVCRTD:pdblkup.obj
 0002:00005178       ??_C@_1HE@EBEAGLFB@?$AAS?$AAO?$AAF?$AAT?$AAW?$AAA?$AAR?$AAE?$AA?2?$AAW?$AAo?$AAw?$AA6?$AA4?$AA3@ 10062178     MSVCRTD:pdblkup.obj
 0002:000051ec       ??_C@_1BG@EABPBLLF@?$AAP?$AAr?$AAo?$AAd?$AAu?$AAc?$AAt?$AAD?$AAi?$AAr@ 100621ec     MSVCRTD:pdblkup.obj
 0002:00005220       ??_C@_1BC@JINFINNJ@?$AAM?$AAS?$AAP?$AAD?$AAB?$AA1?$AA4?$AA0@ 10062220     MSVCRTD:pdblkup.obj
 0002:00005234       ??_C@_0BB@KCIACLNC@PDBOpenValidate5@ 10062234     MSVCRTD:pdblkup.obj
 0002:00005248       ??_C@_01KDCPPGHE@r@        10062248     MSVCRTD:pdblkup.obj
 0002:00007780       __ymm@0000001f0000001f0000001f0000001f0000001f0000001f0000001f0000001f 10064780     msvcprtd:vector_algorithms.obj
 0002:000078a0       ??_C@_1CM@BFAMBNFD@?$AA?$CB?$AAx?$AA?9?$AAs?$AAy?$AAs?$AA?9?$AAd?$AAe?$AAf?$AAa?$AAu?$AAl?$AAt?$AA?9@ 100648a0     msvcprtd:syserror_import_lib.obj
 0002:000078cc       ??_C@_0DK@PCBCHJKC@D?3?2a?2_work?21?2s?2src?2vctools?2crt?2@ 100648cc     msvcprtd:locale0_implib.obj
 0002:00007908       __load_config_used         10064908     MSVCRTD:loadcfg.obj
 0002:00007a40       __tls_used                 10064a40     MSVCRTD:tlssup.obj
 0002:00007a58       ??_R4dtPolyQuery@@6B@      10064a58     DetourNavMeshQuery.obj
 0002:00007a6c       ??_R3dtPolyQuery@@8        10064a6c     DetourNavMeshQuery.obj
 0002:00007a7c       ??_R2dtPolyQuery@@8        10064a7c     DetourNavMeshQuery.obj
 0002:00007a84       ??_R1A@?0A@EA@dtPolyQuery@@8 10064a84     DetourNavMeshQuery.obj
 0002:00007aa0       ??_R4dtFindNearestPolyQuery@@6B@ 10064aa0     DetourNavMeshQuery.obj
 0002:00007ab4       ??_R3dtFindNearestPolyQuery@@8 10064ab4     DetourNavMeshQuery.obj
 0002:00007ac4       ??_R2dtFindNearestPolyQuery@@8 10064ac4     DetourNavMeshQuery.obj
 0002:00007ad0       ??_R1A@?0A@EA@dtFindNearestPolyQuery@@8 10064ad0     DetourNavMeshQuery.obj
 0002:00007aec       ??_R4dtCollectPolysQuery@@6B@ 10064aec     DetourNavMeshQuery.obj
 0002:00007b00       ??_R3dtCollectPolysQuery@@8 10064b00     DetourNavMeshQuery.obj
 0002:00007b10       ??_R2dtCollectPolysQuery@@8 10064b10     DetourNavMeshQuery.obj
 0002:00007b1c       ??_R1A@?0A@EA@dtCollectPolysQuery@@8 10064b1c     DetourNavMeshQuery.obj
 0002:00007b38       ??_R4exception@std@@6B@    10064b38     DllMain.obj
 0002:00007b4c       ??_R3exception@std@@8      10064b4c     DllMain.obj
 0002:00007b5c       ??_R2exception@std@@8      10064b5c     DllMain.obj
 0002:00007b64       ??_R1A@?0A@EA@exception@std@@8 10064b64     DllMain.obj
 0002:00007b80       ??_R4bad_array_new_length@std@@6B@ 10064b80     DllMain.obj
 0002:00007b94       ??_R3bad_array_new_length@std@@8 10064b94     DllMain.obj
 0002:00007ba4       ??_R2bad_array_new_length@std@@8 10064ba4     DllMain.obj
 0002:00007bb4       ??_R1A@?0A@EA@bad_array_new_length@std@@8 10064bb4     DllMain.obj
 0002:00007bd0       ??_R1A@?0A@EA@bad_alloc@std@@8 10064bd0     DllMain.obj
 0002:00007bec       ??_R3bad_alloc@std@@8      10064bec     DllMain.obj
 0002:00007bfc       ??_R2bad_alloc@std@@8      10064bfc     DllMain.obj
 0002:00007c08       ??_R4bad_alloc@std@@6B@    10064c08     DllMain.obj
 0002:00007c1c       ??_R4?$basic_stringbuf@DU?$char_traits@D@std@@V?$allocator@D@2@@std@@6B@ 10064c1c     MoveMap.obj
 0002:00007c30       ??_R3?$basic_stringbuf@DU?$char_traits@D@std@@V?$allocator@D@2@@std@@8 10064c30     MoveMap.obj
 0002:00007c40       ??_R2?$basic_stringbuf@DU?$char_traits@D@std@@V?$allocator@D@2@@std@@8 10064c40     MoveMap.obj
 0002:00007c4c       ??_R1A@?0A@EA@?$basic_stringbuf@DU?$char_traits@D@std@@V?$allocator@D@2@@std@@8 10064c4c     MoveMap.obj
 0002:00007c68       ??_R1A@?0A@EA@?$basic_streambuf@DU?$char_traits@D@std@@@std@@8 10064c68     MoveMap.obj
 0002:00007c84       ??_R3?$basic_streambuf@DU?$char_traits@D@std@@@std@@8 10064c84     MoveMap.obj
 0002:00007c94       ??_R2?$basic_streambuf@DU?$char_traits@D@std@@@std@@8 10064c94     MoveMap.obj
 0002:00007c9c       ??_R4?$basic_ostringstream@DU?$char_traits@D@std@@V?$allocator@D@2@@std@@6B@ 10064c9c     MoveMap.obj
 0002:00007cb0       ??_R3?$basic_ostringstream@DU?$char_traits@D@std@@V?$allocator@D@2@@std@@8 10064cb0     MoveMap.obj
 0002:00007cc0       ??_R2?$basic_ostringstream@DU?$char_traits@D@std@@V?$allocator@D@2@@std@@8 10064cc0     MoveMap.obj
 0002:00007cd8       ??_R1A@?0A@EA@?$basic_ostringstream@DU?$char_traits@D@std@@V?$allocator@D@2@@std@@8 10064cd8     MoveMap.obj
 0002:00007cf4       ??_R1A@?0A@EA@?$basic_ostream@DU?$char_traits@D@std@@@std@@8 10064cf4     MoveMap.obj
 0002:00007d10       ??_R3?$basic_ostream@DU?$char_traits@D@std@@@std@@8 10064d10     MoveMap.obj
 0002:00007d20       ??_R2?$basic_ostream@DU?$char_traits@D@std@@@std@@8 10064d20     MoveMap.obj
 0002:00007d34       ??_R1A@A@3FA@?$basic_ios@DU?$char_traits@D@std@@@std@@8 10064d34     MoveMap.obj
 0002:00007d50       ??_R3?$basic_ios@DU?$char_traits@D@std@@@std@@8 10064d50     MoveMap.obj
 0002:00007d60       ??_R2?$basic_ios@DU?$char_traits@D@std@@@std@@8 10064d60     MoveMap.obj
 0002:00007d70       ??_R1A@?0A@EA@?$basic_ios@DU?$char_traits@D@std@@@std@@8 10064d70     MoveMap.obj
 0002:00007d8c       ??_R1A@?0A@EA@ios_base@std@@8 10064d8c     MoveMap.obj
 0002:00007da8       ??_R3ios_base@std@@8       10064da8     MoveMap.obj
 0002:00007db8       ??_R2ios_base@std@@8       10064db8     MoveMap.obj
 0002:00007dc4       ??_R17?0A@EA@?$_Iosb@H@std@@8 10064dc4     MoveMap.obj
 0002:00007de0       ??_R3?$_Iosb@H@std@@8      10064de0     MoveMap.obj
 0002:00007df0       ??_R2?$_Iosb@H@std@@8      10064df0     MoveMap.obj
 0002:00007df8       ??_R1A@?0A@EA@?$_Iosb@H@std@@8 10064df8     MoveMap.obj
 0002:00007e14       ??_R1A@A@3EA@ios_base@std@@8 10064e14     MoveMap.obj
 0002:00007e30       ??_R17A@3EA@?$_Iosb@H@std@@8 10064e30     MoveMap.obj
 0002:00007e4c       ??_R4runtime_error@std@@6B@ 10064e4c     Navigation.obj
 0002:00007e60       ??_R3runtime_error@std@@8  10064e60     Navigation.obj
 0002:00007e70       ??_R2runtime_error@std@@8  10064e70     Navigation.obj
 0002:00007e7c       ??_R1A@?0A@EA@runtime_error@std@@8 10064e7c     Navigation.obj
 0002:00007e98       ??_R3error_category@std@@8 10064e98     Navigation.obj
 0002:00007ea8       ??_R2error_category@std@@8 10064ea8     Navigation.obj
 0002:00007eb0       ??_R1A@?0A@EA@error_category@std@@8 10064eb0     Navigation.obj
 0002:00007ecc       ??_R4_System_error@std@@6B@ 10064ecc     Navigation.obj
 0002:00007ee0       ??_R3_System_error@std@@8  10064ee0     Navigation.obj
 0002:00007ef0       ??_R2_System_error@std@@8  10064ef0     Navigation.obj
 0002:00007f00       ??_R1A@?0A@EA@_System_error@std@@8 10064f00     Navigation.obj
 0002:00007f1c       ??_R4system_error@std@@6B@ 10064f1c     Navigation.obj
 0002:00007f30       ??_R3system_error@std@@8   10064f30     Navigation.obj
 0002:00007f40       ??_R2system_error@std@@8   10064f40     Navigation.obj
 0002:00007f54       ??_R1A@?0A@EA@system_error@std@@8 10064f54     Navigation.obj
 0002:00007f70       ??_R4_Generic_error_category@std@@6B@ 10064f70     Navigation.obj
 0002:00007f84       ??_R3_Generic_error_category@std@@8 10064f84     Navigation.obj
 0002:00007f94       ??_R2_Generic_error_category@std@@8 10064f94     Navigation.obj
 0002:00007fa0       ??_R1A@?0A@EA@_Generic_error_category@std@@8 10064fa0     Navigation.obj
 0002:00007fbc       ??_R4_System_error_category@std@@6B@ 10064fbc     Navigation.obj
 0002:00007fd0       ??_R3_System_error_category@std@@8 10064fd0     Navigation.obj
 0002:00007fe0       ??_R2_System_error_category@std@@8 10064fe0     Navigation.obj
 0002:00007fec       ??_R1A@?0A@EA@_System_error_category@std@@8 10064fec     Navigation.obj
 0002:00008008       ??_R3_Ref_count_base@std@@8 10065008     Navigation.obj
 0002:00008018       ??_R2_Ref_count_base@std@@8 10065018     Navigation.obj
 0002:00008020       ??_R1A@?0A@EA@_Ref_count_base@std@@8 10065020     Navigation.obj
 0002:0000803c       ??_R4filesystem_error@filesystem@std@@6B@ 1006503c     Navigation.obj
 0002:00008050       ??_R3filesystem_error@filesystem@std@@8 10065050     Navigation.obj
 0002:00008060       ??_R2filesystem_error@filesystem@std@@8 10065060     Navigation.obj
 0002:00008078       ??_R1A@?0A@EA@filesystem_error@filesystem@std@@8 10065078     Navigation.obj
 0002:00008094       ??_R4?$_Ref_count_obj2@U_Dir_enum_impl@filesystem@std@@@std@@6B@ 10065094     Navigation.obj
 0002:000080a8       ??_R3?$_Ref_count_obj2@U_Dir_enum_impl@filesystem@std@@@std@@8 100650a8     Navigation.obj
 0002:000080b8       ??_R2?$_Ref_count_obj2@U_Dir_enum_impl@filesystem@std@@@std@@8 100650b8     Navigation.obj
 0002:000080c4       ??_R1A@?0A@EA@?$_Ref_count_obj2@U_Dir_enum_impl@filesystem@std@@@std@@8 100650c4     Navigation.obj
 0002:000080e0       ??_R4?$basic_filebuf@DU?$char_traits@D@std@@@std@@6B@ 100650e0     OffMeshManager.obj
 0002:000080f4       ??_R3?$basic_filebuf@DU?$char_traits@D@std@@@std@@8 100650f4     OffMeshManager.obj
 0002:00008104       ??_R2?$basic_filebuf@DU?$char_traits@D@std@@@std@@8 10065104     OffMeshManager.obj
 0002:00008110       ??_R1A@?0A@EA@?$basic_filebuf@DU?$char_traits@D@std@@@std@@8 10065110     OffMeshManager.obj
 0002:0000812c       ??_R4?$basic_ifstream@DU?$char_traits@D@std@@@std@@6B@ 1006512c     OffMeshManager.obj
 0002:00008140       ??_R3?$basic_ifstream@DU?$char_traits@D@std@@@std@@8 10065140     OffMeshManager.obj
 0002:00008150       ??_R2?$basic_ifstream@DU?$char_traits@D@std@@@std@@8 10065150     OffMeshManager.obj
 0002:00008168       ??_R1A@?0A@EA@?$basic_ifstream@DU?$char_traits@D@std@@@std@@8 10065168     OffMeshManager.obj
 0002:00008184       ??_R1A@?0A@EA@?$basic_istream@DU?$char_traits@D@std@@@std@@8 10065184     OffMeshManager.obj
 0002:000081a0       ??_R3?$basic_istream@DU?$char_traits@D@std@@@std@@8 100651a0     OffMeshManager.obj
 0002:000081b0       ??_R2?$basic_istream@DU?$char_traits@D@std@@@std@@8 100651b0     OffMeshManager.obj
 0002:000081c4       ??_R4bad_cast@std@@6B@     100651c4     OffMeshManager.obj
 0002:000081d8       ??_R3bad_cast@std@@8       100651d8     OffMeshManager.obj
 0002:000081e8       ??_R2bad_cast@std@@8       100651e8     OffMeshManager.obj
 0002:000081f4       ??_R1A@?0A@EA@bad_cast@std@@8 100651f4     OffMeshManager.obj
 0002:00008210       ??_R4?$basic_ofstream@DU?$char_traits@D@std@@@std@@6B@ 10065210     PathFinder.obj
 0002:00008224       ??_R3?$basic_ofstream@DU?$char_traits@D@std@@@std@@8 10065224     PathFinder.obj
 0002:00008234       ??_R2?$basic_ofstream@DU?$char_traits@D@std@@@std@@8 10065234     PathFinder.obj
 0002:0000824c       ??_R1A@?0A@EA@?$basic_ofstream@DU?$char_traits@D@std@@@std@@8 1006524c     PathFinder.obj
 0002:00008268       ??_R4type_info@@6B@        10065268     MSVCRTD:std_type_info_static.obj
 0002:0000827c       ??_R3type_info@@8          1006527c     MSVCRTD:std_type_info_static.obj
 0002:0000828c       ??_R2type_info@@8          1006528c     MSVCRTD:std_type_info_static.obj
 0002:00008294       ??_R1A@?0A@EA@type_info@@8 10065294     MSVCRTD:std_type_info_static.obj
 0002:000082b0       ___safe_se_handler_table   100652b0     <linker-defined>
 0002:00008494       ___volatile_metadata       10065494     <linker-defined>
 0002:00009490       ___rtc_iaa                 10066490     MSVCRTD:initsect.obj
 0002:00009494       ___rtc_izz                 10066494     MSVCRTD:initsect.obj
 0002:00009498       ___rtc_taa                 10066498     MSVCRTD:initsect.obj
 0002:0000949c       ___rtc_tzz                 1006649c     MSVCRTD:initsect.obj
 0002:000094a0       __tls_start                100664a0     MSVCRTD:tlssup.obj
 0002:000094a4       __Init_thread_epoch        100664a4     MSVCRTD:thread_safe_statics.obj
 0002:000094a8       __tls_end                  100664a8     MSVCRTD:tlssup.obj
 0002:000095c4       __CT??_R0?AVexception@std@@@8??0exception@std@@QAE@ABV01@@Z12 100665c4     DllMain.obj
 0002:000095e0       __TI3?AVbad_array_new_length@std@@ 100665e0     DllMain.obj
 0002:000095f0       __CTA3?AVbad_array_new_length@std@@ 100665f0     DllMain.obj
 0002:00009600       __CT??_R0?AVbad_array_new_length@std@@@8??0bad_array_new_length@std@@QAE@ABV01@@Z12 10066600     DllMain.obj
 0002:0000961c       __CT??_R0?AVbad_alloc@std@@@8??0bad_alloc@std@@QAE@ABV01@@Z12 1006661c     DllMain.obj
 0002:0000a350       __CT??_R0?AVruntime_error@std@@@8??0runtime_error@std@@QAE@ABV01@@Z12 10067350     Navigation.obj
 0002:0000a36c       __TI4?AVsystem_error@std@@ 1006736c     Navigation.obj
 0002:0000a37c       __CTA4?AVsystem_error@std@@ 1006737c     Navigation.obj
 0002:0000a390       __CT??_R0?AVsystem_error@std@@@8??0system_error@std@@QAE@ABV01@@Z20 10067390     Navigation.obj
 0002:0000a3ac       __CT??_R0?AV_System_error@std@@@8??0_System_error@std@@QAE@ABV01@@Z20 100673ac     Navigation.obj
 0002:0000a3c8       __TI5?AVfilesystem_error@filesystem@std@@ 100673c8     Navigation.obj
 0002:0000a3d8       __CTA5?AVfilesystem_error@filesystem@std@@ 100673d8     Navigation.obj
 0002:0000a3f0       __CT??_R0?AVfilesystem_error@filesystem@std@@@8??0filesystem_error@filesystem@std@@QAE@ABV012@@Z104 100673f0     Navigation.obj
 0002:0000a778       __TI2?AVbad_cast@std@@     10067778     OffMeshManager.obj
 0002:0000a788       __CTA2?AVbad_cast@std@@    10067788     OffMeshManager.obj
 0002:0000a794       __CT??_R0?AVbad_cast@std@@@8??0bad_cast@std@@QAE@ABV01@@Z12 10067794     OffMeshManager.obj
 0002:0000ac04       __TI2?AVbad_alloc@std@@    10067c04     MSVCRTD:throw_bad_alloc.obj
 0002:0000ac14       __CTA2?AVbad_alloc@std@@   10067c14     MSVCRTD:throw_bad_alloc.obj
 0002:0000b56c       __IMPORT_DESCRIPTOR_KERNEL32 1006856c     kernel32:KERNEL32.dll
 0002:0000b580       __IMPORT_DESCRIPTOR_MSVCP140D 10068580     msvcprtd:MSVCP140D.dll
 0002:0000b594       __IMPORT_DESCRIPTOR_VCRUNTIME140D 10068594     vcruntimed:VCRUNTIME140D.dll
 0002:0000b5a8       __IMPORT_DESCRIPTOR_ucrtbased 100685a8     ucrtd:ucrtbased.dll
 0002:0000b5bc       __NULL_IMPORT_DESCRIPTOR   100685bc     kernel32:KERNEL32.dll
 0003:0000000c       ?_Static@?1???$_Immortalize_memcpy_image@V_Generic_error_category@std@@@std@@YAABV_Generic_error_category@1@XZ@4V21@B 1006b00c     Navigation.obj
 0003:00000014       ?_Static@?1???$_Immortalize_memcpy_image@V_System_error_category@std@@@std@@YAABV_System_error_category@1@XZ@4V21@B 1006b014     Navigation.obj
 0003:00000040       ___security_cookie         1006b040     MSVCRTD:gs_cookie.obj
 0003:00000080       ___security_cookie_complement 1006b080     MSVCRTD:gs_cookie.obj
 0003:00000084       __fltused                  1006b084     MSVCRTD:fltused.obj
 0003:00000090       __Init_global_epoch        1006b090     MSVCRTD:thread_safe_statics.obj
 0003:000000a0       ___scrt_native_dllmain_reason 1006b0a0     MSVCRTD:utility.obj
 0003:000000a4       ?_RTC_ErrorLevels@@3PAHA   1006b0a4     MSVCRTD:error.obj
 0003:000000b8       ___isa_inverted            1006b0b8     MSVCRTD:cpu_disp.obj
 0003:000000c0       ___isa_enabled             1006b0c0     MSVCRTD:cpu_disp.obj
 0003:000000c4       ___scrt_ucrt_dll_is_in_use 1006b0c4     MSVCRTD:ucrt_stubs.obj
 0003:000000c8       ??_R0?AVexception@std@@@8  1006b0c8     DllMain.obj
 0003:000000e4       ??_R0?AVbad_array_new_length@std@@@8 1006b0e4     DllMain.obj
 0003:0000010c       ??_R0?AVbad_alloc@std@@@8  1006b10c     DllMain.obj
 0003:00000128       ??_R0?AVruntime_error@std@@@8 1006b128     Navigation.obj
 0003:00000148       ??_R0?AVsystem_error@std@@@8 1006b148     Navigation.obj
 0003:00000168       ??_R0?AV_System_error@std@@@8 1006b168     Navigation.obj
 0003:00000188       ??_R0?AVfilesystem_error@filesystem@std@@@8 1006b188     Navigation.obj
 0003:000001b8       ??_R0?AVbad_cast@std@@@8   1006b1b8     OffMeshManager.obj
 0003:000001d8       ??_R0?AVdtPolyQuery@@@8    1006b1d8     DetourNavMeshQuery.obj
 0003:000001f4       ??_R0?AVdtFindNearestPolyQuery@@@8 1006b1f4     DetourNavMeshQuery.obj
 0003:0000021c       ??_R0?AVdtCollectPolysQuery@@@8 1006b21c     DetourNavMeshQuery.obj
 0003:00000240       ??_R0?AV?$basic_stringbuf@DU?$char_traits@D@std@@V?$allocator@D@2@@std@@@8 1006b240     MoveMap.obj
 0003:00000290       ??_R0?AV?$basic_streambuf@DU?$char_traits@D@std@@@std@@@8 1006b290     MoveMap.obj
 0003:000002d0       ??_R0?AV?$basic_ostringstream@DU?$char_traits@D@std@@V?$allocator@D@2@@std@@@8 1006b2d0     MoveMap.obj
 0003:00000324       ??_R0?AV?$basic_ostream@DU?$char_traits@D@std@@@std@@@8 1006b324     MoveMap.obj
 0003:00000360       ??_R0?AV?$basic_ios@DU?$char_traits@D@std@@@std@@@8 1006b360     MoveMap.obj
 0003:00000398       ??_R0?AVios_base@std@@@8   1006b398     MoveMap.obj
 0003:000003b4       ??_R0?AV?$_Iosb@H@std@@@8  1006b3b4     MoveMap.obj
 0003:000003d0       ??_R0?AVerror_category@std@@@8 1006b3d0     Navigation.obj
 0003:000003f4       ??_R0?AV_Generic_error_category@std@@@8 1006b3f4     Navigation.obj
 0003:00000420       ??_R0?AV_System_error_category@std@@@8 1006b420     Navigation.obj
 0003:0000044c       ??_R0?AV_Ref_count_base@std@@@8 1006b44c     Navigation.obj
 0003:00000470       ??_R0?AV?$_Ref_count_obj2@U_Dir_enum_impl@filesystem@std@@@std@@@8 1006b470     Navigation.obj
 0003:000004b8       ??_R0?AV?$basic_filebuf@DU?$char_traits@D@std@@@std@@@8 1006b4b8     OffMeshManager.obj
 0003:000004f4       ??_R0?AV?$basic_ifstream@DU?$char_traits@D@std@@@std@@@8 1006b4f4     OffMeshManager.obj
 0003:00000530       ??_R0?AV?$basic_istream@DU?$char_traits@D@std@@@std@@@8 1006b530     OffMeshManager.obj
 0003:0000056c       ??_R0?AV?$basic_ofstream@DU?$char_traits@D@std@@@std@@@8 1006b56c     PathFinder.obj
 0003:000005a8       ??_R0?AVtype_info@@@8      1006b5a8     MSVCRTD:std_type_info_static.obj
 0003:000005c4       ?thr@?1??dtVequal@@YA_NPBM0@Z@4MB 1006b5c4     DetourNavMeshQuery.obj
 0003:000005c8       ?$TSS0@?1??dtVequal@@YA_NPBM0@Z@4HA 1006b5c8     DetourNavMeshQuery.obj
 0003:000005cc       __Avx2WmemEnabled          1006b5cc     DllMain.obj
 0003:000005cc       __Avx2WmemEnabledWeakValue 1006b5cc     DllMain.obj
 0003:000005d0       ?g_dtPathRandomizationEnabled@@3_NA 1006b5d0     DllMain.obj
 0003:000005d4       ?g_dtPathRandomizationMagnitude@@3MA 1006b5d4     DllMain.obj
 0003:000005d8       ?g_MMapManager@MMAP@@3PAVMMapManager@1@A 1006b5d8     MoveMap.obj
 0003:000005dc       ?s_singletonInstance@Navigation@@0PAV1@A 1006b5dc     Navigation.obj
 0003:000005f0       ?_OptionsStorage@?1??__local_stdio_printf_options@@9@4_KA 1006b5f0     OffMeshManager.obj
 0003:00000624       ?_Psave@?$_Facetptr@V?$codecvt@DDU_Mbstatet@@@std@@@std@@2PBVfacet@locale@2@B 1006b624     OffMeshManager.obj
 0003:00000628       ?_Stinit@?1??_Init@?$basic_filebuf@DU?$char_traits@D@std@@@std@@IAEXPAU_iobuf@@W4_Initfl@23@@Z@4U_Mbstatet@@A 1006b628     OffMeshManager.obj
 0003:00000638       __tls_index                1006b638     MSVCRTD:tlssup.obj
 0003:0000063c       ___scrt_current_native_startup_state 1006b63c     MSVCRTD:utility.obj
 0003:00000640       ___scrt_native_startup_lock 1006b640     MSVCRTD:utility.obj
 0003:0000098c       ___avx10_version           1006b98c     MSVCRTD:cpu_disp.obj
 0003:00000990       ___isa_available           1006b990     MSVCRTD:cpu_disp.obj
 0003:00000994       ___favor                   1006b994     MSVCRTD:cpu_disp.obj
 0003:00000998       ___scrt_debugger_hook_flag 1006b998     MSVCRTD:utility_desktop.obj
 0003:000009a8       ?__type_info_root_node@@3U__type_info_node@@A 1006b9a8     MSVCRTD:tncleanup.obj
 0003:000009b0       ?_OptionsStorage@?1??__local_stdio_scanf_options@@9@4_KA 1006b9b0     MSVCRTD:default_local_stdio_options.obj
 0003:000009c0       ___dyn_tls_init_callback   1006b9c0     <common>
 0003:000009c4       ___DebuggerCurrentSteppingThreadId 1006b9c4     <common>

 entry point at        0001:00056270

 Static symbols

 0000:fff8e000       .debug$S                   10000000     Navigation.exp
 0000:fff8e000       .debug$S                   10000000     ucrtd:ucrtbased.dll
 0000:fff8e000       .debug$S                   10000000     ucrtd:ucrtbased.dll
 0000:fff8e000       .debug$S                   10000000     ucrtd:ucrtbased.dll
 0000:fff8e000       .debug$S                   10000000     ucrtd:ucrtbased.dll
 0000:fff8e000       .debug$S                   10000000     ucrtd:ucrtbased.dll
 0000:fff8e000       .debug$S                   10000000     ucrtd:ucrtbased.dll
 0000:fff8e000       .debug$S                   10000000     ucrtd:ucrtbased.dll
 0000:fff8e000       .debug$S                   10000000     ucrtd:ucrtbased.dll
 0000:fff8e000       .debug$S                   10000000     ucrtd:ucrtbased.dll
 0000:fff8e000       .debug$S                   10000000     ucrtd:ucrtbased.dll
 0000:fff8e000       .debug$S                   10000000     ucrtd:ucrtbased.dll
 0000:fff8e000       .debug$S                   10000000     ucrtd:ucrtbased.dll
 0000:fff8e000       .debug$S                   10000000     ucrtd:ucrtbased.dll
 0000:fff8e000       .debug$S                   10000000     ucrtd:ucrtbased.dll
 0000:fff8e000       .debug$S                   10000000     ucrtd:ucrtbased.dll
 0000:fff8e000       .debug$S                   10000000     ucrtd:ucrtbased.dll
 0000:fff8e000       .debug$S                   10000000     ucrtd:ucrtbased.dll
 0000:fff8e000       .debug$S                   10000000     ucrtd:ucrtbased.dll
 0000:fff8e000       .debug$S                   10000000     ucrtd:ucrtbased.dll
 0000:fff8e000       .debug$S                   10000000     ucrtd:ucrtbased.dll
 0000:fff8e000       .debug$S                   10000000     ucrtd:ucrtbased.dll
 0000:fff8e000       .debug$S                   10000000     ucrtd:ucrtbased.dll
 0000:fff8e000       .debug$S                   10000000     ucrtd:ucrtbased.dll
 0000:fff8e000       .debug$S                   10000000     ucrtd:ucrtbased.dll
 0000:fff8e000       .debug$S                   10000000     ucrtd:ucrtbased.dll
 0000:fff8e000       .debug$S                   10000000     ucrtd:ucrtbased.dll
 0000:fff8e000       .debug$S                   10000000     ucrtd:ucrtbased.dll
 0000:fff8e000       .debug$S                   10000000     ucrtd:ucrtbased.dll
 0000:fff8e000       .debug$S                   10000000     ucrtd:ucrtbased.dll
 0000:fff8e000       .debug$S                   10000000     ucrtd:ucrtbased.dll
 0000:fff8e000       .debug$S                   10000000     ucrtd:ucrtbased.dll
 0000:fff8e000       .debug$S                   10000000     ucrtd:ucrtbased.dll
 0000:fff8e000       .debug$S                   10000000     ucrtd:ucrtbased.dll
 0000:fff8e000       .debug$S                   10000000     ucrtd:ucrtbased.dll
 0000:fff8e000       .debug$S                   10000000     ucrtd:ucrtbased.dll
 0000:fff8e000       .debug$S                   10000000     ucrtd:ucrtbased.dll
 0000:fff8e000       .debug$S                   10000000     ucrtd:ucrtbased.dll
 0000:fff8e000       .debug$S                   10000000     ucrtd:ucrtbased.dll
 0000:fff8e000       .debug$S                   10000000     ucrtd:ucrtbased.dll
 0000:fff8e000       .debug$S                   10000000     ucrtd:ucrtbased.dll
 0000:fff8e000       .debug$S                   10000000     ucrtd:ucrtbased.dll
 0000:fff8e000       .debug$S                   10000000     ucrtd:ucrtbased.dll
 0000:fff8e000       .debug$S                   10000000     ucrtd:ucrtbased.dll
 0000:fff8e000       .debug$S                   10000000     ucrtd:ucrtbased.dll
 0000:fff8e000       .debug$S                   10000000     ucrtd:ucrtbased.dll
 0000:fff8e000       .debug$S                   10000000     ucrtd:ucrtbased.dll
 0000:fff8e000       .debug$S                   10000000     ucrtd:ucrtbased.dll
 0000:fff8e000       .debug$S                   10000000     ucrtd:ucrtbased.dll
 0000:fff8e000       .debug$S                   10000000     ucrtd:ucrtbased.dll
 0000:fff8e000       .debug$S                   10000000     ucrtd:ucrtbased.dll
 0000:fff8e000       .debug$S                   10000000     ucrtd:ucrtbased.dll
 0000:fff8e000       .debug$S                   10000000     ucrtd:ucrtbased.dll
 0000:fff8e000       .debug$S                   10000000     ucrtd:ucrtbased.dll
 0000:fff8e000       .debug$S                   10000000     ucrtd:ucrtbased.dll
 0000:fff8e000       .debug$S                   10000000     ucrtd:ucrtbased.dll
 0000:fff8e000       .debug$S                   10000000     ucrtd:ucrtbased.dll
 0000:fff8e000       .debug$S                   10000000     kernel32:KERNEL32.dll
 0000:fff8e000       .debug$S                   10000000     kernel32:KERNEL32.dll
 0000:fff8e000       .debug$S                   10000000     kernel32:KERNEL32.dll
 0000:fff8e000       .debug$S                   10000000     kernel32:KERNEL32.dll
 0000:fff8e000       .debug$S                   10000000     kernel32:KERNEL32.dll
 0000:fff8e000       .debug$S                   10000000     kernel32:KERNEL32.dll
 0000:fff8e000       .debug$S                   10000000     kernel32:KERNEL32.dll
 0000:fff8e000       .debug$S                   10000000     kernel32:KERNEL32.dll
 0000:fff8e000       .debug$S                   10000000     kernel32:KERNEL32.dll
 0000:fff8e000       .debug$S                   10000000     kernel32:KERNEL32.dll
 0000:fff8e000       .debug$S                   10000000     kernel32:KERNEL32.dll
 0000:fff8e000       .debug$S                   10000000     kernel32:KERNEL32.dll
 0000:fff8e000       .debug$S                   10000000     kernel32:KERNEL32.dll
 0000:fff8e000       .debug$S                   10000000     kernel32:KERNEL32.dll
 0000:fff8e000       .debug$S                   10000000     kernel32:KERNEL32.dll
 0000:fff8e000       .debug$S                   10000000     kernel32:KERNEL32.dll
 0000:fff8e000       .debug$S                   10000000     kernel32:KERNEL32.dll
 0000:fff8e000       .debug$S                   10000000     kernel32:KERNEL32.dll
 0000:fff8e000       .debug$S                   10000000     kernel32:KERNEL32.dll
 0000:fff8e000       .debug$S                   10000000     kernel32:KERNEL32.dll
 0000:fff8e000       .debug$S                   10000000     kernel32:KERNEL32.dll
 0000:fff8e000       .debug$S                   10000000     kernel32:KERNEL32.dll
 0000:fff8e000       .debug$S                   10000000     kernel32:KERNEL32.dll
 0000:fff8e000       .debug$S                   10000000     kernel32:KERNEL32.dll
 0000:fff8e000       .debug$S                   10000000     kernel32:KERNEL32.dll
 0000:fff8e000       .debug$S                   10000000     kernel32:KERNEL32.dll
 0000:fff8e000       .debug$S                   10000000     kernel32:KERNEL32.dll
 0000:fff8e000       .debug$S                   10000000     kernel32:KERNEL32.dll
 0000:fff8e000       .debug$S                   10000000     kernel32:KERNEL32.dll
 0000:fff8e000       .debug$S                   10000000     kernel32:KERNEL32.dll
 0000:fff8e000       .debug$S                   10000000     kernel32:KERNEL32.dll
 0000:fff8e000       .debug$S                   10000000     kernel32:KERNEL32.dll
 0000:fff8e000       .debug$S                   10000000     kernel32:KERNEL32.dll
 0000:fff8e000       .debug$S                   10000000     kernel32:KERNEL32.dll
 0000:fff8e000       .debug$S                   10000000     kernel32:KERNEL32.dll
 0000:fff8e000       .debug$S                   10000000     kernel32:KERNEL32.dll
 0000:fff8e000       .debug$S                   10000000     kernel32:KERNEL32.dll
 0000:fff8e000       .debug$S                   10000000     kernel32:KERNEL32.dll
 0000:fff8e000       .debug$S                   10000000     kernel32:KERNEL32.dll
 0000:fff8e000       .debug$S                   10000000     kernel32:KERNEL32.dll
 0000:fff8e000       .debug$S                   10000000     kernel32:KERNEL32.dll
 0000:fff8e000       .debug$S                   10000000     kernel32:KERNEL32.dll
 0000:fff8e000       .debug$S                   10000000     kernel32:KERNEL32.dll
 0000:fff8e000       .debug$S                   10000000     kernel32:KERNEL32.dll
 0000:fff8e000       .debug$S                   10000000     kernel32:KERNEL32.dll
 0000:fff8e000       .debug$S                   10000000     kernel32:KERNEL32.dll
 0000:fff8e000       .debug$S                   10000000     kernel32:KERNEL32.dll
 0000:fff8e000       .debug$S                   10000000     kernel32:KERNEL32.dll
 0000:fff8e000       .debug$S                   10000000     kernel32:KERNEL32.dll
 0000:fff8e000       .debug$S                   10000000     kernel32:KERNEL32.dll
 0000:fff8e000       .debug$S                   10000000     kernel32:KERNEL32.dll
 0000:fff8e000       .debug$S                   10000000     kernel32:KERNEL32.dll
 0000:fff8e000       .debug$S                   10000000     kernel32:KERNEL32.dll
 0000:fff8e000       .debug$S                   10000000     kernel32:KERNEL32.dll
 0000:fff8e000       .debug$S                   10000000     kernel32:KERNEL32.dll
 0000:fff8e000       .debug$S                   10000000     kernel32:KERNEL32.dll
 0000:fff8e000       .debug$S                   10000000     kernel32:KERNEL32.dll
 0000:fff8e000       .debug$S                   10000000     kernel32:KERNEL32.dll
 0000:fff8e000       .debug$S                   10000000     msvcprtd:MSVCP140D.dll
 0000:fff8e000       .debug$S                   10000000     msvcprtd:MSVCP140D.dll
 0000:fff8e000       .debug$S                   10000000     msvcprtd:MSVCP140D.dll
 0000:fff8e000       .debug$S                   10000000     msvcprtd:MSVCP140D.dll
 0000:fff8e000       .debug$S                   10000000     msvcprtd:MSVCP140D.dll
 0000:fff8e000       .debug$S                   10000000     msvcprtd:MSVCP140D.dll
 0000:fff8e000       .debug$S                   10000000     msvcprtd:MSVCP140D.dll
 0000:fff8e000       .debug$S                   10000000     msvcprtd:MSVCP140D.dll
 0000:fff8e000       .debug$S                   10000000     msvcprtd:MSVCP140D.dll
 0000:fff8e000       .debug$S                   10000000     msvcprtd:MSVCP140D.dll
 0000:fff8e000       .debug$S                   10000000     msvcprtd:MSVCP140D.dll
 0000:fff8e000       .debug$S                   10000000     msvcprtd:MSVCP140D.dll
 0000:fff8e000       .debug$S                   10000000     msvcprtd:MSVCP140D.dll
 0000:fff8e000       .debug$S                   10000000     msvcprtd:MSVCP140D.dll
 0000:fff8e000       .debug$S                   10000000     msvcprtd:MSVCP140D.dll
 0000:fff8e000       .debug$S                   10000000     msvcprtd:MSVCP140D.dll
 0000:fff8e000       .debug$S                   10000000     msvcprtd:MSVCP140D.dll
 0000:fff8e000       .debug$S                   10000000     msvcprtd:MSVCP140D.dll
 0000:fff8e000       .debug$S                   10000000     msvcprtd:MSVCP140D.dll
 0000:fff8e000       .debug$S                   10000000     msvcprtd:MSVCP140D.dll
 0000:fff8e000       .debug$S                   10000000     msvcprtd:MSVCP140D.dll
 0000:fff8e000       .debug$S                   10000000     msvcprtd:MSVCP140D.dll
 0000:fff8e000       .debug$S                   10000000     msvcprtd:MSVCP140D.dll
 0000:fff8e000       .debug$S                   10000000     msvcprtd:MSVCP140D.dll
 0000:fff8e000       .debug$S                   10000000     msvcprtd:MSVCP140D.dll
 0000:fff8e000       .debug$S                   10000000     msvcprtd:MSVCP140D.dll
 0000:fff8e000       .debug$S                   10000000     msvcprtd:MSVCP140D.dll
 0000:fff8e000       .debug$S                   10000000     msvcprtd:MSVCP140D.dll
 0000:fff8e000       .debug$S                   10000000     msvcprtd:MSVCP140D.dll
 0000:fff8e000       .debug$S                   10000000     msvcprtd:MSVCP140D.dll
 0000:fff8e000       .debug$S                   10000000     msvcprtd:MSVCP140D.dll
 0000:fff8e000       .debug$S                   10000000     msvcprtd:MSVCP140D.dll
 0000:fff8e000       .debug$S                   10000000     msvcprtd:MSVCP140D.dll
 0000:fff8e000       .debug$S                   10000000     msvcprtd:MSVCP140D.dll
 0000:fff8e000       .debug$S                   10000000     msvcprtd:MSVCP140D.dll
 0000:fff8e000       .debug$S                   10000000     msvcprtd:MSVCP140D.dll
 0000:fff8e000       .debug$S                   10000000     msvcprtd:MSVCP140D.dll
 0000:fff8e000       .debug$S                   10000000     msvcprtd:MSVCP140D.dll
 0000:fff8e000       .debug$S                   10000000     msvcprtd:MSVCP140D.dll
 0000:fff8e000       .debug$S                   10000000     msvcprtd:MSVCP140D.dll
 0000:fff8e000       .debug$S                   10000000     msvcprtd:MSVCP140D.dll
 0000:fff8e000       .debug$S                   10000000     msvcprtd:MSVCP140D.dll
 0000:fff8e000       .debug$S                   10000000     msvcprtd:MSVCP140D.dll
 0000:fff8e000       .debug$S                   10000000     msvcprtd:MSVCP140D.dll
 0000:fff8e000       .debug$S                   10000000     msvcprtd:MSVCP140D.dll
 0000:fff8e000       .debug$S                   10000000     msvcprtd:MSVCP140D.dll
 0000:fff8e000       .debug$S                   10000000     msvcprtd:MSVCP140D.dll
 0000:fff8e000       .debug$S                   10000000     msvcprtd:MSVCP140D.dll
 0000:fff8e000       .debug$S                   10000000     msvcprtd:MSVCP140D.dll
 0000:fff8e000       .debug$S                   10000000     msvcprtd:MSVCP140D.dll
 0000:fff8e000       .debug$S                   10000000     msvcprtd:MSVCP140D.dll
 0000:fff8e000       .debug$S                   10000000     msvcprtd:MSVCP140D.dll
 0000:fff8e000       .debug$S                   10000000     msvcprtd:MSVCP140D.dll
 0000:fff8e000       .debug$S                   10000000     msvcprtd:MSVCP140D.dll
 0000:fff8e000       .debug$S                   10000000     msvcprtd:MSVCP140D.dll
 0000:fff8e000       .debug$S                   10000000     msvcprtd:MSVCP140D.dll
 0000:fff8e000       .debug$S                   10000000     msvcprtd:MSVCP140D.dll
 0000:fff8e000       .debug$S                   10000000     msvcprtd:MSVCP140D.dll
 0000:fff8e000       .debug$S                   10000000     msvcprtd:MSVCP140D.dll
 0000:fff8e000       .debug$S                   10000000     msvcprtd:MSVCP140D.dll
 0000:fff8e000       .debug$S                   10000000     msvcprtd:MSVCP140D.dll
 0000:fff8e000       .debug$S                   10000000     msvcprtd:MSVCP140D.dll
 0000:fff8e000       .debug$S                   10000000     msvcprtd:MSVCP140D.dll
 0000:fff8e000       .debug$S                   10000000     msvcprtd:MSVCP140D.dll
 0000:fff8e000       .debug$S                   10000000     msvcprtd:MSVCP140D.dll
 0000:fff8e000       .debug$S                   10000000     msvcprtd:MSVCP140D.dll
 0000:fff8e000       .debug$S                   10000000     msvcprtd:MSVCP140D.dll
 0000:fff8e000       .debug$S                   10000000     msvcprtd:MSVCP140D.dll
 0000:fff8e000       .debug$S                   10000000     msvcprtd:MSVCP140D.dll
 0000:fff8e000       .debug$S                   10000000     msvcprtd:MSVCP140D.dll
 0000:fff8e000       .debug$S                   10000000     msvcprtd:MSVCP140D.dll
 0000:fff8e000       .debug$S                   10000000     msvcprtd:MSVCP140D.dll
 0000:fff8e000       .debug$S                   10000000     msvcprtd:MSVCP140D.dll
 0000:fff8e000       .debug$S                   10000000     msvcprtd:MSVCP140D.dll
 0000:fff8e000       .debug$S                   10000000     msvcprtd:MSVCP140D.dll
 0000:fff8e000       .debug$S                   10000000     msvcprtd:MSVCP140D.dll
 0000:fff8e000       .debug$S                   10000000     msvcprtd:MSVCP140D.dll
 0000:fff8e000       .debug$S                   10000000     msvcprtd:MSVCP140D.dll
 0000:fff8e000       .debug$S                   10000000     msvcprtd:MSVCP140D.dll
 0000:fff8e000       .debug$S                   10000000     vcruntimed:VCRUNTIME140D.dll
 0000:fff8e000       .debug$S                   10000000     vcruntimed:VCRUNTIME140D.dll
 0000:fff8e000       .debug$S                   10000000     vcruntimed:VCRUNTIME140D.dll
 0000:fff8e000       .debug$S                   10000000     vcruntimed:VCRUNTIME140D.dll
 0000:fff8e000       .debug$S                   10000000     vcruntimed:VCRUNTIME140D.dll
 0000:fff8e000       .debug$S                   10000000     vcruntimed:VCRUNTIME140D.dll
 0000:fff8e000       .debug$S                   10000000     vcruntimed:VCRUNTIME140D.dll
 0000:fff8e000       .debug$S                   10000000     vcruntimed:VCRUNTIME140D.dll
 0000:fff8e000       .debug$S                   10000000     vcruntimed:VCRUNTIME140D.dll
 0000:fff8e000       .debug$S                   10000000     vcruntimed:VCRUNTIME140D.dll
 0000:fff8e000       .debug$S                   10000000     vcruntimed:VCRUNTIME140D.dll
 0000:fff8e000       .debug$S                   10000000     vcruntimed:VCRUNTIME140D.dll
 0000:fff8e000       .debug$S                   10000000     vcruntimed:VCRUNTIME140D.dll
 0000:fff8e000       .debug$S                   10000000     vcruntimed:VCRUNTIME140D.dll
 0000:fff8e000       .debug$S                   10000000     vcruntimed:VCRUNTIME140D.dll
 0000:fff8e000       .debug$S                   10000000     vcruntimed:VCRUNTIME140D.dll
 0000:fff8e000       .debug$S                   10000000     vcruntimed:VCRUNTIME140D.dll
 0001:00000000       ??__Eg_agentCorridors@@YAXXZ 10001000 f   NavBridge.obj
 0001:00000040       ??__E_Fac_tidy_reg@std@@YAXXZ 10001040 f   msvcprtd:locale0_implib.obj
 0001:00000170       ?dtAllocDefault@@YAPAXIW4dtAllocHint@@@Z 10001170 f   DetourAlloc.obj
 0001:000001a0       ?dtFreeDefault@@YAXPAX@Z   100011a0 f   DetourAlloc.obj
 0001:000008a8       $LN15                      100018a8     DetourCommon.obj
 0001:000008b0       $LN14                      100018b0     DetourCommon.obj
 0001:000008ec       $LN13                      100018ec     DetourCommon.obj
 0001:000008ef       $LN12                      100018ef     DetourCommon.obj
 0001:000008f2       $LN11                      100018f2     DetourCommon.obj
 0001:000008f5       $LN10                      100018f5     DetourCommon.obj
 0001:000008f8       $LN9                       100018f8     DetourCommon.obj
 0001:00000b40       $LN10                      10001b40     DetourCommon.obj
 0001:00000b48       $LN9                       10001b48     DetourCommon.obj
 0001:00000b6c       $LN8                       10001b6c     DetourCommon.obj
 0001:00000b6f       $LN7                       10001b6f     DetourCommon.obj
 0001:00000b72       $LN6                       10001b72     DetourCommon.obj
 0001:00000d70       $LN19                      10001d70     DetourCommon.obj
 0001:00000d78       $LN18                      10001d78     DetourCommon.obj
 0001:00000d9c       $LN17                      10001d9c     DetourCommon.obj
 0001:00000da1       $LN16                      10001da1     DetourCommon.obj
 0001:00000da6       $LN15                      10001da6     DetourCommon.obj
 0001:00000ec8       $LN8                       10001ec8     DetourCommon.obj
 0001:00000ed0       $LN7                       10001ed0     DetourCommon.obj
 0001:00000ef4       $LN6                       10001ef4     DetourCommon.obj
 0001:00000ef6       $LN5                       10001ef6     DetourCommon.obj
 0001:00000ef8       $LN4                       10001ef8     DetourCommon.obj
 0001:00001910       $LN22                      10002910     DetourCommon.obj
 0001:00001918       $LN21                      10002918     DetourCommon.obj
 0001:00001990       $LN20                      10002990     DetourCommon.obj
 0001:00001995       $LN19                      10002995     DetourCommon.obj
 0001:0000199a       $LN18                      1000299a     DetourCommon.obj
 0001:0000199f       $LN17                      1000299f     DetourCommon.obj
 0001:000019a4       $LN16                      100029a4     DetourCommon.obj
 0001:000019a6       $LN15                      100029a6     DetourCommon.obj
 0001:000019ab       $LN14                      100029ab     DetourCommon.obj
 0001:000019b0       $LN13                      100029b0     DetourCommon.obj
 0001:000019b5       $LN12                      100029b5     DetourCommon.obj
 0001:000019ba       $LN11                      100029ba     DetourCommon.obj
 0001:00001cb0       ?projectPoly@@YAXPBM0HAAM1@Z 10002cb0 f   DetourCommon.obj
 0001:000027ec       $LN8                       100037ec     DetourNavMesh.obj
 0001:000027f4       $LN7                       100037f4     DetourNavMesh.obj
 0001:00002800       $LN6                       10003800     DetourNavMesh.obj
 0001:00002ea4       $LN34                      10003ea4     DetourNavMesh.obj
 0001:00002eac       $LN33                      10003eac     DetourNavMesh.obj
 0001:00002ec4       $LN32                      10003ec4     DetourNavMesh.obj
 0001:00002ec9       $LN31                      10003ec9     DetourNavMesh.obj
 0001:0000326c       $LN30                      1000426c     DetourNavMesh.obj
 0001:00003274       $LN29                      10004274     DetourNavMesh.obj
 0001:00003280       $LN28                      10004280     DetourNavMesh.obj
 0001:00003804       $LN12                      10004804     DetourNavMesh.obj
 0001:0000380c       $LN11                      1000480c     DetourNavMesh.obj
 0001:00003830       $LN10                      10004830     DetourNavMesh.obj
 0001:00003833       $LN9                       10004833     DetourNavMesh.obj
 0001:00003836       $LN8                       10004836     DetourNavMesh.obj
 0001:000038e0       $LN7                       100048e0     DetourNavMesh.obj
 0001:000038e8       $LN6                       100048e8     DetourNavMesh.obj
 0001:0000390c       $LN5                       1000490c     DetourNavMesh.obj
 0001:0000390f       $LN4                       1000490f     DetourNavMesh.obj
 0001:00003912       $LN3                       10004912     DetourNavMesh.obj
 0001:000039f8       $LN12                      100049f8     DetourNavMesh.obj
 0001:00003a00       $LN11                      10004a00     DetourNavMesh.obj
 0001:00003a24       $LN10                      10004a24     DetourNavMesh.obj
 0001:00003a27       $LN9                       10004a27     DetourNavMesh.obj
 0001:00003a2a       $LN8                       10004a2a     DetourNavMesh.obj
 0001:00003c90       $LN19                      10004c90     DetourNavMesh.obj
 0001:00003c98       $LN18                      10004c98     DetourNavMesh.obj
 0001:00003cbc       $LN17                      10004cbc     DetourNavMesh.obj
 0001:00003cbf       $LN16                      10004cbf     DetourNavMesh.obj
 0001:00003cc2       $LN15                      10004cc2     DetourNavMesh.obj
 0001:00003e34       $LN16                      10004e34     DetourNavMesh.obj
 0001:00003e3c       $LN15                      10004e3c     DetourNavMesh.obj
 0001:00003e60       $LN14                      10004e60     DetourNavMesh.obj
 0001:00003e63       $LN13                      10004e63     DetourNavMesh.obj
 0001:00003e66       $LN12                      10004e66     DetourNavMesh.obj
 0001:00003f78       $LN12                      10004f78     DetourNavMesh.obj
 0001:00003f80       $LN11                      10004f80     DetourNavMesh.obj
 0001:00003fa4       $LN10                      10004fa4     DetourNavMesh.obj
 0001:00003fa7       $LN9                       10004fa7     DetourNavMesh.obj
 0001:00003faa       $LN8                       10004faa     DetourNavMesh.obj
 0001:000040bc       $LN12                      100050bc     DetourNavMesh.obj
 0001:000040c4       $LN11                      100050c4     DetourNavMesh.obj
 0001:000040e8       $LN10                      100050e8     DetourNavMesh.obj
 0001:000040eb       $LN9                       100050eb     DetourNavMesh.obj
 0001:000040ee       $LN8                       100050ee     DetourNavMesh.obj
 0001:0000420c       $LN12                      1000520c     DetourNavMesh.obj
 0001:00004214       $LN11                      10005214     DetourNavMesh.obj
 0001:00004238       $LN10                      10005238     DetourNavMesh.obj
 0001:0000423b       $LN9                       1000523b     DetourNavMesh.obj
 0001:0000423e       $LN8                       1000523e     DetourNavMesh.obj
 0001:0000435c       $LN12                      1000535c     DetourNavMesh.obj
 0001:00004364       $LN11                      10005364     DetourNavMesh.obj
 0001:00004388       $LN10                      10005388     DetourNavMesh.obj
 0001:0000438b       $LN9                       1000538b     DetourNavMesh.obj
 0001:0000438e       $LN8                       1000538e     DetourNavMesh.obj
 0001:0000488c       $LN13                      1000588c     DetourNavMesh.obj
 0001:00004b70       $LN19                      10005b70     DetourNavMesh.obj
 0001:00004b78       $LN18                      10005b78     DetourNavMesh.obj
 0001:00004ba8       $LN17                      10005ba8     DetourNavMesh.obj
 0001:00004bad       $LN16                      10005bad     DetourNavMesh.obj
 0001:00004bb2       $LN15                      10005bb2     DetourNavMesh.obj
 0001:00004bb7       $LN14                      10005bb7     DetourNavMesh.obj
 0001:00005018       $LN14                      10006018     DetourNavMesh.obj
 0001:00005020       $LN13                      10006020     DetourNavMesh.obj
 0001:00005038       $LN12                      10006038     DetourNavMesh.obj
 0001:00005042       $LN11                      10006042     DetourNavMesh.obj
 0001:00005588       $LN30                      10006588     DetourNavMesh.obj
 0001:00005590       $LN29                      10006590     DetourNavMesh.obj
 0001:000055d8       $LN28                      100065d8     DetourNavMesh.obj
 0001:000055dd       $LN27                      100065dd     DetourNavMesh.obj
 0001:000055e2       $LN26                      100065e2     DetourNavMesh.obj
 0001:000055e7       $LN25                      100065e7     DetourNavMesh.obj
 0001:000055ec       $LN24                      100065ec     DetourNavMesh.obj
 0001:000055f1       $LN23                      100065f1     DetourNavMesh.obj
 0001:00005988       $LN21                      10006988     DetourNavMesh.obj
 0001:00005990       $LN20                      10006990     DetourNavMesh.obj
 0001:000059a8       $LN19                      100069a8     DetourNavMesh.obj
 0001:000059b2       $LN18                      100069b2     DetourNavMesh.obj
 0001:000061d0       $LN28                      100071d0     DetourNavMesh.obj
 0001:000061d8       $LN27                      100071d8     DetourNavMesh.obj
 0001:00006208       $LN26                      10007208     DetourNavMesh.obj
 0001:0000620d       $LN25                      1000720d     DetourNavMesh.obj
 0001:00006212       $LN24                      10007212     DetourNavMesh.obj
 0001:00006217       $LN23                      10007217     DetourNavMesh.obj
 0001:0000648c       $LN18                      1000748c     DetourNavMesh.obj
 0001:00006494       $LN17                      10007494     DetourNavMesh.obj
 0001:000064dc       $LN16                      100074dc     DetourNavMesh.obj
 0001:000064e8       $LN15                      100074e8     DetourNavMesh.obj
 0001:000064ed       $LN14                      100074ed     DetourNavMesh.obj
 0001:000064fb       $LN13                      100074fb     DetourNavMesh.obj
 0001:00006501       $LN12                      10007501     DetourNavMesh.obj
 0001:00006506       $LN11                      10007506     DetourNavMesh.obj
 0001:00006784       $LN23                      10007784     DetourNavMesh.obj
 0001:0000678c       $LN22                      1000778c     DetourNavMesh.obj
 0001:000067bc       $LN21                      100077bc     DetourNavMesh.obj
 0001:000067c4       $LN20                      100077c4     DetourNavMesh.obj
 0001:000067c6       $LN19                      100077c6     DetourNavMesh.obj
 0001:000067c8       $LN18                      100077c8     DetourNavMesh.obj
 0001:00006948       $LN11                      10007948     DetourNavMesh.obj
 0001:00006950       $LN10                      10007950     DetourNavMesh.obj
 0001:00006974       $LN9                       10007974     DetourNavMesh.obj
 0001:00006976       $LN8                       10007976     DetourNavMesh.obj
 0001:0000697b       $LN7                       1000797b     DetourNavMesh.obj
 0001:00006a20       ?getSlabCoord@@YAMPBMH@Z   10007a20 f   DetourNavMesh.obj
 0001:00006a80       ?calcSlabEndPoints@@YAXPBM0PAM1H@Z 10007a80 f   DetourNavMesh.obj
 0001:00006cc0       ??$closestPointOnDetailEdges@$00@?A0x6e09c7e9@@YAXPBUdtMeshTile@@PBUdtPoly@@PBMPAM@Z 10007cc0 f   DetourNavMesh.obj
 0001:00006f0c       $LN20                      10007f0c     DetourNavMesh.obj
 0001:00006f14       $LN19                      10007f14     DetourNavMesh.obj
 0001:00006f2c       $LN18                      10007f2c     DetourNavMesh.obj
 0001:00006f2e       $LN17                      10007f2e     DetourNavMesh.obj
 0001:00006f30       ??$closestPointOnDetailEdges@$0A@@?A0x6e09c7e9@@YAXPBUdtMeshTile@@PBUdtPoly@@PBMPAM@Z 10007f30 f   DetourNavMesh.obj
 0001:00007174       $LN21                      10008174     DetourNavMesh.obj
 0001:0000717c       $LN20                      1000817c     DetourNavMesh.obj
 0001:00007194       $LN19                      10008194     DetourNavMesh.obj
 0001:00007196       $LN18                      10008196     DetourNavMesh.obj
 0001:00009738       $LN113                     1000a738     DetourNavMeshBuilder.obj
 0001:00009740       $LN112                     1000a740     DetourNavMeshBuilder.obj
 0001:00009764       $LN111                     1000a764     DetourNavMeshBuilder.obj
 0001:00009766       $LN110                     1000a766     DetourNavMeshBuilder.obj
 0001:0000976b       $LN109                     1000a76b     DetourNavMeshBuilder.obj
 0001:000099d8       $LN9                       1000a9d8     DetourNavMeshBuilder.obj
 0001:000099e0       $LN8                       1000a9e0     DetourNavMeshBuilder.obj
 0001:000099f8       $LN7                       1000a9f8     DetourNavMeshBuilder.obj
 0001:00009a07       $LN6                       1000aa07     DetourNavMeshBuilder.obj
 0001:00009e00       $LN34                      1000ae00     DetourNavMeshBuilder.obj
 0001:00009e08       $LN33                      1000ae08     DetourNavMeshBuilder.obj
 0001:00009e14       $LN32                      1000ae14     DetourNavMeshBuilder.obj
 0001:00009e20       ?compareItemX@@YAHPBX0@Z   1000ae20 f   DetourNavMeshBuilder.obj
 0001:00009eb0       ?compareItemY@@YAHPBX0@Z   1000aeb0 f   DetourNavMeshBuilder.obj
 0001:00009f40       ?compareItemZ@@YAHPBX0@Z   1000af40 f   DetourNavMeshBuilder.obj
 0001:00009fd0       ?calcExtends@@YAXPAUBVItem@@HHHPAG1@Z 1000afd0 f   DetourNavMeshBuilder.obj
 0001:0000a290       ?subdivide@@YAXPAUBVItem@@HHHAAHPAUdtBVNode@@@Z 1000b290 f   DetourNavMeshBuilder.obj
 0001:0000a580       ?createBVTree@@YAHPAUdtNavMeshCreateParams@@PAUdtBVNode@@H@Z 1000b580 f   DetourNavMeshBuilder.obj
 0001:0000abf0       $LN25                      1000bbf0     DetourNavMeshBuilder.obj
 0001:0000abf8       $LN24                      1000bbf8     DetourNavMeshBuilder.obj
 0001:0000ac1c       $LN23                      1000bc1c     DetourNavMeshBuilder.obj
 0001:0000ac24       $LN22                      1000bc24     DetourNavMeshBuilder.obj
 0001:0000ac29       $LN21                      1000bc29     DetourNavMeshBuilder.obj
 0001:0000ac30       ?classifyOffMeshPoint@@YAEPBM00@Z 1000bc30 f   DetourNavMeshBuilder.obj
 0001:0000ad98       $LN21                      1000bd98     DetourNavMeshBuilder.obj
 0001:0000be94       $LN47                      1000ce94     DetourNavMeshQuery.obj
 0001:0000be9c       $LN46                      1000ce9c     DetourNavMeshQuery.obj
 0001:0000bee4       $LN45                      1000cee4     DetourNavMeshQuery.obj
 0001:0000bef2       $LN44                      1000cef2     DetourNavMeshQuery.obj
 0001:0000bf00       $LN43                      1000cf00     DetourNavMeshQuery.obj
 0001:0000bf0b       $LN42                      1000cf0b     DetourNavMeshQuery.obj
 0001:0000bf16       $LN41                      1000cf16     DetourNavMeshQuery.obj
 0001:0000bf1f       $LN40                      1000cf1f     DetourNavMeshQuery.obj
 0001:0000c8d4       $LN64                      1000d8d4     DetourNavMeshQuery.obj
 0001:0000c8dc       $LN63                      1000d8dc     DetourNavMeshQuery.obj
 0001:0000c954       $LN62                      1000d954     DetourNavMeshQuery.obj
 0001:0000c956       $LN61                      1000d956     DetourNavMeshQuery.obj
 0001:0000c95f       $LN60                      1000d95f     DetourNavMeshQuery.obj
 0001:0000c966       $LN59                      1000d966     DetourNavMeshQuery.obj
 0001:0000c96c       $LN58                      1000d96c     DetourNavMeshQuery.obj
 0001:0000c971       $LN57                      1000d971     DetourNavMeshQuery.obj
 0001:0000c97d       $LN56                      1000d97d     DetourNavMeshQuery.obj
 0001:0000c988       $LN55                      1000d988     DetourNavMeshQuery.obj
 0001:0000c993       $LN54                      1000d993     DetourNavMeshQuery.obj
 0001:0000c9a1       $LN53                      1000d9a1     DetourNavMeshQuery.obj
 0001:0000d7cc       $LN54                      1000e7cc     DetourNavMeshQuery.obj
 0001:0000d7d4       $LN53                      1000e7d4     DetourNavMeshQuery.obj
 0001:0000d828       $LN52                      1000e828     DetourNavMeshQuery.obj
 0001:0000d836       $LN51                      1000e836     DetourNavMeshQuery.obj
 0001:0000d844       $LN50                      1000e844     DetourNavMeshQuery.obj
 0001:0000d84f       $LN49                      1000e84f     DetourNavMeshQuery.obj
 0001:0000d85a       $LN48                      1000e85a     DetourNavMeshQuery.obj
 0001:0000d863       $LN47                      1000e863     DetourNavMeshQuery.obj
 0001:0000d86c       $LN46                      1000e86c     DetourNavMeshQuery.obj
 0001:0000dc54       $LN29                      1000ec54     DetourNavMeshQuery.obj
 0001:0000dc5c       $LN28                      1000ec5c     DetourNavMeshQuery.obj
 0001:0000dc80       $LN27                      1000ec80     DetourNavMeshQuery.obj
 0001:0000dc82       $LN26                      1000ec82     DetourNavMeshQuery.obj
 0001:0000dc89       $LN25                      1000ec89     DetourNavMeshQuery.obj
 0001:0000e0b0       $LN33                      1000f0b0     DetourNavMeshQuery.obj
 0001:0000e0b8       $LN32                      1000f0b8     DetourNavMeshQuery.obj
 0001:0000e0e8       $LN31                      1000f0e8     DetourNavMeshQuery.obj
 0001:0000e0ea       $LN30                      1000f0ea     DetourNavMeshQuery.obj
 0001:0000e0f1       $LN29                      1000f0f1     DetourNavMeshQuery.obj
 0001:0000e0f3       $LN28                      1000f0f3     DetourNavMeshQuery.obj
 0001:0000e88c       $LN48                      1000f88c     DetourNavMeshQuery.obj
 0001:0000e894       $LN47                      1000f894     DetourNavMeshQuery.obj
 0001:0000e900       $LN46                      1000f900     DetourNavMeshQuery.obj
 0001:0000e905       $LN45                      1000f905     DetourNavMeshQuery.obj
 0001:0000e908       $LN44                      1000f908     DetourNavMeshQuery.obj
 0001:0000e90b       $LN43                      1000f90b     DetourNavMeshQuery.obj
 0001:0000e919       $LN42                      1000f919     DetourNavMeshQuery.obj
 0001:0000e927       $LN41                      1000f927     DetourNavMeshQuery.obj
 0001:0000e932       $LN40                      1000f932     DetourNavMeshQuery.obj
 0001:0000e93d       $LN39                      1000f93d     DetourNavMeshQuery.obj
 0001:0000e946       $LN38                      1000f946     DetourNavMeshQuery.obj
 0001:0000f1b8       $LN59                      100101b8     DetourNavMeshQuery.obj
 0001:0000f1c0       $LN58                      100101c0     DetourNavMeshQuery.obj
 0001:0000f25c       $LN57                      1001025c     DetourNavMeshQuery.obj
 0001:0000f263       $LN56                      10010263     DetourNavMeshQuery.obj
 0001:0000f26a       $LN55                      1001026a     DetourNavMeshQuery.obj
 0001:0000f26f       $LN54                      1001026f     DetourNavMeshQuery.obj
 0001:0000f274       $LN53                      10010274     DetourNavMeshQuery.obj
 0001:0000f277       $LN52                      10010277     DetourNavMeshQuery.obj
 0001:0000f27a       $LN51                      1001027a     DetourNavMeshQuery.obj
 0001:0000f288       $LN50                      10010288     DetourNavMeshQuery.obj
 0001:0000f296       $LN49                      10010296     DetourNavMeshQuery.obj
 0001:0000f2a1       $LN48                      100102a1     DetourNavMeshQuery.obj
